---
triple:          'arm64-apple-darwin'
binary-path:     '/Users/karolpietrow/Documents/LICENCJAT/test-nowa-llama-cpp/llama.cpp/build-tvos-device/framework/llama.framework/llama'
relocations:
  - { offset: 0x24CD0, size: 0x8, addend: 0x0, symName: __ZNSt3__127__tree_balance_after_insertB9nqe210106IPNS_16__tree_node_baseIPvEEEEvT_S5_, symObjAddr: 0x3170, symBinAddr: 0x7170, symSize: 0x1D4 }
  - { offset: 0x25DBC, size: 0x8, addend: 0x0, symName: __ZNSt3__120__throw_length_errorB9nqe210106EPKc, symObjAddr: 0x3358, symBinAddr: 0x7358, symSize: 0x50 }
  - { offset: 0x26264, size: 0x8, addend: 0x0, symName: __ZNSt3__120__throw_out_of_rangeB9nqe210106EPKc, symObjAddr: 0x4248, symBinAddr: 0x8248, symSize: 0x50 }
  - { offset: 0x27AB3, size: 0x8, addend: 0x0, symName: __ZSt28__throw_bad_array_new_lengthB9nqe210106v, symObjAddr: 0x3148, symBinAddr: 0x7148, symSize: 0x28 }
  - { offset: 0x2F229, size: 0x8, addend: 0x0, symName: __ZNK18llama_adapter_cvec10tensor_forEi, symObjAddr: 0x0, symBinAddr: 0x4000, symSize: 0x40 }
  - { offset: 0x2F293, size: 0x8, addend: 0x0, symName: __ZNK18llama_adapter_cvec8apply_toEP12ggml_contextP11ggml_tensori, symObjAddr: 0x40, symBinAddr: 0x4040, symSize: 0x50 }
  - { offset: 0x2F2FA, size: 0x8, addend: 0x0, symName: __ZNK18llama_adapter_cvec8apply_toEP12ggml_contextP11ggml_tensori, symObjAddr: 0x40, symBinAddr: 0x4040, symSize: 0x50 }
  - { offset: 0x2F95A, size: 0x8, addend: 0x0, symName: __ZN18llama_adapter_cvec4initERK11llama_model, symObjAddr: 0x90, symBinAddr: 0x4090, symSize: 0x700 }
  - { offset: 0x32573, size: 0x8, addend: 0x0, symName: __ZNSt3__16__treeINS_12__value_typeIP24ggml_backend_buffer_typeP12ggml_contextEENS_19__map_value_compareIS3_NS_4pairIKS3_S5_EENS_4lessIS3_EELb1EEENS_9allocatorISA_EEE7destroyEPNS_11__tree_nodeIS6_PvEE, symObjAddr: 0x5368, symBinAddr: 0x9368, symSize: 0x44 }
  - { offset: 0x3266D, size: 0x8, addend: 0x0, symName: __ZNSt3__16vectorINS_10unique_ptrI19ggml_backend_buffer27ggml_backend_buffer_deleterEENS_9allocatorIS4_EEE20__throw_length_errorB9nqe210106Ev, symObjAddr: 0x4CA4, symBinAddr: 0x8CA4, symSize: 0x14 }
  - { offset: 0x32685, size: 0x8, addend: 0x0, symName: __ZNSt3__16vectorIhNS_9allocatorIhEEE20__throw_length_errorB9nqe210106Ev, symObjAddr: 0x4CB8, symBinAddr: 0x8CB8, symSize: 0x14 }
  - { offset: 0x32690, size: 0x8, addend: 0x0, symName: __ZNSt3__16vectorIP11ggml_tensorNS_9allocatorIS2_EEE20__throw_length_errorB9nqe210106Ev, symObjAddr: 0x53AC, symBinAddr: 0x93AC, symSize: 0x14 }
  - { offset: 0x326A8, size: 0x8, addend: 0x0, symName: __ZNSt3__112__hash_tableINS_17__hash_value_typeINS_12basic_stringIcNS_11char_traitsIcEENS_9allocatorIcEEEE25llama_adapter_lora_weightEENS_22__unordered_map_hasherIS7_NS_4pairIKS7_S8_EENS_4hashIS7_EENS_8equal_toIS7_EELb1EEENS_21__unordered_map_equalIS7_SD_SH_SF_Lb1EEENS5_ISD_EEE4findIS7_EENS_15__hash_iteratorIPNS_11__hash_nodeIS9_PvEEEERKT_, symObjAddr: 0x53C0, symBinAddr: 0x93C0, symSize: 0x1BC }
  - { offset: 0x326B3, size: 0x8, addend: 0x0, symName: __ZNSt3__16vectorINS_10unique_ptrI12ggml_context20ggml_context_deleterEENS_9allocatorIS4_EEE20__throw_length_errorB9nqe210106Ev, symObjAddr: 0x3344, symBinAddr: 0x7344, symSize: 0x14 }
  - { offset: 0x326CB, size: 0x8, addend: 0x0, symName: __ZNSt3__120__throw_length_errorB9nqe210106EPKc, symObjAddr: 0x3358, symBinAddr: 0x7358, symSize: 0x50 }
  - { offset: 0x32712, size: 0x8, addend: 0x0, symName: __ZN18llama_adapter_cvec5applyERK11llama_modelPKfmiii, symObjAddr: 0x790, symBinAddr: 0x4790, symSize: 0x12C }
  - { offset: 0x32B5B, size: 0x8, addend: 0x0, symName: __ZN18llama_adapter_lora10get_weightEP11ggml_tensor, symObjAddr: 0x8BC, symBinAddr: 0x48BC, symSize: 0xD8 }
  - { offset: 0x32EE9, size: 0x8, addend: 0x0, symName: __ZNSt3__112basic_stringIcNS_11char_traitsIcEENS_9allocatorIcEEEC1B9nqe210106ILi0EEEPKc, symObjAddr: 0x994, symBinAddr: 0x4994, symSize: 0xA8 }
  - { offset: 0x32F06, size: 0x8, addend: 0x0, symName: __ZNSt3__112__hash_tableINS_17__hash_value_typeINS_12basic_stringIcNS_11char_traitsIcEENS_9allocatorIcEEEE25llama_adapter_lora_weightEENS_22__unordered_map_hasherIS7_NS_4pairIKS7_S8_EENS_4hashIS7_EENS_8equal_toIS7_EELb1EEENS_21__unordered_map_equalIS7_SD_SH_SF_Lb1EEENS5_ISD_EEE4findIS7_EENS_15__hash_iteratorIPNS_11__hash_nodeIS9_PvEEEERKT_, symObjAddr: 0x53C0, symBinAddr: 0x93C0, symSize: 0x1BC }
  - { offset: 0x33230, size: 0x8, addend: 0x0, symName: __ZNSt3__112basic_stringIcNS_11char_traitsIcEENS_9allocatorIcEEE20__throw_length_errorB9nqe210106Ev, symObjAddr: 0x42BC, symBinAddr: 0x82BC, symSize: 0x14 }
  - { offset: 0x33248, size: 0x8, addend: 0x0, symName: __ZNSt3__112basic_stringIcNS_11char_traitsIcEENS_9allocatorIcEEE25__init_copy_ctor_externalEPKcm, symObjAddr: 0x42D0, symBinAddr: 0x82D0, symSize: 0x8C }
  - { offset: 0x33253, size: 0x8, addend: 0x0, symName: __ZNSt3__112basic_stringIcNS_11char_traitsIcEENS_9allocatorIcEEEC1B9nqe210106ILi0EEEPKc, symObjAddr: 0x994, symBinAddr: 0x4994, symSize: 0xA8 }
  - { offset: 0x334A5, size: 0x8, addend: 0x0, symName: _llama_adapter_lora_init, symObjAddr: 0xA3C, symBinAddr: 0x4A3C, symSize: 0x100 }
  - { offset: 0x336D8, size: 0x8, addend: 0x0, symName: _llama_adapter_lora_init, symObjAddr: 0xA3C, symBinAddr: 0x4A3C, symSize: 0x100 }
  - { offset: 0x339C6, size: 0x8, addend: 0x0, symName: __ZL28llama_adapter_lora_init_implR11llama_modelPKcR18llama_adapter_lora, symObjAddr: 0xB3C, symBinAddr: 0x4B3C, symSize: 0x22E8 }
  - { offset: 0x3BD73, size: 0x8, addend: 0x0, symName: __ZN18llama_adapter_loraD2Ev, symObjAddr: 0x51FC, symBinAddr: 0x91FC, symSize: 0x16C }
  - { offset: 0x3DF20, size: 0x8, addend: 0x0, symName: __ZNSt3__112__hash_tableINS_17__hash_value_typeINS_12basic_stringIcNS_11char_traitsIcEENS_9allocatorIcEEEES7_EENS_22__unordered_map_hasherIS7_NS_4pairIKS7_S7_EENS_4hashIS7_EENS_8equal_toIS7_EELb1EEENS_21__unordered_map_equalIS7_SC_SG_SE_Lb1EEENS5_ISC_EEE21__emplace_unique_implIJRPKcRSB_EEENSA_INS_15__hash_iteratorIPNS_11__hash_nodeIS8_PvEEEEbEEDpOT_, symObjAddr: 0x35E8, symBinAddr: 0x75E8, symSize: 0x140 }
  - { offset: 0x3E6C5, size: 0x8, addend: 0x0, symName: __ZNSt3__112basic_stringIcNS_11char_traitsIcEENS_9allocatorIcEEE25__init_copy_ctor_externalEPKcm, symObjAddr: 0x42D0, symBinAddr: 0x82D0, symSize: 0x8C }
  - { offset: 0x3E86B, size: 0x8, addend: 0x0, symName: __ZNSt3__16vectorIiNS_9allocatorIiEEE8__appendEm, symObjAddr: 0x435C, symBinAddr: 0x835C, symSize: 0x118 }
  - { offset: 0x3E909, size: 0x8, addend: 0x0, symName: __ZNSt3__16vectorIiNS_9allocatorIiEEE8__appendEm, symObjAddr: 0x435C, symBinAddr: 0x835C, symSize: 0x118 }
  - { offset: 0x3ED5C, size: 0x8, addend: 0x0, symName: __ZNSt3__16vectorIiNS_9allocatorIiEEE20__throw_length_errorB9nqe210106Ev, symObjAddr: 0x4474, symBinAddr: 0x8474, symSize: 0x14 }
  - { offset: 0x3EDCB, size: 0x8, addend: 0x0, symName: __ZNSt3__16__treeINS_12__value_typeINS_12basic_stringIcNS_11char_traitsIcEENS_9allocatorIcEEEE25llama_adapter_lora_weightEENS_19__map_value_compareIS7_NS_4pairIKS7_S8_EENS_4lessIS7_EELb1EEENS5_ISD_EEE25__emplace_unique_key_argsIS7_JRKNS_21piecewise_construct_tENS_5tupleIJRSC_EEENSN_IJEEEEEENSB_INS_15__tree_iteratorIS9_PNS_11__tree_nodeIS9_PvEElEEbEERKT_DpOT0_, symObjAddr: 0x4488, symBinAddr: 0x8488, symSize: 0x1B0 }
  - { offset: 0x3F4B7, size: 0x8, addend: 0x0, symName: __ZNSt3__112__hash_tableINS_17__hash_value_typeINS_12basic_stringIcNS_11char_traitsIcEENS_9allocatorIcEEEE25llama_adapter_lora_weightEENS_22__unordered_map_hasherIS7_NS_4pairIKS7_S8_EENS_4hashIS7_EENS_8equal_toIS7_EELb1EEENS_21__unordered_map_equalIS7_SD_SH_SF_Lb1EEENS5_ISD_EEE25__emplace_unique_key_argsIS7_JRKNS_21piecewise_construct_tENS_5tupleIJRSC_EEENSR_IJEEEEEENSB_INS_15__hash_iteratorIPNS_11__hash_nodeIS9_PvEEEEbEERKT_DpOT0_, symObjAddr: 0x46AC, symBinAddr: 0x86AC, symSize: 0x40C }
  - { offset: 0x4019D, size: 0x8, addend: 0x0, symName: '__ZZL28llama_adapter_lora_init_implR11llama_modelPKcR18llama_adapter_loraENK3$_4clEP11ggml_tensorS7_', symObjAddr: 0x3434, symBinAddr: 0x7434, symSize: 0x180 }
  - { offset: 0x40766, size: 0x8, addend: 0x0, symName: __ZNSt3__110unique_ptrI12gguf_context20gguf_context_deleterED1B9nqe210106Ev, symObjAddr: 0x35B4, symBinAddr: 0x75B4, symSize: 0x34 }
  - { offset: 0x40771, size: 0x8, addend: 0x0, symName: __ZNSt3__112__hash_tableIP18llama_adapter_loraNS_4hashIS2_EENS_8equal_toIS2_EENS_9allocatorIS2_EEE25__emplace_unique_key_argsIS2_JS2_EEENS_4pairINS_15__hash_iteratorIPNS_11__hash_nodeIS2_PvEEEEbEERKT_DpOT0_, symObjAddr: 0x4CCC, symBinAddr: 0x8CCC, symSize: 0x344 }
  - { offset: 0x40E87, size: 0x8, addend: 0x0, symName: __ZNSt3__16__treeINS_12__value_typeINS_12basic_stringIcNS_11char_traitsIcEENS_9allocatorIcEEEE25llama_adapter_lora_weightEENS_19__map_value_compareIS7_NS_4pairIKS7_S8_EENS_4lessIS7_EELb1EEENS5_ISD_EEE7destroyEPNS_11__tree_nodeIS9_PvEE, symObjAddr: 0x519C, symBinAddr: 0x919C, symSize: 0x60 }
  - { offset: 0x410B8, size: 0x8, addend: 0x0, symName: __ZNSt3__112basic_stringIcNS_11char_traitsIcEENS_9allocatorIcEEE20__throw_out_of_rangeB9nqe210106Ev, symObjAddr: 0x4234, symBinAddr: 0x8234, symSize: 0x14 }
  - { offset: 0x410D0, size: 0x8, addend: 0x0, symName: __ZNSt3__120__throw_out_of_rangeB9nqe210106EPKc, symObjAddr: 0x4248, symBinAddr: 0x8248, symSize: 0x50 }
  - { offset: 0x410DB, size: 0x8, addend: 0x0, symName: __ZNSt3__16vectorIP24ggml_backend_buffer_typeNS_9allocatorIS2_EEE20__throw_length_errorB9nqe210106Ev, symObjAddr: 0x4698, symBinAddr: 0x8698, symSize: 0x14 }
  - { offset: 0x410F3, size: 0x8, addend: 0x0, symName: __ZNSt3__112__hash_tableINS_17__hash_value_typeINS_12basic_stringIcNS_11char_traitsIcEENS_9allocatorIcEEEE25llama_adapter_lora_weightEENS_22__unordered_map_hasherIS7_NS_4pairIKS7_S8_EENS_4hashIS7_EENS_8equal_toIS7_EELb1EEENS_21__unordered_map_equalIS7_SD_SH_SF_Lb1EEENS5_ISD_EEE25__emplace_unique_key_argsIS7_JRKNS_21piecewise_construct_tENS_5tupleIJRSC_EEENSR_IJEEEEEENSB_INS_15__hash_iteratorIPNS_11__hash_nodeIS9_PvEEEEbEERKT_DpOT0_, symObjAddr: 0x46AC, symBinAddr: 0x86AC, symSize: 0x40C }
  - { offset: 0x410FE, size: 0x8, addend: 0x0, symName: __ZNSt3__110unique_ptrI12gguf_context20gguf_context_deleterED1B9nqe210106Ev, symObjAddr: 0x35B4, symBinAddr: 0x75B4, symSize: 0x34 }
  - { offset: 0x41192, size: 0x8, addend: 0x0, symName: __ZNSt3__110unique_ptrI12ggml_context20ggml_context_deleterED1B9nqe210106Ev, symObjAddr: 0x33CC, symBinAddr: 0x73CC, symSize: 0x34 }
  - { offset: 0x41226, size: 0x8, addend: 0x0, symName: __ZNSt3__110unique_ptrI19ggml_backend_buffer27ggml_backend_buffer_deleterED1B9nqe210106Ev, symObjAddr: 0x3400, symBinAddr: 0x7400, symSize: 0x34 }
  - { offset: 0x412E2, size: 0x8, addend: 0x0, symName: _llama_adapter_meta_val_str, symObjAddr: 0x2E34, symBinAddr: 0x6E34, symSize: 0x140 }
  - { offset: 0x4185E, size: 0x8, addend: 0x0, symName: __ZNKSt3__112__hash_tableINS_17__hash_value_typeINS_12basic_stringIcNS_11char_traitsIcEENS_9allocatorIcEEEES7_EENS_22__unordered_map_hasherIS7_NS_4pairIKS7_S7_EENS_4hashIS7_EENS_8equal_toIS7_EELb1EEENS_21__unordered_map_equalIS7_SC_SG_SE_Lb1EEENS5_ISC_EEE4findIS7_EENS_21__hash_const_iteratorIPNS_11__hash_nodeIS8_PvEEEERKT_, symObjAddr: 0x557C, symBinAddr: 0x957C, symSize: 0x1BC }
  - { offset: 0x41BF5, size: 0x8, addend: 0x0, symName: _llama_adapter_meta_count, symObjAddr: 0x2F74, symBinAddr: 0x6F74, symSize: 0x8 }
  - { offset: 0x41C23, size: 0x8, addend: 0x0, symName: _llama_adapter_meta_count, symObjAddr: 0x2F74, symBinAddr: 0x6F74, symSize: 0x8 }
  - { offset: 0x41C42, size: 0x8, addend: 0x0, symName: _llama_adapter_meta_count, symObjAddr: 0x2F74, symBinAddr: 0x6F74, symSize: 0x8 }
  - { offset: 0x41D15, size: 0x8, addend: 0x0, symName: _llama_adapter_meta_key_by_index, symObjAddr: 0x2F7C, symBinAddr: 0x6F7C, symSize: 0x84 }
  - { offset: 0x41F50, size: 0x8, addend: 0x0, symName: _llama_adapter_meta_val_str_by_index, symObjAddr: 0x3000, symBinAddr: 0x7000, symSize: 0x84 }
  - { offset: 0x422D3, size: 0x8, addend: 0x0, symName: _llama_adapter_lora_free, symObjAddr: 0x3084, symBinAddr: 0x7084, symSize: 0x74 }
  - { offset: 0x424B3, size: 0x8, addend: 0x0, symName: __ZNSt3__112__hash_tableIP18llama_adapter_loraNS_4hashIS2_EENS_8equal_toIS2_EENS_9allocatorIS2_EEE4findIS2_EENS_15__hash_iteratorIPNS_11__hash_nodeIS2_PvEEEERKT_, symObjAddr: 0x5738, symBinAddr: 0x9738, symSize: 0x120 }
  - { offset: 0x424FA, size: 0x8, addend: 0x0, symName: __ZNSt3__112__hash_tableIP18llama_adapter_loraNS_4hashIS2_EENS_8equal_toIS2_EENS_9allocatorIS2_EEE4findIS2_EENS_15__hash_iteratorIPNS_11__hash_nodeIS2_PvEEEERKT_, symObjAddr: 0x5738, symBinAddr: 0x9738, symSize: 0x120 }
  - { offset: 0x42516, size: 0x8, addend: 0x0, symName: __ZNSt3__112__hash_tableIP18llama_adapter_loraNS_4hashIS2_EENS_8equal_toIS2_EENS_9allocatorIS2_EEE4findIS2_EENS_15__hash_iteratorIPNS_11__hash_nodeIS2_PvEEEERKT_, symObjAddr: 0x5738, symBinAddr: 0x9738, symSize: 0x120 }
  - { offset: 0x4270F, size: 0x8, addend: 0x0, symName: __ZNSt3__112__hash_tableIP18llama_adapter_loraNS_4hashIS2_EENS_8equal_toIS2_EENS_9allocatorIS2_EEE6removeENS_21__hash_const_iteratorIPNS_11__hash_nodeIS2_PvEEEE, symObjAddr: 0x5858, symBinAddr: 0x9858, symSize: 0x134 }
  - { offset: 0x42785, size: 0x8, addend: 0x0, symName: __ZNSt3__112__hash_tableIP18llama_adapter_loraNS_4hashIS2_EENS_8equal_toIS2_EENS_9allocatorIS2_EEE6removeENS_21__hash_const_iteratorIPNS_11__hash_nodeIS2_PvEEEE, symObjAddr: 0x5858, symBinAddr: 0x9858, symSize: 0x134 }
  - { offset: 0x427A1, size: 0x8, addend: 0x0, symName: __ZNSt3__112__hash_tableIP18llama_adapter_loraNS_4hashIS2_EENS_8equal_toIS2_EENS_9allocatorIS2_EEE6removeENS_21__hash_const_iteratorIPNS_11__hash_nodeIS2_PvEEEE, symObjAddr: 0x5858, symBinAddr: 0x9858, symSize: 0x134 }
  - { offset: 0x42958, size: 0x8, addend: 0x0, symName: _llama_adapter_get_alora_n_invocation_tokens, symObjAddr: 0x30F8, symBinAddr: 0x70F8, symSize: 0x14 }
  - { offset: 0x429BA, size: 0x8, addend: 0x0, symName: _llama_adapter_get_alora_invocation_tokens, symObjAddr: 0x310C, symBinAddr: 0x710C, symSize: 0x3C }
  - { offset: 0x42A08, size: 0x8, addend: 0x0, symName: __ZSt28__throw_bad_array_new_lengthB9nqe210106v, symObjAddr: 0x3148, symBinAddr: 0x7148, symSize: 0x28 }
  - { offset: 0x42A59, size: 0x8, addend: 0x0, symName: __ZNSt12length_errorC1B9nqe210106EPKc, symObjAddr: 0x33A8, symBinAddr: 0x73A8, symSize: 0x24 }
  - { offset: 0x43009, size: 0x8, addend: 0x0, symName: __ZNSt3__16vectorIhNS_9allocatorIhEEE20__throw_length_errorB9nqe210106Ev, symObjAddr: 0x4CB8, symBinAddr: 0x8CB8, symSize: 0x14 }
  - { offset: 0x43021, size: 0x8, addend: 0x0, symName: __ZNSt3__112__hash_tableIP18llama_adapter_loraNS_4hashIS2_EENS_8equal_toIS2_EENS_9allocatorIS2_EEE25__emplace_unique_key_argsIS2_JS2_EEENS_4pairINS_15__hash_iteratorIPNS_11__hash_nodeIS2_PvEEEEbEERKT_DpOT0_, symObjAddr: 0x4CCC, symBinAddr: 0x8CCC, symSize: 0x344 }
  - { offset: 0x434C2, size: 0x8, addend: 0x0, symName: __ZNSt3__14pairIKNS_12basic_stringIcNS_11char_traitsIcEENS_9allocatorIcEEEES6_EC2B9nqe210106IRPKcRS7_Li0EEEOT_OT0_, symObjAddr: 0x38CC, symBinAddr: 0x78CC, symSize: 0x10C }
  - { offset: 0x4389D, size: 0x8, addend: 0x0, symName: __ZNKSt3__121__murmur2_or_cityhashImLm64EEclB9nqe210106EPKvm, symObjAddr: 0x39D8, symBinAddr: 0x79D8, symSize: 0x44C }
  - { offset: 0x4426A, size: 0x8, addend: 0x0, symName: __ZNSt3__112__hash_tableINS_17__hash_value_typeINS_12basic_stringIcNS_11char_traitsIcEENS_9allocatorIcEEEES7_EENS_22__unordered_map_hasherIS7_NS_4pairIKS7_S7_EENS_4hashIS7_EENS_8equal_toIS7_EELb1EEENS_21__unordered_map_equalIS7_SC_SG_SE_Lb1EEENS5_ISC_EEE20__node_insert_uniqueEPNS_11__hash_nodeIS8_PvEE, symObjAddr: 0x3728, symBinAddr: 0x7728, symSize: 0x138 }
  - { offset: 0x444C3, size: 0x8, addend: 0x0, symName: __ZNSt3__110unique_ptrINS_11__hash_nodeINS_17__hash_value_typeINS_12basic_stringIcNS_11char_traitsIcEENS_9allocatorIcEEEES8_EEPvEENS_22__hash_node_destructorINS6_ISB_EEEEED1B9nqe210106Ev, symObjAddr: 0x3860, symBinAddr: 0x7860, symSize: 0x6C }
  - { offset: 0x44891, size: 0x8, addend: 0x0, symName: __ZNSt3__112__hash_tableINS_17__hash_value_typeINS_12basic_stringIcNS_11char_traitsIcEENS_9allocatorIcEEEES7_EENS_22__unordered_map_hasherIS7_NS_4pairIKS7_S7_EENS_4hashIS7_EENS_8equal_toIS7_EELb1EEENS_21__unordered_map_equalIS7_SC_SG_SE_Lb1EEENS5_ISC_EEE28__node_insert_unique_prepareB9nqe210106EmRSC_, symObjAddr: 0x3E24, symBinAddr: 0x7E24, symSize: 0x284 }
  - { offset: 0x44F18, size: 0x8, addend: 0x0, symName: __ZNSt3__112__hash_tableINS_17__hash_value_typeINS_12basic_stringIcNS_11char_traitsIcEENS_9allocatorIcEEEES7_EENS_22__unordered_map_hasherIS7_NS_4pairIKS7_S7_EENS_4hashIS7_EENS_8equal_toIS7_EELb1EEENS_21__unordered_map_equalIS7_SC_SG_SE_Lb1EEENS5_ISC_EEE11__do_rehashILb1EEEvm, symObjAddr: 0x40A8, symBinAddr: 0x80A8, symSize: 0x18C }
  - { offset: 0x4524F, size: 0x8, addend: 0x0, symName: __ZNSt3__112basic_stringIcNS_11char_traitsIcEENS_9allocatorIcEEE20__throw_out_of_rangeB9nqe210106Ev, symObjAddr: 0x4234, symBinAddr: 0x8234, symSize: 0x14 }
  - { offset: 0x45374, size: 0x8, addend: 0x0, symName: __ZNSt12out_of_rangeC1B9nqe210106EPKc, symObjAddr: 0x4298, symBinAddr: 0x8298, symSize: 0x24 }
  - { offset: 0x457EB, size: 0x8, addend: 0x0, symName: __ZNSt3__16vectorIiNS_9allocatorIiEEE20__throw_length_errorB9nqe210106Ev, symObjAddr: 0x4474, symBinAddr: 0x8474, symSize: 0x14 }
  - { offset: 0x45803, size: 0x8, addend: 0x0, symName: __ZNSt3__16__treeINS_12__value_typeINS_12basic_stringIcNS_11char_traitsIcEENS_9allocatorIcEEEE25llama_adapter_lora_weightEENS_19__map_value_compareIS7_NS_4pairIKS7_S8_EENS_4lessIS7_EELb1EEENS5_ISD_EEE25__emplace_unique_key_argsIS7_JRKNS_21piecewise_construct_tENS_5tupleIJRSC_EEENSN_IJEEEEEENSB_INS_15__tree_iteratorIS9_PNS_11__tree_nodeIS9_PvEElEEbEERKT_DpOT0_, symObjAddr: 0x4488, symBinAddr: 0x8488, symSize: 0x1B0 }
  - { offset: 0x45C2E, size: 0x8, addend: 0x0, symName: __ZNSt3__110unique_ptrINS_11__tree_nodeINS_12__value_typeINS_12basic_stringIcNS_11char_traitsIcEENS_9allocatorIcEEEE25llama_adapter_lora_weightEEPvEENS_22__tree_node_destructorINS6_ISC_EEEEED1B9nqe210106Ev, symObjAddr: 0x4638, symBinAddr: 0x8638, symSize: 0x60 }
  - { offset: 0x4642E, size: 0x8, addend: 0x0, symName: __ZNSt3__112__hash_tableINS_17__hash_value_typeINS_12basic_stringIcNS_11char_traitsIcEENS_9allocatorIcEEEE25llama_adapter_lora_weightEENS_22__unordered_map_hasherIS7_NS_4pairIKS7_S8_EENS_4hashIS7_EENS_8equal_toIS7_EELb1EEENS_21__unordered_map_equalIS7_SD_SH_SF_Lb1EEENS5_ISD_EEE11__do_rehashILb1EEEvm, symObjAddr: 0x4B18, symBinAddr: 0x8B18, symSize: 0x18C }
  - { offset: 0x46765, size: 0x8, addend: 0x0, symName: __ZNSt3__16vectorINS_10unique_ptrI19ggml_backend_buffer27ggml_backend_buffer_deleterEENS_9allocatorIS4_EEE20__throw_length_errorB9nqe210106Ev, symObjAddr: 0x4CA4, symBinAddr: 0x8CA4, symSize: 0x14 }
  - { offset: 0x4677A, size: 0x8, addend: 0x0, symName: __ZNSt3__110unique_ptrINS_11__hash_nodeINS_17__hash_value_typeINS_12basic_stringIcNS_11char_traitsIcEENS_9allocatorIcEEEE25llama_adapter_lora_weightEEPvEENS_22__hash_node_destructorINS6_ISC_EEEEED1B9nqe210106Ev, symObjAddr: 0x4AB8, symBinAddr: 0x8AB8, symSize: 0x60 }
  - { offset: 0x46F8F, size: 0x8, addend: 0x0, symName: __ZNSt3__112__hash_tableIP18llama_adapter_loraNS_4hashIS2_EENS_8equal_toIS2_EENS_9allocatorIS2_EEE11__do_rehashILb1EEEvm, symObjAddr: 0x5010, symBinAddr: 0x9010, symSize: 0x18C }
  - { offset: 0x472C6, size: 0x8, addend: 0x0, symName: __ZNSt3__16__treeINS_12__value_typeINS_12basic_stringIcNS_11char_traitsIcEENS_9allocatorIcEEEE25llama_adapter_lora_weightEENS_19__map_value_compareIS7_NS_4pairIKS7_S8_EENS_4lessIS7_EELb1EEENS5_ISD_EEE7destroyEPNS_11__tree_nodeIS9_PvEE, symObjAddr: 0x519C, symBinAddr: 0x919C, symSize: 0x60 }
  - { offset: 0x49C0F, size: 0x8, addend: 0x0, symName: __MergedGlobals, symObjAddr: 0x6B1E8, symBinAddr: 0x3AFDE8, symSize: 0x0 }
  - { offset: 0x57783, size: 0x8, addend: 0x0, symName: __MergedGlobals, symObjAddr: 0x6B1E8, symBinAddr: 0x3AFDE8, symSize: 0x0 }
  - { offset: 0x57AF9, size: 0x8, addend: 0x0, symName: __MergedGlobals, symObjAddr: 0x6B1E8, symBinAddr: 0x3AFDE8, symSize: 0x0 }
  - { offset: 0x583A7, size: 0x8, addend: 0x0, symName: __MergedGlobals, symObjAddr: 0x6B1E8, symBinAddr: 0x3AFDE8, symSize: 0x0 }
  - { offset: 0x5897E, size: 0x8, addend: 0x0, symName: __ZNSt3__13mapI8llm_archPKcNS_4lessIS1_EENS_9allocatorINS_4pairIKS1_S3_EEEEED1B9nqe210106Ev, symObjAddr: 0x0, symBinAddr: 0x998C, symSize: 0x28 }
  - { offset: 0x58A36, size: 0x8, addend: 0x0, symName: __ZNSt3__16__treeINS_12__value_typeI8llm_archPKcEENS_19__map_value_compareIS2_NS_4pairIKS2_S4_EENS_4lessIS2_EELb1EEENS_9allocatorIS9_EEE7destroyEPNS_11__tree_nodeIS5_PvEE, symObjAddr: 0xAC4, symBinAddr: 0xA244, symSize: 0x44 }
  - { offset: 0x58BB0, size: 0x8, addend: 0x0, symName: __ZNSt3__13mapI6llm_kvPKcNS_4lessIS1_EENS_9allocatorINS_4pairIKS1_S3_EEEEED1B9nqe210106Ev, symObjAddr: 0x28, symBinAddr: 0x99B4, symSize: 0x28 }
  - { offset: 0x58C68, size: 0x8, addend: 0x0, symName: __ZNSt3__16__treeINS_12__value_typeI6llm_kvPKcEENS_19__map_value_compareIS2_NS_4pairIKS2_S4_EENS_4lessIS2_EELb1EEENS_9allocatorIS9_EEE7destroyEPNS_11__tree_nodeIS5_PvEE, symObjAddr: 0xC80, symBinAddr: 0xA400, symSize: 0x44 }
  - { offset: 0x58DE2, size: 0x8, addend: 0x0, symName: __ZNSt3__13mapI10llm_tensorPKcNS_4lessIS1_EENS_9allocatorINS_4pairIKS1_S3_EEEEED1B9nqe210106Ev, symObjAddr: 0x50, symBinAddr: 0x99DC, symSize: 0x28 }
  - { offset: 0x58E9A, size: 0x8, addend: 0x0, symName: __ZNSt3__16__treeINS_12__value_typeI10llm_tensorPKcEENS_19__map_value_compareIS2_NS_4pairIKS2_S4_EENS_4lessIS2_EELb1EEENS_9allocatorIS9_EEE7destroyEPNS_11__tree_nodeIS5_PvEE, symObjAddr: 0xE3C, symBinAddr: 0xA5BC, symSize: 0x44 }
  - { offset: 0x59014, size: 0x8, addend: 0x0, symName: __ZNSt3__13mapI10llm_tensor15llm_tensor_infoNS_4lessIS1_EENS_9allocatorINS_4pairIKS1_S2_EEEEED1B9nqe210106Ev, symObjAddr: 0x78, symBinAddr: 0x9A04, symSize: 0x28 }
  - { offset: 0x590CC, size: 0x8, addend: 0x0, symName: __ZNSt3__16__treeINS_12__value_typeI10llm_tensor15llm_tensor_infoEENS_19__map_value_compareIS2_NS_4pairIKS2_S3_EENS_4lessIS2_EELb1EEENS_9allocatorIS8_EEE7destroyEPNS_11__tree_nodeIS4_PvEE, symObjAddr: 0x1004, symBinAddr: 0xA784, symSize: 0x44 }
  - { offset: 0x591CB, size: 0x8, addend: 0x0, symName: __ZN6LLM_KVC2E8llm_archPKc, symObjAddr: 0xA0, symBinAddr: 0x9A2C, symSize: 0xC }
  - { offset: 0x59234, size: 0x8, addend: 0x0, symName: __ZN6LLM_KVC1E8llm_archPKc, symObjAddr: 0xAC, symBinAddr: 0x9A38, symSize: 0xC }
  - { offset: 0x5927E, size: 0x8, addend: 0x0, symName: __ZN6LLM_KVC1E8llm_archPKc, symObjAddr: 0xAC, symBinAddr: 0x9A38, symSize: 0xC }
  - { offset: 0x59601, size: 0x8, addend: 0x0, symName: __ZNK6LLM_KVclE6llm_kv, symObjAddr: 0xB8, symBinAddr: 0x9A44, symSize: 0xF8 }
  - { offset: 0x599B6, size: 0x8, addend: 0x0, symName: __ZN11LLM_TN_IMPLC2E8llm_arch10llm_tensorPKcii, symObjAddr: 0x1B0, symBinAddr: 0x9B3C, symSize: 0x10 }
  - { offset: 0x59A58, size: 0x8, addend: 0x0, symName: __ZN11LLM_TN_IMPLC1E8llm_arch10llm_tensorPKcii, symObjAddr: 0x1C0, symBinAddr: 0x9B4C, symSize: 0x10 }
  - { offset: 0x59ACC, size: 0x8, addend: 0x0, symName: __ZN11LLM_TN_IMPLC1E8llm_arch10llm_tensorPKcii, symObjAddr: 0x1C0, symBinAddr: 0x9B4C, symSize: 0x10 }
  - { offset: 0x59D04, size: 0x8, addend: 0x0, symName: __ZNK11LLM_TN_IMPL3strEv, symObjAddr: 0x1D0, symBinAddr: 0x9B5C, symSize: 0x118 }
  - { offset: 0x5A55D, size: 0x8, addend: 0x0, symName: __Z12llm_arch_allv, symObjAddr: 0x2E8, symBinAddr: 0x9C74, symSize: 0x1D0 }
  - { offset: 0x5ACD7, size: 0x8, addend: 0x0, symName: __ZNSt3__16vectorI8llm_archNS_9allocatorIS1_EEE20__throw_length_errorB9nqe210106Ev, symObjAddr: 0x10BC, symBinAddr: 0xA7C8, symSize: 0x14 }
  - { offset: 0x5ADC4, size: 0x8, addend: 0x0, symName: __Z13llm_arch_name8llm_arch, symObjAddr: 0x4B8, symBinAddr: 0x9E44, symSize: 0x5C }
  - { offset: 0x5AE06, size: 0x8, addend: 0x0, symName: __Z13llm_arch_name8llm_arch, symObjAddr: 0x4B8, symBinAddr: 0x9E44, symSize: 0x5C }
  - { offset: 0x5AE1B, size: 0x8, addend: 0x0, symName: __Z13llm_arch_name8llm_arch, symObjAddr: 0x4B8, symBinAddr: 0x9E44, symSize: 0x5C }
  - { offset: 0x5AE39, size: 0x8, addend: 0x0, symName: __Z13llm_arch_name8llm_arch, symObjAddr: 0x4B8, symBinAddr: 0x9E44, symSize: 0x5C }
  - { offset: 0x5AFAE, size: 0x8, addend: 0x0, symName: __Z20llm_arch_from_stringRKNSt3__112basic_stringIcNS_11char_traitsIcEENS_9allocatorIcEEEE, symObjAddr: 0x514, symBinAddr: 0x9EA0, symSize: 0x108 }
  - { offset: 0x5B35F, size: 0x8, addend: 0x0, symName: __Z19llm_tensor_info_for10llm_tensor, symObjAddr: 0x61C, symBinAddr: 0x9FA8, symSize: 0x54 }
  - { offset: 0x5B444, size: 0x8, addend: 0x0, symName: __Z21llm_arch_is_recurrentRK8llm_arch, symObjAddr: 0x670, symBinAddr: 0x9FFC, symSize: 0x24 }
  - { offset: 0x5B474, size: 0x8, addend: 0x0, symName: __Z18llm_arch_is_hybridRK8llm_arch, symObjAddr: 0x694, symBinAddr: 0xA020, symSize: 0x54 }
  - { offset: 0x5B4A4, size: 0x8, addend: 0x0, symName: __Z21llm_arch_is_diffusionRK8llm_arch, symObjAddr: 0x6E8, symBinAddr: 0xA074, symSize: 0x20 }
  - { offset: 0x5B4D4, size: 0x8, addend: 0x0, symName: __Z27llm_arch_supports_sm_tensorRK8llm_arch, symObjAddr: 0x708, symBinAddr: 0xA094, symSize: 0x38 }
  - { offset: 0x5B8BF, size: 0x8, addend: 0x0, symName: __ZNSt3__13mapI8llm_archPKcNS_4lessIS1_EENS_9allocatorINS_4pairIKS1_S3_EEEEEC2B9nqe210106ESt16initializer_listIS9_ERKS5_, symObjAddr: 0x750, symBinAddr: 0xA0CC, symSize: 0x178 }
  - { offset: 0x5C227, size: 0x8, addend: 0x0, symName: __ZNSt3__13mapI6llm_kvPKcNS_4lessIS1_EENS_9allocatorINS_4pairIKS1_S3_EEEEEC2B9nqe210106ESt16initializer_listIS9_ERKS5_, symObjAddr: 0xB08, symBinAddr: 0xA288, symSize: 0x178 }
  - { offset: 0x5CB23, size: 0x8, addend: 0x0, symName: __ZNSt3__13mapI10llm_tensorPKcNS_4lessIS1_EENS_9allocatorINS_4pairIKS1_S3_EEEEEC2B9nqe210106ESt16initializer_listIS9_ERKS5_, symObjAddr: 0xCC4, symBinAddr: 0xA444, symSize: 0x178 }
  - { offset: 0x5D44D, size: 0x8, addend: 0x0, symName: __ZNSt3__13mapI10llm_tensor15llm_tensor_infoNS_4lessIS1_EENS_9allocatorINS_4pairIKS1_S2_EEEEEC2B9nqe210106ESt16initializer_listIS8_ERKS4_, symObjAddr: 0xE80, symBinAddr: 0xA600, symSize: 0x184 }
  - { offset: 0x5DB36, size: 0x8, addend: 0x0, symName: __GLOBAL__sub_I_llama_arch.cpp, symObjAddr: 0x1C00, symBinAddr: 0xA7DC, symSize: 0x154 }
  - { offset: 0x71774, size: 0x8, addend: 0x0, symName: __ZNSt3__124__put_character_sequenceB9nqe210106IcNS_11char_traitsIcEEEERNS_13basic_ostreamIT_T0_EES7_PKS4_m, symObjAddr: 0x6174, symBinAddr: 0x10858, symSize: 0x16C }
  - { offset: 0x76635, size: 0x8, addend: 0x0, symName: __ZNSt3__116__copy_unalignedB9nqe210106INS_6vectorIbNS_9allocatorIbEEEELb0EEENS_14__bit_iteratorIT_Lb0EXLi0EEEENS5_IS6_XT0_EXLi0EEEES8_S7_, symObjAddr: 0x517C, symBinAddr: 0xFA00, symSize: 0x248 }
  - { offset: 0x766A1, size: 0x8, addend: 0x0, symName: __ZNSt3__116__copy_unalignedB9nqe210106INS_6vectorIbNS_9allocatorIbEEEELb0EEENS_14__bit_iteratorIT_Lb0EXLi0EEEENS5_IS6_XT0_EXLi0EEEES8_S7_, symObjAddr: 0x517C, symBinAddr: 0xFA00, symSize: 0x248 }
  - { offset: 0x76D5D, size: 0x8, addend: 0x0, symName: __ZNSt3__116__copy_unalignedB9nqe210106INS_6vectorIbNS_9allocatorIbEEEELb1EEENS_14__bit_iteratorIT_Lb0EXLi0EEEENS5_IS6_XT0_EXLi0EEEES8_S7_, symObjAddr: 0x5550, symBinAddr: 0xFDD4, symSize: 0x20C }
  - { offset: 0x76DC9, size: 0x8, addend: 0x0, symName: __ZNSt3__116__copy_unalignedB9nqe210106INS_6vectorIbNS_9allocatorIbEEEELb1EEENS_14__bit_iteratorIT_Lb0EXLi0EEEENS5_IS6_XT0_EXLi0EEEES8_S7_, symObjAddr: 0x5550, symBinAddr: 0xFDD4, symSize: 0x20C }
  - { offset: 0x777A3, size: 0x8, addend: 0x0, symName: __ZNSt3__116__pad_and_outputB9nqe210106IcNS_11char_traitsIcEEEENS_19ostreambuf_iteratorIT_T0_EES6_PKS4_S8_S8_RNS_8ios_baseES4_, symObjAddr: 0x62E0, symBinAddr: 0x109C4, symSize: 0x1A4 }
  - { offset: 0x79744, size: 0x8, addend: 0x0, symName: __ZTVNSt3__120__shared_ptr_emplaceIN12llama_ubatch6data_tENS_9allocatorIS2_EEEE, symObjAddr: 0x7900, symBinAddr: 0x312C30, symSize: 0x0 }
  - { offset: 0x7BB9D, size: 0x8, addend: 0x0, symName: __ZN18llama_batch_allocrC2Ej, symObjAddr: 0x0, symBinAddr: 0xA930, symSize: 0x2D8 }
  - { offset: 0x7C860, size: 0x8, addend: 0x0, symName: __ZNSt3__16vectorINS_3setIiNS_4lessIiEENS_9allocatorIiEEEENS4_IS6_EEE8__appendEm, symObjAddr: 0x4A40, symBinAddr: 0xF360, symSize: 0x1F4 }
  - { offset: 0x7CED9, size: 0x8, addend: 0x0, symName: __ZNSt3__16vectorINS_3setIiNS_4lessIiEENS_9allocatorIiEEEENS4_IS6_EEE20__throw_length_errorB9nqe210106Ev, symObjAddr: 0x4C34, symBinAddr: 0xF554, symSize: 0x14 }
  - { offset: 0x7CEE4, size: 0x8, addend: 0x0, symName: __ZNSt3__16vectorINS0_IbNS_9allocatorIbEEEENS1_IS3_EEE8__appendEm, symObjAddr: 0x4CE4, symBinAddr: 0xF568, symSize: 0x1C8 }
  - { offset: 0x7D4FB, size: 0x8, addend: 0x0, symName: __ZNSt3__16vectorINS0_IbNS_9allocatorIbEEEENS1_IS3_EEE20__throw_length_errorB9nqe210106Ev, symObjAddr: 0x4EAC, symBinAddr: 0xF730, symSize: 0x14 }
  - { offset: 0x7D506, size: 0x8, addend: 0x0, symName: __ZNSt3__16vectorIbNS_9allocatorIbEEE6resizeEmb, symObjAddr: 0x2D8, symBinAddr: 0xAC08, symSize: 0x254 }
  - { offset: 0x7DD96, size: 0x8, addend: 0x0, symName: __ZNSt3__16vectorIiNS_9allocatorIiEEE8__appendEmRKi, symObjAddr: 0x575C, symBinAddr: 0xFFE0, symSize: 0x1C0 }
  - { offset: 0x7E1C5, size: 0x8, addend: 0x0, symName: __ZNSt3__113unordered_mapINS_6bitsetILm256EEENS_6vectorIiNS_9allocatorIiEEEENS_4hashIS2_EENS_8equal_toIS2_EENS4_INS_4pairIKS2_S6_EEEEED1B9nqe210106Ev, symObjAddr: 0x52C, symBinAddr: 0xAE5C, symSize: 0x68 }
  - { offset: 0x7E59D, size: 0x8, addend: 0x0, symName: __ZNSt3__16vectorINS0_IbNS_9allocatorIbEEEENS1_IS3_EEED1B9nqe210106Ev, symObjAddr: 0x594, symBinAddr: 0xAEC4, symSize: 0x68 }
  - { offset: 0x7E7D6, size: 0x8, addend: 0x0, symName: __ZNSt3__16vectorINS_3setIiNS_4lessIiEENS_9allocatorIiEEEENS4_IS6_EEED1B9nqe210106Ev, symObjAddr: 0x5FC, symBinAddr: 0xAF2C, symSize: 0x68 }
  - { offset: 0x7EC29, size: 0x8, addend: 0x0, symName: __ZNSt3__16vectorIbNS_9allocatorIbEEE7reserveEm, symObjAddr: 0x4EC0, symBinAddr: 0xF744, symSize: 0x104 }
  - { offset: 0x7F169, size: 0x8, addend: 0x0, symName: __ZNKSt3__111__copy_implclB9nqe210106INS_6vectorIbNS_9allocatorIbEEEELb1EEENS_4pairINS_14__bit_iteratorIT_XT0_EXLi0EEEENS7_IS8_Lb0EXLi0EEEEEES9_S9_SA_, symObjAddr: 0x53C4, symBinAddr: 0xFC48, symSize: 0x18C }
  - { offset: 0x7F61A, size: 0x8, addend: 0x0, symName: __ZNSt3__16vectorIbNS_9allocatorIbEEE20__throw_length_errorB9nqe210106Ev, symObjAddr: 0x4FC4, symBinAddr: 0xF848, symSize: 0x14 }
  - { offset: 0x7F632, size: 0x8, addend: 0x0, symName: __ZNKSt3__111__copy_implclB9nqe210106INS_6vectorIbNS_9allocatorIbEEEELb0EEENS_4pairINS_14__bit_iteratorIT_XT0_EXLi0EEEENS7_IS8_Lb0EXLi0EEEEEES9_S9_SA_, symObjAddr: 0x4FD8, symBinAddr: 0xF85C, symSize: 0x1A4 }
  - { offset: 0x7FB61, size: 0x8, addend: 0x0, symName: __ZNSt3__16__treeIiNS_4lessIiEENS_9allocatorIiEEE7destroyEPNS_11__tree_nodeIiPvEE, symObjAddr: 0x49FC, symBinAddr: 0xF31C, symSize: 0x44 }
  - { offset: 0x7FC5B, size: 0x8, addend: 0x0, symName: __ZN18llama_batch_allocrC1Ej, symObjAddr: 0x664, symBinAddr: 0xAF94, symSize: 0x4 }
  - { offset: 0x7FC97, size: 0x8, addend: 0x0, symName: __ZN18llama_batch_allocrC1Ej, symObjAddr: 0x664, symBinAddr: 0xAF94, symSize: 0x4 }
  - { offset: 0x81495, size: 0x8, addend: 0x0, symName: __ZN18llama_batch_allocr4initERK11llama_batchRK11llama_vocabPK14llama_memory_ijjb, symObjAddr: 0x668, symBinAddr: 0xAF98, symSize: 0x1888 }
  - { offset: 0x84F65, size: 0x8, addend: 0x0, symName: __ZN18llama_batch_allocr5clearEv, symObjAddr: 0x1EF0, symBinAddr: 0xC820, symSize: 0x194 }
  - { offset: 0x85B8B, size: 0x8, addend: 0x0, symName: __ZNSt3__16vectorIPiNS_9allocatorIS1_EEE8__appendEm, symObjAddr: 0x5A48, symBinAddr: 0x101A0, symSize: 0x118 }
  - { offset: 0x85B96, size: 0x8, addend: 0x0, symName: __ZNSt3__16vectorIPiNS_9allocatorIS1_EEE8__appendEm, symObjAddr: 0x5A48, symBinAddr: 0x101A0, symSize: 0x118 }
  - { offset: 0x85FE9, size: 0x8, addend: 0x0, symName: __ZNSt3__16vectorIPiNS_9allocatorIS1_EEE20__throw_length_errorB9nqe210106Ev, symObjAddr: 0x5B60, symBinAddr: 0x102B8, symSize: 0x14 }
  - { offset: 0x86006, size: 0x8, addend: 0x0, symName: __ZNSt3__112__hash_tableINS_17__hash_value_typeINS_6bitsetILm256EEENS_6vectorIiNS_9allocatorIiEEEEEENS_22__unordered_map_hasherIS3_NS_4pairIKS3_S7_EENS_4hashIS3_EENS_8equal_toIS3_EELb1EEENS_21__unordered_map_equalIS3_SC_SG_SE_Lb1EEENS5_ISC_EEE25__emplace_unique_key_argsIS3_JRKNS_21piecewise_construct_tENS_5tupleIJRSB_EEENSQ_IJEEEEEENSA_INS_15__hash_iteratorIPNS_11__hash_nodeIS8_PvEEEEbEERKT_DpOT0_, symObjAddr: 0x5C10, symBinAddr: 0x102F4, symSize: 0x378 }
  - { offset: 0x86800, size: 0x8, addend: 0x0, symName: __ZN18llama_batch_allocr12ubatch_printERK12llama_ubatchi, symObjAddr: 0x2084, symBinAddr: 0xC9B4, symSize: 0xB64 }
  - { offset: 0x87B13, size: 0x8, addend: 0x0, symName: __ZNSt3__118basic_stringstreamIcNS_11char_traitsIcEENS_9allocatorIcEEEC1B9nqe210106Ev, symObjAddr: 0x2BE8, symBinAddr: 0xD518, symSize: 0x194 }
  - { offset: 0x87E63, size: 0x8, addend: 0x0, symName: __ZNSt3__16vectorINS_6bitsetILm256EEENS_9allocatorIS2_EEE20__throw_length_errorB9nqe210106Ev, symObjAddr: 0x5BFC, symBinAddr: 0x102E0, symSize: 0x14 }
  - { offset: 0x87E7B, size: 0x8, addend: 0x0, symName: __ZNSt3__112__hash_tableINS_17__hash_value_typeINS_6bitsetILm256EEENS_6vectorIiNS_9allocatorIiEEEEEENS_22__unordered_map_hasherIS3_NS_4pairIKS3_S7_EENS_4hashIS3_EENS_8equal_toIS3_EELb1EEENS_21__unordered_map_equalIS3_SC_SG_SE_Lb1EEENS5_ISC_EEE25__emplace_unique_key_argsIS3_JRKNS_21piecewise_construct_tENS_5tupleIJRSB_EEENSQ_IJEEEEEENSA_INS_15__hash_iteratorIPNS_11__hash_nodeIS8_PvEEEEbEERKT_DpOT0_, symObjAddr: 0x5C10, symBinAddr: 0x102F4, symSize: 0x378 }
  - { offset: 0x87EA0, size: 0x8, addend: 0x0, symName: __ZNSt3__16vectorIaNS_9allocatorIaEEE20__throw_length_errorB9nqe210106Ev, symObjAddr: 0x5B74, symBinAddr: 0x102CC, symSize: 0x14 }
  - { offset: 0x87EC9, size: 0x8, addend: 0x0, symName: __ZN12llama_ubatchD1Ev, symObjAddr: 0x2E7C, symBinAddr: 0xD7AC, symSize: 0x64 }
  - { offset: 0x87F9C, size: 0x8, addend: 0x0, symName: __ZNSt3__118basic_stringstreamIcNS_11char_traitsIcEENS_9allocatorIcEEED1Ev, symObjAddr: 0x2DF4, symBinAddr: 0xD724, symSize: 0x88 }
  - { offset: 0x8860B, size: 0x8, addend: 0x0, symName: __ZNK18llama_batch_allocr11seq_pos_minEi, symObjAddr: 0x2D7C, symBinAddr: 0xD6AC, symSize: 0x28 }
  - { offset: 0x88636, size: 0x8, addend: 0x0, symName: __ZNK18llama_batch_allocr11seq_pos_minEi, symObjAddr: 0x2D7C, symBinAddr: 0xD6AC, symSize: 0x28 }
  - { offset: 0x886AB, size: 0x8, addend: 0x0, symName: __ZNK18llama_batch_allocr11seq_pos_maxEi, symObjAddr: 0x2DA4, symBinAddr: 0xD6D4, symSize: 0x50 }
  - { offset: 0x886D6, size: 0x8, addend: 0x0, symName: __ZNK18llama_batch_allocr11seq_pos_maxEi, symObjAddr: 0x2DA4, symBinAddr: 0xD6D4, symSize: 0x50 }
  - { offset: 0x88852, size: 0x8, addend: 0x0, symName: __ZN18llama_batch_allocr11split_resetEv, symObjAddr: 0x2EE0, symBinAddr: 0xD810, symSize: 0x20 }
  - { offset: 0x88876, size: 0x8, addend: 0x0, symName: __ZN18llama_batch_allocr11split_resetEv, symObjAddr: 0x2EE0, symBinAddr: 0xD810, symSize: 0x20 }
  - { offset: 0x88895, size: 0x8, addend: 0x0, symName: __ZN18llama_batch_allocr11split_resetEv, symObjAddr: 0x2EE0, symBinAddr: 0xD810, symSize: 0x20 }
  - { offset: 0x88D6A, size: 0x8, addend: 0x0, symName: __ZN18llama_batch_allocr14ubatch_reserveEjj, symObjAddr: 0x2F00, symBinAddr: 0xD830, symSize: 0x454 }
  - { offset: 0x89DFF, size: 0x8, addend: 0x0, symName: __ZNSt3__110shared_ptrIN12llama_ubatch6data_tEED1B9nqe210106Ev, symObjAddr: 0x3354, symBinAddr: 0xDC84, symSize: 0x64 }
  - { offset: 0x89E95, size: 0x8, addend: 0x0, symName: __ZNK18llama_batch_allocr9get_batchEv, symObjAddr: 0x33B8, symBinAddr: 0xDCE8, symSize: 0x4 }
  - { offset: 0x89EBD, size: 0x8, addend: 0x0, symName: __ZNK18llama_batch_allocr12get_n_tokensEv, symObjAddr: 0x33BC, symBinAddr: 0xDCEC, symSize: 0x8 }
  - { offset: 0x89EDF, size: 0x8, addend: 0x0, symName: __ZNK18llama_batch_allocr13get_n_outputsEv, symObjAddr: 0x33C4, symBinAddr: 0xDCF4, symSize: 0x8 }
  - { offset: 0x89F09, size: 0x8, addend: 0x0, symName: __ZNK18llama_batch_allocr10get_n_usedEv, symObjAddr: 0x33CC, symBinAddr: 0xDCFC, symSize: 0x8 }
  - { offset: 0x89F33, size: 0x8, addend: 0x0, symName: __ZN18llama_batch_allocr11get_out_idsEv, symObjAddr: 0x33D4, symBinAddr: 0xDD04, symSize: 0x8 }
  - { offset: 0x89F5D, size: 0x8, addend: 0x0, symName: __ZN18llama_batch_allocr12split_simpleEj, symObjAddr: 0x33DC, symBinAddr: 0xDD0C, symSize: 0x1F0 }
  - { offset: 0x8A63B, size: 0x8, addend: 0x0, symName: __ZN18llama_batch_allocr10ubatch_addERKNSt3__16vectorIiNS0_9allocatorIiEEEEjb, symObjAddr: 0x35CC, symBinAddr: 0xDEFC, symSize: 0x928 }
  - { offset: 0x8C5C7, size: 0x8, addend: 0x0, symName: __ZNSt3__16vectorIfNS_9allocatorIfEEE8__appendEm, symObjAddr: 0x6A30, symBinAddr: 0x11100, symSize: 0x118 }
  - { offset: 0x8CA1A, size: 0x8, addend: 0x0, symName: __ZNSt3__16vectorIfNS_9allocatorIfEEE20__throw_length_errorB9nqe210106Ev, symObjAddr: 0x6B48, symBinAddr: 0x11218, symSize: 0x14 }
  - { offset: 0x8CF42, size: 0x8, addend: 0x0, symName: __ZN18llama_batch_allocr11split_equalEjb, symObjAddr: 0x3EF4, symBinAddr: 0xE824, symSize: 0x67C }
  - { offset: 0x8E74B, size: 0x8, addend: 0x0, symName: __ZNSt3__16vectorIiNS_9allocatorIiEEE18__insert_with_sizeB9nqe210106INS_11__wrap_iterIPiEES7_EES7_NS5_IPKiEET_T0_l, symObjAddr: 0x6610, symBinAddr: 0x10CE0, symSize: 0x420 }
  - { offset: 0x8F28F, size: 0x8, addend: 0x0, symName: __ZNSt3__16vectorIfNS_9allocatorIfEEE8__appendEm, symObjAddr: 0x6A30, symBinAddr: 0x11100, symSize: 0x118 }
  - { offset: 0x8F2AC, size: 0x8, addend: 0x0, symName: __ZNSt3__128__exception_guard_exceptionsINS_6vectorINS1_IiNS_9allocatorIiEEEENS2_IS4_EEE16__destroy_vectorEED1B9nqe210106Ev, symObjAddr: 0x658C, symBinAddr: 0x10C5C, symSize: 0x84 }
  - { offset: 0x8F505, size: 0x8, addend: 0x0, symName: __ZNSt3__16vectorINS0_IiNS_9allocatorIiEEEENS1_IS3_EEED1B9nqe210106Ev, symObjAddr: 0x4570, symBinAddr: 0xEEA0, symSize: 0x74 }
  - { offset: 0x8F794, size: 0x8, addend: 0x0, symName: __ZN18llama_batch_allocr9split_seqEj, symObjAddr: 0x45E4, symBinAddr: 0xEF14, symSize: 0x28C }
  - { offset: 0x90051, size: 0x8, addend: 0x0, symName: _llama_batch_get_one, symObjAddr: 0x4870, symBinAddr: 0xF1A0, symSize: 0x1C }
  - { offset: 0x90089, size: 0x8, addend: 0x0, symName: _llama_batch_init, symObjAddr: 0x488C, symBinAddr: 0xF1BC, symSize: 0xD0 }
  - { offset: 0x90182, size: 0x8, addend: 0x0, symName: _llama_batch_free, symObjAddr: 0x495C, symBinAddr: 0xF28C, symSize: 0x90 }
  - { offset: 0x90764, size: 0x8, addend: 0x0, symName: __ZNSt3__16vectorINS_3setIiNS_4lessIiEENS_9allocatorIiEEEENS4_IS6_EEE20__throw_length_errorB9nqe210106Ev, symObjAddr: 0x4C34, symBinAddr: 0xF554, symSize: 0x14 }
  - { offset: 0x90B81, size: 0x8, addend: 0x0, symName: __ZNSt3__16vectorINS0_IbNS_9allocatorIbEEEENS1_IS3_EEE20__throw_length_errorB9nqe210106Ev, symObjAddr: 0x4EAC, symBinAddr: 0xF730, symSize: 0x14 }
  - { offset: 0x90B99, size: 0x8, addend: 0x0, symName: __ZNSt3__16vectorIbNS_9allocatorIbEEE7reserveEm, symObjAddr: 0x4EC0, symBinAddr: 0xF744, symSize: 0x104 }
  - { offset: 0x90CA7, size: 0x8, addend: 0x0, symName: __ZNKSt3__111__copy_implclB9nqe210106INS_6vectorIbNS_9allocatorIbEEEELb0EEENS_4pairINS_14__bit_iteratorIT_XT0_EXLi0EEEENS7_IS8_Lb0EXLi0EEEEEES9_S9_SA_, symObjAddr: 0x4FD8, symBinAddr: 0xF85C, symSize: 0x1A4 }
  - { offset: 0x91B03, size: 0x8, addend: 0x0, symName: __ZNSt3__16vectorIPiNS_9allocatorIS1_EEE20__throw_length_errorB9nqe210106Ev, symObjAddr: 0x5B60, symBinAddr: 0x102B8, symSize: 0x14 }
  - { offset: 0x91B1B, size: 0x8, addend: 0x0, symName: __ZNSt3__16vectorIaNS_9allocatorIaEEE20__throw_length_errorB9nqe210106Ev, symObjAddr: 0x5B74, symBinAddr: 0x102CC, symSize: 0x14 }
  - { offset: 0x92138, size: 0x8, addend: 0x0, symName: __ZNSt3__112__hash_tableINS_17__hash_value_typeINS_6bitsetILm256EEENS_6vectorIiNS_9allocatorIiEEEEEENS_22__unordered_map_hasherIS3_NS_4pairIKS3_S7_EENS_4hashIS3_EENS_8equal_toIS3_EELb1EEENS_21__unordered_map_equalIS3_SC_SG_SE_Lb1EEENS5_ISC_EEE11__do_rehashILb1EEEvm, symObjAddr: 0x5FE8, symBinAddr: 0x106CC, symSize: 0x18C }
  - { offset: 0x9246F, size: 0x8, addend: 0x0, symName: __ZNSt3__124__put_character_sequenceB9nqe210106IcNS_11char_traitsIcEEEERNS_13basic_ostreamIT_T0_EES7_PKS4_m, symObjAddr: 0x6174, symBinAddr: 0x10858, symSize: 0x16C }
  - { offset: 0x92484, size: 0x8, addend: 0x0, symName: __ZNSt3__110unique_ptrINS_11__hash_nodeINS_17__hash_value_typeINS_6bitsetILm256EEENS_6vectorIiNS_9allocatorIiEEEEEEPvEENS_22__hash_node_destructorINS6_ISB_EEEEED1B9nqe210106Ev, symObjAddr: 0x5F88, symBinAddr: 0x1066C, symSize: 0x60 }
  - { offset: 0x92C83, size: 0x8, addend: 0x0, symName: __ZNSt3__120__shared_ptr_emplaceIN12llama_ubatch6data_tENS_9allocatorIS2_EEED1Ev, symObjAddr: 0x6498, symBinAddr: 0x10B68, symSize: 0x14 }
  - { offset: 0x92CAE, size: 0x8, addend: 0x0, symName: __ZNSt3__120__shared_ptr_emplaceIN12llama_ubatch6data_tENS_9allocatorIS2_EEED1Ev, symObjAddr: 0x6498, symBinAddr: 0x10B68, symSize: 0x14 }
  - { offset: 0x92CD0, size: 0x8, addend: 0x0, symName: __ZNSt3__120__shared_ptr_emplaceIN12llama_ubatch6data_tENS_9allocatorIS2_EEED1Ev, symObjAddr: 0x6498, symBinAddr: 0x10B68, symSize: 0x14 }
  - { offset: 0x92D0A, size: 0x8, addend: 0x0, symName: __ZNSt3__120__shared_ptr_emplaceIN12llama_ubatch6data_tENS_9allocatorIS2_EEED0Ev, symObjAddr: 0x64AC, symBinAddr: 0x10B7C, symSize: 0x24 }
  - { offset: 0x92E2E, size: 0x8, addend: 0x0, symName: __ZNSt3__120__shared_ptr_emplaceIN12llama_ubatch6data_tENS_9allocatorIS2_EEE16__on_zero_sharedEv, symObjAddr: 0x64D0, symBinAddr: 0x10BA0, symSize: 0x8 }
  - { offset: 0x92E57, size: 0x8, addend: 0x0, symName: __ZNSt3__120__shared_ptr_emplaceIN12llama_ubatch6data_tENS_9allocatorIS2_EEE16__on_zero_sharedEv, symObjAddr: 0x64D0, symBinAddr: 0x10BA0, symSize: 0x8 }
  - { offset: 0x92E74, size: 0x8, addend: 0x0, symName: __ZNSt3__120__shared_ptr_emplaceIN12llama_ubatch6data_tENS_9allocatorIS2_EEE16__on_zero_sharedEv, symObjAddr: 0x64D0, symBinAddr: 0x10BA0, symSize: 0x8 }
  - { offset: 0x92EDC, size: 0x8, addend: 0x0, symName: __ZN12llama_ubatch6data_tD2Ev, symObjAddr: 0x64DC, symBinAddr: 0x10BAC, symSize: 0xB0 }
  - { offset: 0x938D4, size: 0x8, addend: 0x0, symName: __ZNSt3__120__shared_ptr_emplaceIN12llama_ubatch6data_tENS_9allocatorIS2_EEE21__on_zero_shared_weakEv, symObjAddr: 0x64D8, symBinAddr: 0x10BA8, symSize: 0x4 }
  - { offset: 0x93906, size: 0x8, addend: 0x0, symName: __ZNSt3__120__shared_ptr_emplaceIN12llama_ubatch6data_tENS_9allocatorIS2_EEE21__on_zero_shared_weakEv, symObjAddr: 0x64D8, symBinAddr: 0x10BA8, symSize: 0x4 }
  - { offset: 0x93928, size: 0x8, addend: 0x0, symName: __ZNSt3__120__shared_ptr_emplaceIN12llama_ubatch6data_tENS_9allocatorIS2_EEE21__on_zero_shared_weakEv, symObjAddr: 0x64D8, symBinAddr: 0x10BA8, symSize: 0x4 }
  - { offset: 0x9394B, size: 0x8, addend: 0x0, symName: __ZNSt3__120__shared_ptr_emplaceIN12llama_ubatch6data_tENS_9allocatorIS2_EEE21__on_zero_shared_weakEv, symObjAddr: 0x64D8, symBinAddr: 0x10BA8, symSize: 0x4 }
  - { offset: 0x941B9, size: 0x8, addend: 0x0, symName: __ZNSt3__16vectorIfNS_9allocatorIfEEE20__throw_length_errorB9nqe210106Ev, symObjAddr: 0x6B48, symBinAddr: 0x11218, symSize: 0x14 }
  - { offset: 0x960B2, size: 0x8, addend: 0x0, symName: __ZL18LLM_CHAT_TEMPLATES, symObjAddr: 0x89FD0, symBinAddr: 0x3AFE48, symSize: 0x0 }
  - { offset: 0x9DBDC, size: 0x8, addend: 0x0, symName: __ZNSt3__1eqB9nqe210106IcNS_11char_traitsIcEENS_9allocatorIcEEEEbRKNS_12basic_stringIT_T0_T1_EEPKS6_, symObjAddr: 0x6224, symBinAddr: 0x17214, symSize: 0x88 }
  - { offset: 0x9DD7C, size: 0x8, addend: 0x0, symName: __ZNSt3__1neB9nqe210106IcNS_11char_traitsIcEENS_9allocatorIcEEEEbRKNS_12basic_stringIT_T0_T1_EEPKS6_, symObjAddr: 0x645C, symBinAddr: 0x1744C, symSize: 0x88 }
  - { offset: 0x9FEC5, size: 0x8, addend: 0x0, symName: __ZNSt3__13mapINS_12basic_stringIcNS_11char_traitsIcEENS_9allocatorIcEEEE17llm_chat_templateNS_4lessIS6_EENS4_INS_4pairIKS6_S7_EEEEED1B9nqe210106Ev, symObjAddr: 0x0, symBinAddr: 0x1122C, symSize: 0x28 }
  - { offset: 0x9FF7D, size: 0x8, addend: 0x0, symName: __ZNSt3__16__treeINS_12__value_typeINS_12basic_stringIcNS_11char_traitsIcEENS_9allocatorIcEEEE17llm_chat_templateEENS_19__map_value_compareIS7_NS_4pairIKS7_S8_EENS_4lessIS7_EELb1EEENS5_ISD_EEE7destroyEPNS_11__tree_nodeIS9_PvEE, symObjAddr: 0x6E40, symBinAddr: 0x17AB4, symSize: 0x60 }
  - { offset: 0xA03FB, size: 0x8, addend: 0x0, symName: __Z26llm_chat_template_from_strRKNSt3__112basic_stringIcNS_11char_traitsIcEENS_9allocatorIcEEEE, symObjAddr: 0x28, symBinAddr: 0x11254, symSize: 0xF0 }
  - { offset: 0xA071C, size: 0x8, addend: 0x0, symName: __Z24llm_chat_detect_templateRKNSt3__112basic_stringIcNS_11char_traitsIcEENS_9allocatorIcEEEE, symObjAddr: 0x118, symBinAddr: 0x11344, symSize: 0x980 }
  - { offset: 0xA0E00, size: 0x8, addend: 0x0, symName: '__ZZ24llm_chat_detect_templateRKNSt3__112basic_stringIcNS_11char_traitsIcEENS_9allocatorIcEEEEENK3$_0clEPKc', symObjAddr: 0xA98, symBinAddr: 0x11CC4, symSize: 0xD0 }
  - { offset: 0xA1055, size: 0x8, addend: 0x0, symName: __ZNKSt3__112basic_stringIcNS_11char_traitsIcEENS_9allocatorIcEEE4findB9nqe210106EPKcm, symObjAddr: 0xB68, symBinAddr: 0x11D94, symSize: 0xE4 }
  - { offset: 0xA1A3D, size: 0x8, addend: 0x0, symName: __Z23llm_chat_apply_template17llm_chat_templateRKNSt3__16vectorIPK18llama_chat_messageNS0_9allocatorIS4_EEEERNS0_12basic_stringIcNS0_11char_traitsIcEENS5_IcEEEEb, symObjAddr: 0xC4C, symBinAddr: 0x11E78, symSize: 0x539C }
  - { offset: 0xB2DDE, size: 0x8, addend: 0x0, symName: __ZL4trimRKNSt3__112basic_stringIcNS_11char_traitsIcEENS_9allocatorIcEEEE, symObjAddr: 0x62AC, symBinAddr: 0x1729C, symSize: 0x1B0 }
  - { offset: 0xB3200, size: 0x8, addend: 0x0, symName: __ZNSt3__1neB9nqe210106IcNS_11char_traitsIcEENS_9allocatorIcEEEEbRKNS_12basic_stringIT_T0_T1_EEPKS6_, symObjAddr: 0x645C, symBinAddr: 0x1744C, symSize: 0x88 }
  - { offset: 0xB34A4, size: 0x8, addend: 0x0, symName: __ZNSt3__1eqB9nqe210106IcNS_11char_traitsIcEENS_9allocatorIcEEEEbRKNS_12basic_stringIT_T0_T1_EEPKS6_, symObjAddr: 0x6224, symBinAddr: 0x17214, symSize: 0x88 }
  - { offset: 0xB3A26, size: 0x8, addend: 0x0, symName: _llama_chat_builtin_templates, symObjAddr: 0x656C, symBinAddr: 0x174D4, symSize: 0x90 }
  - { offset: 0xB3F33, size: 0x8, addend: 0x0, symName: __ZNSt3__16__treeINS_12__value_typeINS_12basic_stringIcNS_11char_traitsIcEENS_9allocatorIcEEEE17llm_chat_templateEENS_19__map_value_compareIS7_NS_4pairIKS7_S8_EENS_4lessIS7_EELb1EEENS5_ISD_EEE30__emplace_hint_unique_key_argsIS7_JRKSD_EEENSB_INS_15__tree_iteratorIS9_PNS_11__tree_nodeIS9_PvEElEEbEENS_21__tree_const_iteratorIS9_SQ_lEERKT_DpOT0_, symObjAddr: 0x671C, symBinAddr: 0x17564, symSize: 0xF8 }
  - { offset: 0xB42A7, size: 0x8, addend: 0x0, symName: __ZNSt3__16__treeINS_12__value_typeINS_12basic_stringIcNS_11char_traitsIcEENS_9allocatorIcEEEE17llm_chat_templateEENS_19__map_value_compareIS7_NS_4pairIKS7_S8_EENS_4lessIS7_EELb1EEENS5_ISD_EEE12__find_equalIS7_EERPNS_16__tree_node_baseIPvEENS_21__tree_const_iteratorIS9_PNS_11__tree_nodeIS9_SL_EElEERPNS_15__tree_end_nodeISN_EESO_RKT_, symObjAddr: 0x6814, symBinAddr: 0x1765C, symSize: 0x3F8 }
  - { offset: 0xB4F2A, size: 0x8, addend: 0x0, symName: __ZNSt3__110unique_ptrINS_11__tree_nodeINS_12__value_typeINS_12basic_stringIcNS_11char_traitsIcEENS_9allocatorIcEEEE17llm_chat_templateEEPvEENS_22__tree_node_destructorINS6_ISC_EEEEED1B9nqe210106Ev, symObjAddr: 0x6C0C, symBinAddr: 0x17A54, symSize: 0x60 }
  - { offset: 0xB60F4, size: 0x8, addend: 0x0, symName: __GLOBAL__sub_I_llama_chat.cpp, symObjAddr: 0x7A9C, symBinAddr: 0x17B14, symSize: 0x928 }
  - { offset: 0xEEAE0, size: 0x8, addend: 0x0, symName: __ZNSt3__113__tree_removeB9nqe210106IPNS_16__tree_node_baseIPvEEEEvT_S5_, symObjAddr: 0xEA9C, symBinAddr: 0x26A14, symSize: 0x420 }
  - { offset: 0xF91D3, size: 0x8, addend: 0x0, symName: __ZN13llama_contextC2ERK11llama_model20llama_context_params, symObjAddr: 0x0, symBinAddr: 0x1843C, symSize: 0x16E4 }
  - { offset: 0xFCCD8, size: 0x8, addend: 0x0, symName: __ZTV20llama_io_write_dummy, symObjAddr: 0x138A8, symBinAddr: 0x312C80, symSize: 0x0 }
  - { offset: 0xFCDBA, size: 0x8, addend: 0x0, symName: __ZTV21llama_io_write_buffer, symObjAddr: 0x13908, symBinAddr: 0x312CE0, symSize: 0x0 }
  - { offset: 0xFCEC0, size: 0x8, addend: 0x0, symName: __ZTV20llama_io_read_buffer, symObjAddr: 0x13958, symBinAddr: 0x312D30, symSize: 0x0 }
  - { offset: 0xFCFC1, size: 0x8, addend: 0x0, symName: __ZTV18llama_io_read_file, symObjAddr: 0x139B8, symBinAddr: 0x312D90, symSize: 0x0 }
  - { offset: 0xFD436, size: 0x8, addend: 0x0, symName: __ZTV19llama_io_write_file, symObjAddr: 0x13A08, symBinAddr: 0x312DE0, symSize: 0x0 }
  - { offset: 0xFD537, size: 0x8, addend: 0x0, symName: __ZTVNSt3__120__shared_ptr_pointerIP18llama_adapter_cvecNS_14default_deleteIS1_EENS_9allocatorIS1_EEEE, symObjAddr: 0x13A58, symBinAddr: 0x312E30, symSize: 0x0 }
  - { offset: 0xFD59C, size: 0x8, addend: 0x0, symName: '__ZTVNSt3__110__function6__funcIZNK13llama_context12graph_get_cbEvE3$_0FvRK12llama_ubatchP11ggml_tensorPKciEEE', symObjAddr: 0x13AA8, symBinAddr: 0x312E80, symSize: 0x0 }
  - { offset: 0xFD5AA, size: 0x8, addend: 0x0, symName: __ZNK13llama_context12graph_get_cbEv, symObjAddr: 0x829C, symBinAddr: 0x20630, symSize: 0x14 }
  - { offset: 0xFD605, size: 0x8, addend: 0x0, symName: __ZNK13llama_context12graph_get_cbEv, symObjAddr: 0x829C, symBinAddr: 0x20630, symSize: 0x14 }
  - { offset: 0xFD628, size: 0x8, addend: 0x0, symName: __ZNK13llama_context12graph_get_cbEv, symObjAddr: 0x829C, symBinAddr: 0x20630, symSize: 0x14 }
  - { offset: 0xFD64B, size: 0x8, addend: 0x0, symName: __ZNK13llama_context12graph_get_cbEv, symObjAddr: 0x829C, symBinAddr: 0x20630, symSize: 0x14 }
  - { offset: 0xFD667, size: 0x8, addend: 0x0, symName: __ZNK13llama_context12graph_get_cbEv, symObjAddr: 0x829C, symBinAddr: 0x20630, symSize: 0x14 }
  - { offset: 0xFD682, size: 0x8, addend: 0x0, symName: __ZNK13llama_context12graph_get_cbEv, symObjAddr: 0x829C, symBinAddr: 0x20630, symSize: 0x14 }
  - { offset: 0xFD69D, size: 0x8, addend: 0x0, symName: __ZNK13llama_context12graph_get_cbEv, symObjAddr: 0x829C, symBinAddr: 0x20630, symSize: 0x14 }
  - { offset: 0x10012D, size: 0x8, addend: 0x0, symName: __ZN13llama_context11set_samplerEiP13llama_sampler, symObjAddr: 0x1720, symBinAddr: 0x19B5C, symSize: 0x35C }
  - { offset: 0x100B9D, size: 0x8, addend: 0x0, symName: __ZN13llama_context14output_reserveEi, symObjAddr: 0x1B30, symBinAddr: 0x19F6C, symSize: 0x378 }
  - { offset: 0x1015A0, size: 0x8, addend: 0x0, symName: __ZN13llama_context13sched_reserveEv, symObjAddr: 0x1EA8, symBinAddr: 0x1A2E4, symSize: 0xDB4 }
  - { offset: 0x103291, size: 0x8, addend: 0x0, symName: __ZNSt3__16vectorINS_10unique_ptrI12ggml_backend20ggml_backend_deleterEENS_9allocatorIS4_EEE20__throw_length_errorB9nqe210106Ev, symObjAddr: 0xE8F8, symBinAddr: 0x269C4, symSize: 0x14 }
  - { offset: 0x1032A9, size: 0x8, addend: 0x0, symName: __ZNSt3__16vectorINS_4pairIP12ggml_backendPFvS3_iEEENS_9allocatorIS6_EEE20__throw_length_errorB9nqe210106Ev, symObjAddr: 0xE90C, symBinAddr: 0x269D8, symSize: 0x14 }
  - { offset: 0x1032B4, size: 0x8, addend: 0x0, symName: __ZNSt3__16vectorImNS_9allocatorImEEE20__throw_length_errorB9nqe210106Ev, symObjAddr: 0xE948, symBinAddr: 0x26A00, symSize: 0x14 }
  - { offset: 0x1032E1, size: 0x8, addend: 0x0, symName: __ZNSt3__16vectorIP12ggml_backendNS_9allocatorIS2_EEE20__throw_length_errorB9nqe210106Ev, symObjAddr: 0xE934, symBinAddr: 0x269EC, symSize: 0x14 }
  - { offset: 0x1032EC, size: 0x8, addend: 0x0, symName: __ZNSt3__16vectorIP12ggml_backendNS_9allocatorIS2_EEE20__throw_length_errorB9nqe210106Ev, symObjAddr: 0xE934, symBinAddr: 0x269EC, symSize: 0x14 }
  - { offset: 0x103304, size: 0x8, addend: 0x0, symName: __ZNSt3__16vectorImNS_9allocatorImEEE20__throw_length_errorB9nqe210106Ev, symObjAddr: 0xE948, symBinAddr: 0x26A00, symSize: 0x14 }
  - { offset: 0x10330F, size: 0x8, addend: 0x0, symName: __ZNSt3__16vectorINS_4pairIP12ggml_backendPFvS3_iEEENS_9allocatorIS6_EEE20__throw_length_errorB9nqe210106Ev, symObjAddr: 0xE90C, symBinAddr: 0x269D8, symSize: 0x14 }
  - { offset: 0x103332, size: 0x8, addend: 0x0, symName: __ZNSt3__110shared_ptrI18llama_adapter_cvecED1B9nqe210106Ev, symObjAddr: 0x2EB8, symBinAddr: 0x1B2C0, symSize: 0x64 }
  - { offset: 0x1033C8, size: 0x8, addend: 0x0, symName: __ZNSt3__110unique_ptrI18llama_adapter_cvecNS_14default_deleteIS1_EEED1B9nqe210106Ev, symObjAddr: 0x16E4, symBinAddr: 0x19B20, symSize: 0x3C }
  - { offset: 0x1034FB, size: 0x8, addend: 0x0, symName: __ZNSt3__16vectorINS_10unique_ptrI12ggml_backend20ggml_backend_deleterEENS_9allocatorIS4_EEED1B9nqe210106Ev, symObjAddr: 0x2C90, symBinAddr: 0x1B098, symSize: 0x70 }
  - { offset: 0x1036CF, size: 0x8, addend: 0x0, symName: __ZNSt3__110unique_ptrI18ggml_backend_sched26ggml_backend_sched_deleterED1B9nqe210106Ev, symObjAddr: 0x2D00, symBinAddr: 0x1B108, symSize: 0x34 }
  - { offset: 0x103763, size: 0x8, addend: 0x0, symName: __ZNSt3__110unique_ptrI18llama_batch_allocrNS_14default_deleteIS1_EEED1B9nqe210106Ev, symObjAddr: 0x2D34, symBinAddr: 0x1B13C, symSize: 0x3C }
  - { offset: 0x103825, size: 0x8, addend: 0x0, symName: __ZNSt3__16__treeINS_12__value_typeIiNS_6vectorIfNS_9allocatorIfEEEEEENS_19__map_value_compareIiNS_4pairIKiS5_EENS_4lessIiEELb1EEENS3_ISA_EEE7destroyEPNS_11__tree_nodeIS6_PvEE, symObjAddr: 0xE8A8, symBinAddr: 0x26974, symSize: 0x50 }
  - { offset: 0x103AA2, size: 0x8, addend: 0x0, symName: __ZN13llama_context13sampling_infoD1Ev, symObjAddr: 0x2D70, symBinAddr: 0x1B178, symSize: 0x6C }
  - { offset: 0x103FCC, size: 0x8, addend: 0x0, symName: __ZN11llama_crossD1Ev, symObjAddr: 0x2DDC, symBinAddr: 0x1B1E4, symSize: 0x78 }
  - { offset: 0x10432C, size: 0x8, addend: 0x0, symName: __ZNSt3__110unique_ptrINS_13unordered_mapIP18llama_adapter_lorafNS_4hashIS3_EENS_8equal_toIS3_EENS_9allocatorINS_4pairIKS3_fEEEEEENS_14default_deleteISD_EEED1B9nqe210106Ev, symObjAddr: 0x2E54, symBinAddr: 0x1B25C, symSize: 0x64 }
  - { offset: 0x1046AD, size: 0x8, addend: 0x0, symName: __ZN18llama_adapter_cvecD2Ev, symObjAddr: 0xE734, symBinAddr: 0x26800, symSize: 0xC8 }
  - { offset: 0x105279, size: 0x8, addend: 0x0, symName: _llama_set_abort_callback, symObjAddr: 0x1A7C, symBinAddr: 0x19EB8, symSize: 0xB4 }
  - { offset: 0x105622, size: 0x8, addend: 0x0, symName: __ZNSt3__16vectorIjNS_9allocatorIjEEE8__appendEm, symObjAddr: 0xF838, symBinAddr: 0x2747C, symSize: 0x118 }
  - { offset: 0x105A75, size: 0x8, addend: 0x0, symName: __ZNSt3__16vectorIjNS_9allocatorIjEEE20__throw_length_errorB9nqe210106Ev, symObjAddr: 0xF950, symBinAddr: 0x27594, symSize: 0x14 }
  - { offset: 0x105A80, size: 0x8, addend: 0x0, symName: __ZN13llama_context11synchronizeEv, symObjAddr: 0x3288, symBinAddr: 0x1B680, symSize: 0xE0 }
  - { offset: 0x10600F, size: 0x8, addend: 0x0, symName: __ZN13llama_context13sched_reserveEv.cold.1, symObjAddr: 0x10064, symBinAddr: 0x291E24, symSize: 0xC }
  - { offset: 0x106027, size: 0x8, addend: 0x0, symName: __ZN13llama_context13graph_reserveEjjjPK22llama_memory_context_ibPm, symObjAddr: 0x3408, symBinAddr: 0x1B800, symSize: 0x4CC }
  - { offset: 0x106D6E, size: 0x8, addend: 0x0, symName: __ZNSt3__113__tree_removeB9nqe210106IPNS_16__tree_node_baseIPvEEEEvT_S5_, symObjAddr: 0xEA9C, symBinAddr: 0x26A14, symSize: 0x420 }
  - { offset: 0x106FDB, size: 0x8, addend: 0x0, symName: __ZN18llama_batch_allocrD2Ev, symObjAddr: 0xDEC0, symBinAddr: 0x26014, symSize: 0x174 }
  - { offset: 0x1082AD, size: 0x8, addend: 0x0, symName: __ZNSt3__16__treeINS_12__value_typeIiP13llama_samplerEENS_19__map_value_compareIiNS_4pairIKiS3_EENS_4lessIiEELb1EEENS_9allocatorIS8_EEE7destroyEPNS_11__tree_nodeIS4_PvEE, symObjAddr: 0xE6F0, symBinAddr: 0x267BC, symSize: 0x44 }
  - { offset: 0x108A8F, size: 0x8, addend: 0x0, symName: __ZN13llama_contextC1ERK11llama_model20llama_context_params, symObjAddr: 0x2F1C, symBinAddr: 0x1B324, symSize: 0x4 }
  - { offset: 0x108AC1, size: 0x8, addend: 0x0, symName: __ZN13llama_contextC1ERK11llama_model20llama_context_params, symObjAddr: 0x2F1C, symBinAddr: 0x1B324, symSize: 0x4 }
  - { offset: 0x108BD7, size: 0x8, addend: 0x0, symName: __ZN13llama_contextD2Ev, symObjAddr: 0x2F20, symBinAddr: 0x1B328, symSize: 0x354 }
  - { offset: 0x10A55D, size: 0x8, addend: 0x0, symName: __ZN13llama_contextD1Ev, symObjAddr: 0x3284, symBinAddr: 0x1B67C, symSize: 0x4 }
  - { offset: 0x10A580, size: 0x8, addend: 0x0, symName: __ZN13llama_contextD1Ev, symObjAddr: 0x3284, symBinAddr: 0x1B67C, symSize: 0x4 }
  - { offset: 0x10A5B8, size: 0x8, addend: 0x0, symName: __ZNK13llama_context15graph_max_nodesEj, symObjAddr: 0x3368, symBinAddr: 0x1B760, symSize: 0xA0 }
  - { offset: 0x10AD51, size: 0x8, addend: 0x0, symName: __ZNSt3__13mapIiP13llama_samplerNS_4lessIiEENS_9allocatorINS_4pairIKiS2_EEEEE6insertB9nqe210106INS_20__map_const_iteratorINS_21__tree_const_iteratorINS_12__value_typeIiS2_EEPNS_11__tree_nodeISF_PvEElEEEEEEvT_SM_, symObjAddr: 0xF964, symBinAddr: 0x275A8, symSize: 0xF4 }
  - { offset: 0x10AD97, size: 0x8, addend: 0x0, symName: __ZNSt3__13mapIiP13llama_samplerNS_4lessIiEENS_9allocatorINS_4pairIKiS2_EEEEE6insertB9nqe210106INS_20__map_const_iteratorINS_21__tree_const_iteratorINS_12__value_typeIiS2_EEPNS_11__tree_nodeISF_PvEElEEEEEEvT_SM_, symObjAddr: 0xF964, symBinAddr: 0x275A8, symSize: 0xF4 }
  - { offset: 0x10B17E, size: 0x8, addend: 0x0, symName: __ZN16llm_graph_paramsD1Ev, symObjAddr: 0x5D3C, symBinAddr: 0x1E134, symSize: 0xA8 }
  - { offset: 0x10B352, size: 0x8, addend: 0x0, symName: __ZNK13llama_context9get_modelEv, symObjAddr: 0x38D4, symBinAddr: 0x1BCCC, symSize: 0x8 }
  - { offset: 0x10B374, size: 0x8, addend: 0x0, symName: __ZNK13llama_context11get_cparamsEv, symObjAddr: 0x38DC, symBinAddr: 0x1BCD4, symSize: 0x8 }
  - { offset: 0x10B39E, size: 0x8, addend: 0x0, symName: __ZNK13llama_context9get_schedEv, symObjAddr: 0x38E4, symBinAddr: 0x1BCDC, symSize: 0x8 }
  - { offset: 0x10B3CA, size: 0x8, addend: 0x0, symName: __ZNK13llama_context9get_schedEv, symObjAddr: 0x38E4, symBinAddr: 0x1BCDC, symSize: 0x8 }
  - { offset: 0x10B3E8, size: 0x8, addend: 0x0, symName: __ZNK13llama_context5n_ctxEv, symObjAddr: 0x38EC, symBinAddr: 0x1BCE4, symSize: 0x8 }
  - { offset: 0x10B40A, size: 0x8, addend: 0x0, symName: __ZNK13llama_context9n_ctx_seqEv, symObjAddr: 0x38F4, symBinAddr: 0x1BCEC, symSize: 0x8 }
  - { offset: 0x10B42C, size: 0x8, addend: 0x0, symName: __ZNK13llama_context7n_batchEv, symObjAddr: 0x38FC, symBinAddr: 0x1BCF4, symSize: 0x8 }
  - { offset: 0x10B44E, size: 0x8, addend: 0x0, symName: __ZNK13llama_context8n_ubatchEv, symObjAddr: 0x3904, symBinAddr: 0x1BCFC, symSize: 0x8 }
  - { offset: 0x10B470, size: 0x8, addend: 0x0, symName: __ZNK13llama_context9n_seq_maxEv, symObjAddr: 0x390C, symBinAddr: 0x1BD04, symSize: 0x8 }
  - { offset: 0x10B492, size: 0x8, addend: 0x0, symName: __ZNK13llama_context9n_threadsEv, symObjAddr: 0x3914, symBinAddr: 0x1BD0C, symSize: 0x8 }
  - { offset: 0x10B4B4, size: 0x8, addend: 0x0, symName: __ZNK13llama_context15n_threads_batchEv, symObjAddr: 0x391C, symBinAddr: 0x1BD14, symSize: 0x8 }
  - { offset: 0x10B4EC, size: 0x8, addend: 0x0, symName: __ZNK13llama_context10get_memoryEv, symObjAddr: 0x3924, symBinAddr: 0x1BD1C, symSize: 0x8 }
  - { offset: 0x10B510, size: 0x8, addend: 0x0, symName: __ZNK13llama_context10get_memoryEv, symObjAddr: 0x3924, symBinAddr: 0x1BD1C, symSize: 0x8 }
  - { offset: 0x10B560, size: 0x8, addend: 0x0, symName: __ZN13llama_context13memory_updateEb, symObjAddr: 0x392C, symBinAddr: 0x1BD24, symSize: 0x1F4 }
  - { offset: 0x10B94E, size: 0x8, addend: 0x0, symName: __ZNK13llama_context12pooling_typeEv, symObjAddr: 0x3B20, symBinAddr: 0x1BF18, symSize: 0x8 }
  - { offset: 0x10B970, size: 0x8, addend: 0x0, symName: __ZN13llama_context10get_logitsEv, symObjAddr: 0x3B28, symBinAddr: 0x1BF20, symSize: 0x24 }
  - { offset: 0x10B9A7, size: 0x8, addend: 0x0, symName: __ZN13llama_context14output_reorderEv, symObjAddr: 0x3B4C, symBinAddr: 0x1BF44, symSize: 0x9B0 }
  - { offset: 0x10BC37, size: 0x8, addend: 0x0, symName: __ZNK13llama_context18output_resolve_rowEi, symObjAddr: 0x44FC, symBinAddr: 0x1C8F4, symSize: 0x1D4 }
  - { offset: 0x10BE94, size: 0x8, addend: 0x0, symName: __ZN13llama_context14get_logits_ithEi, symObjAddr: 0x46D0, symBinAddr: 0x1CAC8, symSize: 0x128 }
  - { offset: 0x10BF42, size: 0x8, addend: 0x0, symName: __ZN13llama_context14get_embeddingsEv, symObjAddr: 0x47F8, symBinAddr: 0x1CBF0, symSize: 0x24 }
  - { offset: 0x10BF79, size: 0x8, addend: 0x0, symName: __ZNK13llama_context18get_sampled_tokensEv, symObjAddr: 0x481C, symBinAddr: 0x1CC14, symSize: 0x8 }
  - { offset: 0x10BFA3, size: 0x8, addend: 0x0, symName: __ZN13llama_context18get_embeddings_ithEi, symObjAddr: 0x4824, symBinAddr: 0x1CC1C, symSize: 0x128 }
  - { offset: 0x10C175, size: 0x8, addend: 0x0, symName: __ZN13llama_context18get_embeddings_seqEi, symObjAddr: 0x494C, symBinAddr: 0x1CD44, symSize: 0x50 }
  - { offset: 0x10C1A9, size: 0x8, addend: 0x0, symName: __ZN13llama_context18get_embeddings_seqEi, symObjAddr: 0x494C, symBinAddr: 0x1CD44, symSize: 0x50 }
  - { offset: 0x10C1C8, size: 0x8, addend: 0x0, symName: __ZN13llama_context18get_embeddings_seqEi, symObjAddr: 0x494C, symBinAddr: 0x1CD44, symSize: 0x50 }
  - { offset: 0x10C1F0, size: 0x8, addend: 0x0, symName: __ZN13llama_context18get_embeddings_seqEi, symObjAddr: 0x494C, symBinAddr: 0x1CD44, symSize: 0x50 }
  - { offset: 0x10C2F7, size: 0x8, addend: 0x0, symName: __ZN13llama_context21get_sampled_token_ithEi, symObjAddr: 0x499C, symBinAddr: 0x1CD94, symSize: 0x104 }
  - { offset: 0x10C3F6, size: 0x8, addend: 0x0, symName: __ZN13llama_context21get_sampled_probs_ithEi, symObjAddr: 0x4AA0, symBinAddr: 0x1CE98, symSize: 0xFC }
  - { offset: 0x10C4E4, size: 0x8, addend: 0x0, symName: __ZN13llama_context22get_sampled_logits_ithEi, symObjAddr: 0x4B9C, symBinAddr: 0x1CF94, symSize: 0xFC }
  - { offset: 0x10C5E8, size: 0x8, addend: 0x0, symName: __ZN13llama_context26get_sampled_candidates_ithEi, symObjAddr: 0x4C98, symBinAddr: 0x1D090, symSize: 0xA8 }
  - { offset: 0x10C6D3, size: 0x8, addend: 0x0, symName: __ZN13llama_context28get_sampled_candidates_countEi, symObjAddr: 0x4D40, symBinAddr: 0x1D138, symSize: 0xDC }
  - { offset: 0x10C7C1, size: 0x8, addend: 0x0, symName: __ZN13llama_context24get_sampled_logits_countEi, symObjAddr: 0x4E1C, symBinAddr: 0x1D214, symSize: 0x10C }
  - { offset: 0x10C8AF, size: 0x8, addend: 0x0, symName: __ZN13llama_context23get_sampled_probs_countEi, symObjAddr: 0x4F28, symBinAddr: 0x1D320, symSize: 0xDC }
  - { offset: 0x10C99D, size: 0x8, addend: 0x0, symName: __ZN13llama_context17attach_threadpoolEP15ggml_threadpoolS1_, symObjAddr: 0x5004, symBinAddr: 0x1D3FC, symSize: 0x60 }
  - { offset: 0x10C9E4, size: 0x8, addend: 0x0, symName: __ZN13llama_context17detach_threadpoolEv, symObjAddr: 0x5064, symBinAddr: 0x1D45C, symSize: 0x48 }
  - { offset: 0x10CA19, size: 0x8, addend: 0x0, symName: __ZN13llama_context13set_n_threadsEii, symObjAddr: 0x50AC, symBinAddr: 0x1D4A4, symSize: 0x58 }
  - { offset: 0x10CA60, size: 0x8, addend: 0x0, symName: __ZN13llama_context18set_abort_callbackEPFbPvES0_, symObjAddr: 0x5104, symBinAddr: 0x1D4FC, symSize: 0xB4 }
  - { offset: 0x10CBF5, size: 0x8, addend: 0x0, symName: __ZN13llama_context14set_embeddingsEb, symObjAddr: 0x51B8, symBinAddr: 0x1D5B0, symSize: 0x48 }
  - { offset: 0x10CC30, size: 0x8, addend: 0x0, symName: __ZN13llama_context15set_causal_attnEb, symObjAddr: 0x5200, symBinAddr: 0x1D5F8, symSize: 0x64 }
  - { offset: 0x10CC6E, size: 0x8, addend: 0x0, symName: __ZN13llama_context10set_warmupEb, symObjAddr: 0x5264, symBinAddr: 0x1D65C, symSize: 0x54 }
  - { offset: 0x10CE94, size: 0x8, addend: 0x0, symName: __ZN13llama_context17set_adapters_loraEPP18llama_adapter_loramPf, symObjAddr: 0x52B8, symBinAddr: 0x1D6B0, symSize: 0x184 }
  - { offset: 0x10D4AE, size: 0x8, addend: 0x0, symName: __ZNSt3__112__hash_tableINS_17__hash_value_typeIP18llama_adapter_lorafEENS_22__unordered_map_hasherIS3_NS_4pairIKS3_fEENS_4hashIS3_EENS_8equal_toIS3_EELb1EEENS_21__unordered_map_equalIS3_S8_SC_SA_Lb1EEENS_9allocatorIS8_EEE4findIS3_EENS_15__hash_iteratorIPNS_11__hash_nodeIS4_PvEEEERKT_, symObjAddr: 0xF38C, symBinAddr: 0x27304, symSize: 0x120 }
  - { offset: 0x10D4F5, size: 0x8, addend: 0x0, symName: __ZNSt3__112__hash_tableINS_17__hash_value_typeIP18llama_adapter_lorafEENS_22__unordered_map_hasherIS3_NS_4pairIKS3_fEENS_4hashIS3_EENS_8equal_toIS3_EELb1EEENS_21__unordered_map_equalIS3_S8_SC_SA_Lb1EEENS_9allocatorIS8_EEE4findIS3_EENS_15__hash_iteratorIPNS_11__hash_nodeIS4_PvEEEERKT_, symObjAddr: 0xF38C, symBinAddr: 0x27304, symSize: 0x120 }
  - { offset: 0x10D511, size: 0x8, addend: 0x0, symName: __ZNSt3__112__hash_tableINS_17__hash_value_typeIP18llama_adapter_lorafEENS_22__unordered_map_hasherIS3_NS_4pairIKS3_fEENS_4hashIS3_EENS_8equal_toIS3_EELb1EEENS_21__unordered_map_equalIS3_S8_SC_SA_Lb1EEENS_9allocatorIS8_EEE4findIS3_EENS_15__hash_iteratorIPNS_11__hash_nodeIS4_PvEEEERKT_, symObjAddr: 0xF38C, symBinAddr: 0x27304, symSize: 0x120 }
  - { offset: 0x10D747, size: 0x8, addend: 0x0, symName: __ZNSt3__112__hash_tableINS_17__hash_value_typeIP18llama_adapter_lorafEENS_22__unordered_map_hasherIS3_NS_4pairIKS3_fEENS_4hashIS3_EENS_8equal_toIS3_EELb1EEENS_21__unordered_map_equalIS3_S8_SC_SA_Lb1EEENS_9allocatorIS8_EEE25__emplace_unique_key_argsIS3_JS8_EEENS6_INS_15__hash_iteratorIPNS_11__hash_nodeIS4_PvEEEEbEERKT_DpOT0_, symObjAddr: 0xEEBC, symBinAddr: 0x26E34, symSize: 0x344 }
  - { offset: 0x10DEA4, size: 0x8, addend: 0x0, symName: __ZN13llama_context22adapters_lora_are_sameEPP18llama_adapter_loramPf, symObjAddr: 0x543C, symBinAddr: 0x1D834, symSize: 0xD4 }
  - { offset: 0x10DFF5, size: 0x8, addend: 0x0, symName: __ZN13llama_context16set_adapter_cvecEPKfmiii, symObjAddr: 0x5510, symBinAddr: 0x1D908, symSize: 0x98 }
  - { offset: 0x10E09C, size: 0x8, addend: 0x0, symName: __ZN13llama_context14process_ubatchERK12llama_ubatch14llm_graph_typeP22llama_memory_context_iR11ggml_status, symObjAddr: 0x55A8, symBinAddr: 0x1D9A0, symSize: 0x530 }
  - { offset: 0x10EBD6, size: 0x8, addend: 0x0, symName: __ZN13llama_context13graph_computeEP11ggml_cgraphb, symObjAddr: 0x5C58, symBinAddr: 0x1E050, symSize: 0xE4 }
  - { offset: 0x10EDAF, size: 0x8, addend: 0x0, symName: __ZNK13llama_context12graph_paramsEP16llm_graph_resultRK12llama_ubatchPK22llama_memory_context_i14llm_graph_type, symObjAddr: 0x5AD8, symBinAddr: 0x1DED0, symSize: 0x180 }
  - { offset: 0x10FA78, size: 0x8, addend: 0x0, symName: __ZN13llama_context6encodeERK11llama_batch, symObjAddr: 0x5DE4, symBinAddr: 0x1E1DC, symSize: 0xB40 }
  - { offset: 0x1124B2, size: 0x8, addend: 0x0, symName: __ZN13llama_context6decodeERK11llama_batch, symObjAddr: 0x6988, symBinAddr: 0x1ED1C, symSize: 0x1680 }
  - { offset: 0x114FB0, size: 0x8, addend: 0x0, symName: __ZL24copy_tensor_async_floatsRKNSt3__13mapIiP11ggml_tensorNS_4lessIiEENS_9allocatorINS_4pairIKiS2_EEEEEERK11buffer_viewIfEmRNS_6vectorIjNS5_IjEEEERKNS0_IijS4_NS5_INS6_IS7_jEEEEEEP18ggml_backend_sched, symObjAddr: 0x8008, symBinAddr: 0x2039C, symSize: 0x1AC }
  - { offset: 0x115388, size: 0x8, addend: 0x0, symName: __ZNSt3__16vectorIN13llama_context9swap_infoENS_9allocatorIS2_EEE9push_backB9nqe210106EOS2_, symObjAddr: 0x81B4, symBinAddr: 0x20548, symSize: 0xE0 }
  - { offset: 0x1153AE, size: 0x8, addend: 0x0, symName: __ZNSt3__16__treeINS_12__value_typeIijEENS_19__map_value_compareIiNS_4pairIKijEENS_4lessIiEELb1EEENS_9allocatorIS6_EEE7destroyEPNS_11__tree_nodeIS2_PvEE, symObjAddr: 0xF7E0, symBinAddr: 0x27424, symSize: 0x44 }
  - { offset: 0x1154A8, size: 0x8, addend: 0x0, symName: __ZNSt3__16vectorIN13llama_context9swap_infoENS_9allocatorIS2_EEE9push_backB9nqe210106EOS2_, symObjAddr: 0x81B4, symBinAddr: 0x20548, symSize: 0xE0 }
  - { offset: 0x115860, size: 0x8, addend: 0x0, symName: __ZNK13llama_context18get_gf_res_reserveEv, symObjAddr: 0x8294, symBinAddr: 0x20628, symSize: 0x8 }
  - { offset: 0x115B3B, size: 0x8, addend: 0x0, symName: __ZNSt3__16vectorIN13llama_context9swap_infoENS_9allocatorIS2_EEE20__throw_length_errorB9nqe210106Ev, symObjAddr: 0xF824, symBinAddr: 0x27468, symSize: 0x14 }
  - { offset: 0x115B53, size: 0x8, addend: 0x0, symName: __ZNSt3__16vectorIjNS_9allocatorIjEEE8__appendEm, symObjAddr: 0xF838, symBinAddr: 0x2747C, symSize: 0x118 }
  - { offset: 0x115B5E, size: 0x8, addend: 0x0, symName: __ZNK13llama_context18get_gf_res_reserveEv, symObjAddr: 0x8294, symBinAddr: 0x20628, symSize: 0x8 }
  - { offset: 0x115B8A, size: 0x8, addend: 0x0, symName: __ZNK13llama_context18get_gf_res_reserveEv, symObjAddr: 0x8294, symBinAddr: 0x20628, symSize: 0x8 }
  - { offset: 0x115BE2, size: 0x8, addend: 0x0, symName: __ZN13llama_context14state_get_sizeEv, symObjAddr: 0x82B0, symBinAddr: 0x20644, symSize: 0xA0 }
  - { offset: 0x115CA4, size: 0x8, addend: 0x0, symName: __ZN13llama_context16state_write_dataER16llama_io_write_i, symObjAddr: 0x8350, symBinAddr: 0x206E4, symSize: 0x170 }
  - { offset: 0x11621B, size: 0x8, addend: 0x0, symName: __ZN20llama_io_write_dummyD1Ev, symObjAddr: 0x84C0, symBinAddr: 0x20854, symSize: 0x4 }
  - { offset: 0x1162B5, size: 0x8, addend: 0x0, symName: __ZN13llama_context14state_get_dataEPhm, symObjAddr: 0x84C4, symBinAddr: 0x20858, symSize: 0xA4 }
  - { offset: 0x1163B3, size: 0x8, addend: 0x0, symName: __ZN21llama_io_write_bufferD1Ev, symObjAddr: 0x8568, symBinAddr: 0x208FC, symSize: 0x4 }
  - { offset: 0x11644D, size: 0x8, addend: 0x0, symName: __ZN13llama_context14state_set_dataEPKhm, symObjAddr: 0x856C, symBinAddr: 0x20900, symSize: 0xA4 }
  - { offset: 0x11654B, size: 0x8, addend: 0x0, symName: __ZN13llama_context15state_read_dataER15llama_io_read_i, symObjAddr: 0x8610, symBinAddr: 0x209A4, symSize: 0x29C }
  - { offset: 0x116F5D, size: 0x8, addend: 0x0, symName: __ZN20llama_io_read_bufferD1Ev, symObjAddr: 0x88AC, symBinAddr: 0x20C40, symSize: 0x4 }
  - { offset: 0x116FCA, size: 0x8, addend: 0x0, symName: __ZN13llama_context18state_seq_get_sizeEij, symObjAddr: 0x88B0, symBinAddr: 0x20C44, symSize: 0xC8 }
  - { offset: 0x1170FF, size: 0x8, addend: 0x0, symName: __ZN13llama_context20state_seq_write_dataER16llama_io_write_iij, symObjAddr: 0x8978, symBinAddr: 0x20D0C, symSize: 0x40 }
  - { offset: 0x11717B, size: 0x8, addend: 0x0, symName: __ZN13llama_context18state_seq_get_dataEiPhmj, symObjAddr: 0x89B8, symBinAddr: 0x20D4C, symSize: 0xD4 }
  - { offset: 0x117329, size: 0x8, addend: 0x0, symName: __ZN13llama_context18state_seq_set_dataEiPKhmj, symObjAddr: 0x8A8C, symBinAddr: 0x20E20, symSize: 0xD4 }
  - { offset: 0x11749A, size: 0x8, addend: 0x0, symName: __ZN13llama_context19state_seq_read_dataER15llama_io_read_iij, symObjAddr: 0x8B60, symBinAddr: 0x20EF4, symSize: 0x40 }
  - { offset: 0x1176F0, size: 0x8, addend: 0x0, symName: __ZN13llama_context15state_load_fileEPKcPimPm, symObjAddr: 0x8BA0, symBinAddr: 0x20F34, symSize: 0x1D0 }
  - { offset: 0x117B77, size: 0x8, addend: 0x0, symName: __ZN18llama_io_read_fileD1Ev, symObjAddr: 0x8D70, symBinAddr: 0x21104, symSize: 0x44 }
  - { offset: 0x117B9B, size: 0x8, addend: 0x0, symName: __ZN18llama_io_read_fileD1Ev, symObjAddr: 0x8D70, symBinAddr: 0x21104, symSize: 0x44 }
  - { offset: 0x117D58, size: 0x8, addend: 0x0, symName: __ZN13llama_context15state_save_fileEPKcPKim, symObjAddr: 0x8DB4, symBinAddr: 0x21148, symSize: 0x104 }
  - { offset: 0x118125, size: 0x8, addend: 0x0, symName: __ZN19llama_io_write_fileD1Ev, symObjAddr: 0x8EB8, symBinAddr: 0x2124C, symSize: 0x44 }
  - { offset: 0x118149, size: 0x8, addend: 0x0, symName: __ZN19llama_io_write_fileD1Ev, symObjAddr: 0x8EB8, symBinAddr: 0x2124C, symSize: 0x44 }
  - { offset: 0x118272, size: 0x8, addend: 0x0, symName: __ZN13llama_context19state_seq_load_fileEiPKcPimPm, symObjAddr: 0x8EFC, symBinAddr: 0x21290, symSize: 0x278 }
  - { offset: 0x11878C, size: 0x8, addend: 0x0, symName: __ZN13llama_context19state_seq_save_fileEiPKcPKim, symObjAddr: 0x9174, symBinAddr: 0x21508, symSize: 0x198 }
  - { offset: 0x118C18, size: 0x8, addend: 0x0, symName: __ZN19llama_io_write_file7n_bytesEv, symObjAddr: 0x930C, symBinAddr: 0x216A0, symSize: 0x8 }
  - { offset: 0x118C3A, size: 0x8, addend: 0x0, symName: __ZNK13llama_context13perf_get_dataEv, symObjAddr: 0x9314, symBinAddr: 0x216A8, symSize: 0x50 }
  - { offset: 0x118D1F, size: 0x8, addend: 0x0, symName: __ZN13llama_context10perf_resetEv, symObjAddr: 0x9364, symBinAddr: 0x216F8, symSize: 0x34 }
  - { offset: 0x1194C0, size: 0x8, addend: 0x0, symName: __ZNK13llama_context16memory_breakdownEv, symObjAddr: 0x9398, symBinAddr: 0x2172C, symSize: 0x500 }
  - { offset: 0x11A85B, size: 0x8, addend: 0x0, symName: __ZNSt3__16__treeINS_12__value_typeIP24ggml_backend_buffer_typemEENS_19__map_value_compareIS3_NS_4pairIKS3_mEENS_4lessIS3_EELb1EEENS_9allocatorIS8_EEE7destroyEPNS_11__tree_nodeIS4_PvEE, symObjAddr: 0xFE20, symBinAddr: 0x27A64, symSize: 0x44 }
  - { offset: 0x11A96D, size: 0x8, addend: 0x0, symName: __ZNSt3__16__treeINS_12__value_typeIP24ggml_backend_buffer_type27llama_memory_breakdown_dataEENS_19__map_value_compareIS3_NS_4pairIKS3_S4_EENS_4lessIS3_EELb1EEENS_9allocatorIS9_EEE7destroyEPNS_11__tree_nodeIS5_PvEE, symObjAddr: 0xFDDC, symBinAddr: 0x27A20, symSize: 0x44 }
  - { offset: 0x11AB1A, size: 0x8, addend: 0x0, symName: __ZN13llama_context8opt_initEP11llama_model16llama_opt_params, symObjAddr: 0x9898, symBinAddr: 0x21C2C, symSize: 0x638 }
  - { offset: 0x11B4D6, size: 0x8, addend: 0x0, symName: __ZN13llama_context14opt_epoch_iterEP16ggml_opt_datasetP15ggml_opt_resultRKNSt3__16vectorIiNS4_9allocatorIiEEEESA_R11llama_batchPFvbP16ggml_opt_contextS1_S3_xxxEbxxx, symObjAddr: 0x9ED0, symBinAddr: 0x22264, symSize: 0x790 }
  - { offset: 0x11B608, size: 0x8, addend: 0x0, symName: __ZN13llama_context14opt_epoch_iterEP16ggml_opt_datasetP15ggml_opt_resultRKNSt3__16vectorIiNS4_9allocatorIiEEEESA_R11llama_batchPFvbP16ggml_opt_contextS1_S3_xxxEbxxx, symObjAddr: 0x9ED0, symBinAddr: 0x22264, symSize: 0x790 }
  - { offset: 0x11C670, size: 0x8, addend: 0x0, symName: __ZN13llama_context9opt_epochEP16ggml_opt_datasetP15ggml_opt_resultS3_xPFvbP16ggml_opt_contextS1_S3_xxxES7_, symObjAddr: 0xA660, symBinAddr: 0x229F4, symSize: 0x2E8 }
  - { offset: 0x11D19F, size: 0x8, addend: 0x0, symName: _llama_context_default_params, symObjAddr: 0xA948, symBinAddr: 0x22CDC, symSize: 0x34 }
  - { offset: 0x11D1FD, size: 0x8, addend: 0x0, symName: _llama_init_from_model, symObjAddr: 0xA97C, symBinAddr: 0x22D10, symSize: 0x3BC }
  - { offset: 0x11D40A, size: 0x8, addend: 0x0, symName: _llama_new_context_with_model, symObjAddr: 0xAD38, symBinAddr: 0x230CC, symSize: 0x48 }
  - { offset: 0x11D482, size: 0x8, addend: 0x0, symName: _llama_free, symObjAddr: 0xAD80, symBinAddr: 0x23114, symSize: 0x1C }
  - { offset: 0x11D4D3, size: 0x8, addend: 0x0, symName: _llama_n_ctx, symObjAddr: 0xAD9C, symBinAddr: 0x23130, symSize: 0x8 }
  - { offset: 0x11D501, size: 0x8, addend: 0x0, symName: _llama_n_ctx, symObjAddr: 0xAD9C, symBinAddr: 0x23130, symSize: 0x8 }
  - { offset: 0x11D535, size: 0x8, addend: 0x0, symName: _llama_n_ctx_seq, symObjAddr: 0xADA4, symBinAddr: 0x23138, symSize: 0x8 }
  - { offset: 0x11D563, size: 0x8, addend: 0x0, symName: _llama_n_ctx_seq, symObjAddr: 0xADA4, symBinAddr: 0x23138, symSize: 0x8 }
  - { offset: 0x11D57E, size: 0x8, addend: 0x0, symName: _llama_n_batch, symObjAddr: 0xADAC, symBinAddr: 0x23140, symSize: 0x8 }
  - { offset: 0x11D5AC, size: 0x8, addend: 0x0, symName: _llama_n_batch, symObjAddr: 0xADAC, symBinAddr: 0x23140, symSize: 0x8 }
  - { offset: 0x11D5E0, size: 0x8, addend: 0x0, symName: _llama_n_ubatch, symObjAddr: 0xADB4, symBinAddr: 0x23148, symSize: 0x8 }
  - { offset: 0x11D60E, size: 0x8, addend: 0x0, symName: _llama_n_ubatch, symObjAddr: 0xADB4, symBinAddr: 0x23148, symSize: 0x8 }
  - { offset: 0x11D629, size: 0x8, addend: 0x0, symName: _llama_n_seq_max, symObjAddr: 0xADBC, symBinAddr: 0x23150, symSize: 0x8 }
  - { offset: 0x11D657, size: 0x8, addend: 0x0, symName: _llama_n_seq_max, symObjAddr: 0xADBC, symBinAddr: 0x23150, symSize: 0x8 }
  - { offset: 0x11D68B, size: 0x8, addend: 0x0, symName: _llama_get_model, symObjAddr: 0xADC4, symBinAddr: 0x23158, symSize: 0x8 }
  - { offset: 0x11D6B9, size: 0x8, addend: 0x0, symName: _llama_get_model, symObjAddr: 0xADC4, symBinAddr: 0x23158, symSize: 0x8 }
  - { offset: 0x11D6ED, size: 0x8, addend: 0x0, symName: _llama_pooling_type, symObjAddr: 0xADCC, symBinAddr: 0x23160, symSize: 0x8 }
  - { offset: 0x11D71B, size: 0x8, addend: 0x0, symName: _llama_pooling_type, symObjAddr: 0xADCC, symBinAddr: 0x23160, symSize: 0x8 }
  - { offset: 0x11D767, size: 0x8, addend: 0x0, symName: _llama_attach_threadpool, symObjAddr: 0xADD4, symBinAddr: 0x23168, symSize: 0x60 }
  - { offset: 0x11D806, size: 0x8, addend: 0x0, symName: _llama_detach_threadpool, symObjAddr: 0xAE34, symBinAddr: 0x231C8, symSize: 0x48 }
  - { offset: 0x11D88F, size: 0x8, addend: 0x0, symName: _llama_set_n_threads, symObjAddr: 0xAE7C, symBinAddr: 0x23210, symSize: 0x58 }
  - { offset: 0x11D92E, size: 0x8, addend: 0x0, symName: _llama_n_threads, symObjAddr: 0xAED4, symBinAddr: 0x23268, symSize: 0x8 }
  - { offset: 0x11D95C, size: 0x8, addend: 0x0, symName: _llama_n_threads, symObjAddr: 0xAED4, symBinAddr: 0x23268, symSize: 0x8 }
  - { offset: 0x11D990, size: 0x8, addend: 0x0, symName: _llama_n_threads_batch, symObjAddr: 0xAEDC, symBinAddr: 0x23270, symSize: 0x8 }
  - { offset: 0x11D9BE, size: 0x8, addend: 0x0, symName: _llama_n_threads_batch, symObjAddr: 0xAEDC, symBinAddr: 0x23270, symSize: 0x8 }
  - { offset: 0x11D9FE, size: 0x8, addend: 0x0, symName: _llama_set_embeddings, symObjAddr: 0xAEE4, symBinAddr: 0x23278, symSize: 0x48 }
  - { offset: 0x11DA8B, size: 0x8, addend: 0x0, symName: _llama_set_causal_attn, symObjAddr: 0xAF2C, symBinAddr: 0x232C0, symSize: 0x64 }
  - { offset: 0x11DB21, size: 0x8, addend: 0x0, symName: _llama_set_warmup, symObjAddr: 0xAF90, symBinAddr: 0x23324, symSize: 0x54 }
  - { offset: 0x11DB92, size: 0x8, addend: 0x0, symName: _llama_synchronize, symObjAddr: 0xAFE4, symBinAddr: 0x23378, symSize: 0x4 }
  - { offset: 0x11DBBB, size: 0x8, addend: 0x0, symName: _llama_synchronize, symObjAddr: 0xAFE4, symBinAddr: 0x23378, symSize: 0x4 }
  - { offset: 0x11DBE7, size: 0x8, addend: 0x0, symName: _llama_get_logits, symObjAddr: 0xAFE8, symBinAddr: 0x2337C, symSize: 0x2C }
  - { offset: 0x11DC59, size: 0x8, addend: 0x0, symName: _llama_get_logits_ith, symObjAddr: 0xB014, symBinAddr: 0x233A8, symSize: 0x48 }
  - { offset: 0x11DCFB, size: 0x8, addend: 0x0, symName: _llama_get_embeddings, symObjAddr: 0xB05C, symBinAddr: 0x233F0, symSize: 0x2C }
  - { offset: 0x11DD6D, size: 0x8, addend: 0x0, symName: _llama_get_embeddings_ith, symObjAddr: 0xB088, symBinAddr: 0x2341C, symSize: 0x2C }
  - { offset: 0x11DDFD, size: 0x8, addend: 0x0, symName: _llama_get_embeddings_seq, symObjAddr: 0xB0B4, symBinAddr: 0x23448, symSize: 0x78 }
  - { offset: 0x11DFA2, size: 0x8, addend: 0x0, symName: _llama_set_sampler, symObjAddr: 0xB12C, symBinAddr: 0x234C0, symSize: 0x4 }
  - { offset: 0x11DFEB, size: 0x8, addend: 0x0, symName: _llama_set_sampler, symObjAddr: 0xB12C, symBinAddr: 0x234C0, symSize: 0x4 }
  - { offset: 0x11E00C, size: 0x8, addend: 0x0, symName: _llama_get_sampled_token_ith, symObjAddr: 0xB130, symBinAddr: 0x234C4, symSize: 0x2C }
  - { offset: 0x11E06B, size: 0x8, addend: 0x0, symName: _llama_get_sampled_probs_ith, symObjAddr: 0xB15C, symBinAddr: 0x234F0, symSize: 0x2C }
  - { offset: 0x11E0CA, size: 0x8, addend: 0x0, symName: _llama_get_sampled_logits_ith, symObjAddr: 0xB188, symBinAddr: 0x2351C, symSize: 0x2C }
  - { offset: 0x11E129, size: 0x8, addend: 0x0, symName: _llama_get_sampled_candidates_ith, symObjAddr: 0xB1B4, symBinAddr: 0x23548, symSize: 0x2C }
  - { offset: 0x11E188, size: 0x8, addend: 0x0, symName: _llama_get_sampled_candidates_count_ith, symObjAddr: 0xB1E0, symBinAddr: 0x23574, symSize: 0x30 }
  - { offset: 0x11E1F3, size: 0x8, addend: 0x0, symName: _llama_get_sampled_logits_count_ith, symObjAddr: 0xB210, symBinAddr: 0x235A4, symSize: 0x30 }
  - { offset: 0x11E25E, size: 0x8, addend: 0x0, symName: _llama_get_sampled_probs_count_ith, symObjAddr: 0xB240, symBinAddr: 0x235D4, symSize: 0x30 }
  - { offset: 0x11E2E2, size: 0x8, addend: 0x0, symName: __Z19llama_graph_reserveP13llama_contextjjj, symObjAddr: 0xB270, symBinAddr: 0x23604, symSize: 0xBC }
  - { offset: 0x11E518, size: 0x8, addend: 0x0, symName: _llama_set_adapters_lora, symObjAddr: 0xB32C, symBinAddr: 0x236C0, symSize: 0x58 }
  - { offset: 0x11E584, size: 0x8, addend: 0x0, symName: _llama_set_adapter_cvec, symObjAddr: 0xB384, symBinAddr: 0x23718, symSize: 0x9C }
  - { offset: 0x11E5F8, size: 0x8, addend: 0x0, symName: _llama_set_adapter_cvec, symObjAddr: 0xB384, symBinAddr: 0x23718, symSize: 0x9C }
  - { offset: 0x11E706, size: 0x8, addend: 0x0, symName: _llama_get_memory, symObjAddr: 0xB420, symBinAddr: 0x237B4, symSize: 0x8 }
  - { offset: 0x11E734, size: 0x8, addend: 0x0, symName: _llama_get_memory, symObjAddr: 0xB420, symBinAddr: 0x237B4, symSize: 0x8 }
  - { offset: 0x11E750, size: 0x8, addend: 0x0, symName: _llama_get_memory, symObjAddr: 0xB420, symBinAddr: 0x237B4, symSize: 0x8 }
  - { offset: 0x11E76F, size: 0x8, addend: 0x0, symName: _llama_memory_clear, symObjAddr: 0xB428, symBinAddr: 0x237BC, symSize: 0x14 }
  - { offset: 0x11E7B4, size: 0x8, addend: 0x0, symName: _llama_memory_seq_rm, symObjAddr: 0xB43C, symBinAddr: 0x237D0, symSize: 0x18 }
  - { offset: 0x11E816, size: 0x8, addend: 0x0, symName: _llama_memory_seq_cp, symObjAddr: 0xB454, symBinAddr: 0x237E8, symSize: 0x14 }
  - { offset: 0x11E880, size: 0x8, addend: 0x0, symName: _llama_memory_seq_keep, symObjAddr: 0xB468, symBinAddr: 0x237FC, symSize: 0x14 }
  - { offset: 0x11E8C0, size: 0x8, addend: 0x0, symName: _llama_memory_seq_add, symObjAddr: 0xB47C, symBinAddr: 0x23810, symSize: 0x14 }
  - { offset: 0x11E92A, size: 0x8, addend: 0x0, symName: _llama_memory_seq_div, symObjAddr: 0xB490, symBinAddr: 0x23824, symSize: 0x14 }
  - { offset: 0x11E994, size: 0x8, addend: 0x0, symName: _llama_memory_seq_pos_min, symObjAddr: 0xB4A4, symBinAddr: 0x23838, symSize: 0x18 }
  - { offset: 0x11E9DA, size: 0x8, addend: 0x0, symName: _llama_memory_seq_pos_max, symObjAddr: 0xB4BC, symBinAddr: 0x23850, symSize: 0x18 }
  - { offset: 0x11EA20, size: 0x8, addend: 0x0, symName: _llama_memory_can_shift, symObjAddr: 0xB4D4, symBinAddr: 0x23868, symSize: 0x14 }
  - { offset: 0x11EA71, size: 0x8, addend: 0x0, symName: _llama_get_state_size, symObjAddr: 0xB4E8, symBinAddr: 0x2387C, symSize: 0x4 }
  - { offset: 0x11EA9D, size: 0x8, addend: 0x0, symName: _llama_get_state_size, symObjAddr: 0xB4E8, symBinAddr: 0x2387C, symSize: 0x4 }
  - { offset: 0x11EABB, size: 0x8, addend: 0x0, symName: _llama_get_state_size, symObjAddr: 0xB4E8, symBinAddr: 0x2387C, symSize: 0x4 }
  - { offset: 0x11EACE, size: 0x8, addend: 0x0, symName: _llama_state_get_size, symObjAddr: 0xB4EC, symBinAddr: 0x23880, symSize: 0x4 }
  - { offset: 0x11EAED, size: 0x8, addend: 0x0, symName: _llama_state_get_size, symObjAddr: 0xB4EC, symBinAddr: 0x23880, symSize: 0x4 }
  - { offset: 0x11EB33, size: 0x8, addend: 0x0, symName: _llama_copy_state_data, symObjAddr: 0xB4F0, symBinAddr: 0x23884, symSize: 0x30 }
  - { offset: 0x11EBCA, size: 0x8, addend: 0x0, symName: _llama_state_get_data, symObjAddr: 0xB520, symBinAddr: 0x238B4, symSize: 0x3C }
  - { offset: 0x11EC50, size: 0x8, addend: 0x0, symName: _llama_set_state_data, symObjAddr: 0xB55C, symBinAddr: 0x238F0, symSize: 0x30 }
  - { offset: 0x11ECE7, size: 0x8, addend: 0x0, symName: _llama_state_set_data, symObjAddr: 0xB58C, symBinAddr: 0x23920, symSize: 0x3C }
  - { offset: 0x11ED3A, size: 0x8, addend: 0x0, symName: _llama_load_session_file, symObjAddr: 0xB5C8, symBinAddr: 0x2395C, symSize: 0x4 }
  - { offset: 0x11ED9F, size: 0x8, addend: 0x0, symName: _llama_load_session_file, symObjAddr: 0xB5C8, symBinAddr: 0x2395C, symSize: 0x4 }
  - { offset: 0x11EDCE, size: 0x8, addend: 0x0, symName: _llama_state_load_file, symObjAddr: 0xB5CC, symBinAddr: 0x23960, symSize: 0xD0 }
  - { offset: 0x11EEAA, size: 0x8, addend: 0x0, symName: _llama_save_session_file, symObjAddr: 0xB69C, symBinAddr: 0x23A30, symSize: 0x4 }
  - { offset: 0x11EF01, size: 0x8, addend: 0x0, symName: _llama_save_session_file, symObjAddr: 0xB69C, symBinAddr: 0x23A30, symSize: 0x4 }
  - { offset: 0x11EF29, size: 0x8, addend: 0x0, symName: _llama_state_save_file, symObjAddr: 0xB6A0, symBinAddr: 0x23A34, symSize: 0xC0 }
  - { offset: 0x11F022, size: 0x8, addend: 0x0, symName: _llama_state_seq_get_size, symObjAddr: 0xB760, symBinAddr: 0x23AF4, symSize: 0x8 }
  - { offset: 0x11F05C, size: 0x8, addend: 0x0, symName: _llama_state_seq_get_size, symObjAddr: 0xB760, symBinAddr: 0x23AF4, symSize: 0x8 }
  - { offset: 0x11F0A7, size: 0x8, addend: 0x0, symName: _llama_state_seq_get_size_ext, symObjAddr: 0xB768, symBinAddr: 0x23AFC, symSize: 0x4 }
  - { offset: 0x11F0D4, size: 0x8, addend: 0x0, symName: _llama_state_seq_get_size_ext, symObjAddr: 0xB768, symBinAddr: 0x23AFC, symSize: 0x4 }
  - { offset: 0x11F140, size: 0x8, addend: 0x0, symName: _llama_state_seq_get_data, symObjAddr: 0xB76C, symBinAddr: 0x23B00, symSize: 0x48 }
  - { offset: 0x11F206, size: 0x8, addend: 0x0, symName: _llama_state_seq_get_data_ext, symObjAddr: 0xB7B4, symBinAddr: 0x23B48, symSize: 0x54 }
  - { offset: 0x11F2B6, size: 0x8, addend: 0x0, symName: _llama_state_seq_set_data, symObjAddr: 0xB808, symBinAddr: 0x23B9C, symSize: 0x48 }
  - { offset: 0x11F37C, size: 0x8, addend: 0x0, symName: _llama_state_seq_set_data_ext, symObjAddr: 0xB850, symBinAddr: 0x23BE4, symSize: 0x54 }
  - { offset: 0x11F3E1, size: 0x8, addend: 0x0, symName: _llama_state_seq_save_file, symObjAddr: 0xB8A4, symBinAddr: 0x23C38, symSize: 0xD0 }
  - { offset: 0x11F4BD, size: 0x8, addend: 0x0, symName: _llama_state_seq_load_file, symObjAddr: 0xB974, symBinAddr: 0x23D08, symSize: 0xD8 }
  - { offset: 0x11F5AF, size: 0x8, addend: 0x0, symName: _llama_encode, symObjAddr: 0xBA4C, symBinAddr: 0x23DE0, symSize: 0x4C }
  - { offset: 0x11F62A, size: 0x8, addend: 0x0, symName: _llama_decode, symObjAddr: 0xBA98, symBinAddr: 0x23E2C, symSize: 0x50 }
  - { offset: 0x11F6CA, size: 0x8, addend: 0x0, symName: _llama_perf_context, symObjAddr: 0xBAE8, symBinAddr: 0x23E7C, symSize: 0x5C }
  - { offset: 0x11F7F0, size: 0x8, addend: 0x0, symName: _llama_perf_context_print, symObjAddr: 0xBB44, symBinAddr: 0x23ED8, symSize: 0x190 }
  - { offset: 0x11FA24, size: 0x8, addend: 0x0, symName: _llama_perf_context_reset, symObjAddr: 0xBCD4, symBinAddr: 0x24068, symSize: 0x34 }
  - { offset: 0x120E6A, size: 0x8, addend: 0x0, symName: _llama_memory_breakdown_print, symObjAddr: 0xBD08, symBinAddr: 0x2409C, symSize: 0x1E74 }
  - { offset: 0x127A2C, size: 0x8, addend: 0x0, symName: __ZNSt3__128__exception_guard_exceptionsINS_6vectorINS_12basic_stringIcNS_11char_traitsIcEENS_9allocatorIcEEEENS5_IS7_EEE16__destroy_vectorEED1B9nqe210106Ev, symObjAddr: 0xFF04, symBinAddr: 0x27ABC, symSize: 0x80 }
  - { offset: 0x127A37, size: 0x8, addend: 0x0, symName: __ZNSt3__15arrayINS_12basic_stringIcNS_11char_traitsIcEENS_9allocatorIcEEEELm9EED2Ev, symObjAddr: 0xE5F0, symBinAddr: 0x266BC, symSize: 0x100 }
  - { offset: 0x127B72, size: 0x8, addend: 0x0, symName: __ZNSt3__16__treeIP24ggml_backend_buffer_typeNS_4lessIS2_EENS_9allocatorIS2_EEE7destroyEPNS_11__tree_nodeIS2_PvEE, symObjAddr: 0xFF84, symBinAddr: 0x27B3C, symSize: 0x44 }
  - { offset: 0x127C81, size: 0x8, addend: 0x0, symName: __ZNSt3__16vectorINS_5arrayINS_12basic_stringIcNS_11char_traitsIcEENS_9allocatorIcEEEELm9EEENS5_IS8_EEE20__throw_length_errorB9nqe210106Ev, symObjAddr: 0xFE64, symBinAddr: 0x27AA8, symSize: 0x14 }
  - { offset: 0x127CA4, size: 0x8, addend: 0x0, symName: __ZNSt3__16vectorI27llama_memory_breakdown_dataNS_9allocatorIS1_EEE20__throw_length_errorB9nqe210106Ev, symObjAddr: 0xFFC8, symBinAddr: 0x27B80, symSize: 0x14 }
  - { offset: 0x127CC7, size: 0x8, addend: 0x0, symName: __ZNSt3__128__exception_guard_exceptionsINS_6vectorINS_12basic_stringIcNS_11char_traitsIcEENS_9allocatorIcEEEENS5_IS7_EEE16__destroy_vectorEED1B9nqe210106Ev, symObjAddr: 0xFF04, symBinAddr: 0x27ABC, symSize: 0x80 }
  - { offset: 0x127F01, size: 0x8, addend: 0x0, symName: __ZNSt3__16vectorINS_12basic_stringIcNS_11char_traitsIcEENS_9allocatorIcEEEENS4_IS6_EEED1B9nqe210106Ev, symObjAddr: 0xDB7C, symBinAddr: 0x25F10, symSize: 0x70 }
  - { offset: 0x128129, size: 0x8, addend: 0x0, symName: __ZNSt3__16vectorINS_5arrayINS_12basic_stringIcNS_11char_traitsIcEENS_9allocatorIcEEEELm9EEENS5_IS8_EEED1B9nqe210106Ev, symObjAddr: 0xDBEC, symBinAddr: 0x25F80, symSize: 0x58 }
  - { offset: 0x1282B6, size: 0x8, addend: 0x0, symName: _llama_opt_param_filter_all, symObjAddr: 0xDC44, symBinAddr: 0x25FD8, symSize: 0x8 }
  - { offset: 0x1282F0, size: 0x8, addend: 0x0, symName: _llama_opt_init, symObjAddr: 0xDC4C, symBinAddr: 0x25FE0, symSize: 0x30 }
  - { offset: 0x12835A, size: 0x8, addend: 0x0, symName: _llama_opt_epoch, symObjAddr: 0xDC7C, symBinAddr: 0x26010, symSize: 0x4 }
  - { offset: 0x1283D7, size: 0x8, addend: 0x0, symName: _llama_opt_epoch, symObjAddr: 0xDC7C, symBinAddr: 0x26010, symSize: 0x4 }
  - { offset: 0x128C5E, size: 0x8, addend: 0x0, symName: __ZN20llama_io_write_dummyD0Ev, symObjAddr: 0xE034, symBinAddr: 0x26188, symSize: 0x4 }
  - { offset: 0x128C8A, size: 0x8, addend: 0x0, symName: __ZN20llama_io_write_dummy5writeEPKvm, symObjAddr: 0xE038, symBinAddr: 0x2618C, symSize: 0x10 }
  - { offset: 0x128CC8, size: 0x8, addend: 0x0, symName: __ZN20llama_io_write_dummy12write_tensorEPK11ggml_tensormm, symObjAddr: 0xE048, symBinAddr: 0x2619C, symSize: 0x10 }
  - { offset: 0x128D11, size: 0x8, addend: 0x0, symName: __ZN20llama_io_write_dummy7n_bytesEv, symObjAddr: 0xE058, symBinAddr: 0x261AC, symSize: 0x8 }
  - { offset: 0x128D38, size: 0x8, addend: 0x0, symName: __ZN21llama_io_write_bufferD0Ev, symObjAddr: 0xE060, symBinAddr: 0x261B4, symSize: 0x4 }
  - { offset: 0x128D64, size: 0x8, addend: 0x0, symName: __ZN21llama_io_write_buffer5writeEPKvm, symObjAddr: 0xE064, symBinAddr: 0x261B8, symSize: 0x84 }
  - { offset: 0x128DBF, size: 0x8, addend: 0x0, symName: __ZN21llama_io_write_buffer5writeEPKvm.cold.1, symObjAddr: 0x10070, symBinAddr: 0x291E30, symSize: 0xC }
  - { offset: 0x128DD7, size: 0x8, addend: 0x0, symName: __ZN21llama_io_write_buffer12write_tensorEPK11ggml_tensormm, symObjAddr: 0xE0E8, symBinAddr: 0x2623C, symSize: 0x8C }
  - { offset: 0x128E6D, size: 0x8, addend: 0x0, symName: __ZN21llama_io_write_buffer12write_tensorEPK11ggml_tensormm.cold.1, symObjAddr: 0x1007C, symBinAddr: 0x291E3C, symSize: 0xC }
  - { offset: 0x128E85, size: 0x8, addend: 0x0, symName: __ZN21llama_io_write_buffer7n_bytesEv, symObjAddr: 0xE174, symBinAddr: 0x262C8, symSize: 0x8 }
  - { offset: 0x128EAC, size: 0x8, addend: 0x0, symName: __ZN20llama_io_read_bufferD0Ev, symObjAddr: 0xE17C, symBinAddr: 0x262D0, symSize: 0x4 }
  - { offset: 0x128ED8, size: 0x8, addend: 0x0, symName: __ZN20llama_io_read_buffer4readEm, symObjAddr: 0xE180, symBinAddr: 0x262D4, symSize: 0x74 }
  - { offset: 0x128F33, size: 0x8, addend: 0x0, symName: __ZN20llama_io_read_buffer4readEm.cold.1, symObjAddr: 0x10088, symBinAddr: 0x291E48, symSize: 0xC }
  - { offset: 0x128F4B, size: 0x8, addend: 0x0, symName: __ZN20llama_io_read_buffer7read_toEPvm, symObjAddr: 0xE1F4, symBinAddr: 0x26348, symSize: 0x3C }
  - { offset: 0x128FAD, size: 0x8, addend: 0x0, symName: __ZN20llama_io_read_buffer7n_bytesEv, symObjAddr: 0xE230, symBinAddr: 0x26384, symSize: 0x8 }
  - { offset: 0x128FD4, size: 0x8, addend: 0x0, symName: __ZN18llama_io_read_fileD0Ev, symObjAddr: 0xE238, symBinAddr: 0x2638C, symSize: 0x44 }
  - { offset: 0x129004, size: 0x8, addend: 0x0, symName: __ZN18llama_io_read_fileD0Ev, symObjAddr: 0xE238, symBinAddr: 0x2638C, symSize: 0x44 }
  - { offset: 0x129022, size: 0x8, addend: 0x0, symName: __ZN18llama_io_read_fileD0Ev, symObjAddr: 0xE238, symBinAddr: 0x2638C, symSize: 0x44 }
  - { offset: 0x129595, size: 0x8, addend: 0x0, symName: __ZN18llama_io_read_file4readEm, symObjAddr: 0xE27C, symBinAddr: 0x263D0, symSize: 0x108 }
  - { offset: 0x129ABA, size: 0x8, addend: 0x0, symName: __ZN18llama_io_read_file7read_toEPvm, symObjAddr: 0xE384, symBinAddr: 0x264D8, symSize: 0x34 }
  - { offset: 0x129ADA, size: 0x8, addend: 0x0, symName: __ZN18llama_io_read_file7read_toEPvm, symObjAddr: 0xE384, symBinAddr: 0x264D8, symSize: 0x34 }
  - { offset: 0x129B21, size: 0x8, addend: 0x0, symName: __ZN18llama_io_read_file7n_bytesEv, symObjAddr: 0xE3B8, symBinAddr: 0x2650C, symSize: 0x8 }
  - { offset: 0x129BAD, size: 0x8, addend: 0x0, symName: __ZN19llama_io_write_fileD0Ev, symObjAddr: 0xE448, symBinAddr: 0x26514, symSize: 0x44 }
  - { offset: 0x129BDD, size: 0x8, addend: 0x0, symName: __ZN19llama_io_write_fileD0Ev, symObjAddr: 0xE448, symBinAddr: 0x26514, symSize: 0x44 }
  - { offset: 0x129BFB, size: 0x8, addend: 0x0, symName: __ZN19llama_io_write_fileD0Ev, symObjAddr: 0xE448, symBinAddr: 0x26514, symSize: 0x44 }
  - { offset: 0x129D25, size: 0x8, addend: 0x0, symName: __ZN19llama_io_write_file5writeEPKvm, symObjAddr: 0xE48C, symBinAddr: 0x26558, symSize: 0x34 }
  - { offset: 0x129D6C, size: 0x8, addend: 0x0, symName: __ZN19llama_io_write_file12write_tensorEPK11ggml_tensormm, symObjAddr: 0xE4C0, symBinAddr: 0x2658C, symSize: 0x130 }
  - { offset: 0x12A2DE, size: 0x8, addend: 0x0, symName: __ZNSt3__15arrayINS_12basic_stringIcNS_11char_traitsIcEENS_9allocatorIcEEEELm9EED2Ev, symObjAddr: 0xE5F0, symBinAddr: 0x266BC, symSize: 0x100 }
  - { offset: 0x12A7A2, size: 0x8, addend: 0x0, symName: __ZNSt3__120__shared_ptr_pointerIP18llama_adapter_cvecNS_14default_deleteIS1_EENS_9allocatorIS1_EEED1Ev, symObjAddr: 0xE7FC, symBinAddr: 0x268C8, symSize: 0x4 }
  - { offset: 0x12A7C4, size: 0x8, addend: 0x0, symName: __ZNSt3__120__shared_ptr_pointerIP18llama_adapter_cvecNS_14default_deleteIS1_EENS_9allocatorIS1_EEED1Ev, symObjAddr: 0xE7FC, symBinAddr: 0x268C8, symSize: 0x4 }
  - { offset: 0x12A7FE, size: 0x8, addend: 0x0, symName: __ZNSt3__120__shared_ptr_pointerIP18llama_adapter_cvecNS_14default_deleteIS1_EENS_9allocatorIS1_EEED0Ev, symObjAddr: 0xE800, symBinAddr: 0x268CC, symSize: 0x14 }
  - { offset: 0x12A861, size: 0x8, addend: 0x0, symName: __ZNSt3__120__shared_ptr_pointerIP18llama_adapter_cvecNS_14default_deleteIS1_EENS_9allocatorIS1_EEE16__on_zero_sharedEv, symObjAddr: 0xE814, symBinAddr: 0x268E0, symSize: 0x20 }
  - { offset: 0x12A927, size: 0x8, addend: 0x0, symName: __ZNKSt3__120__shared_ptr_pointerIP18llama_adapter_cvecNS_14default_deleteIS1_EENS_9allocatorIS1_EEE13__get_deleterERKSt9type_info, symObjAddr: 0xE834, symBinAddr: 0x26900, symSize: 0x70 }
  - { offset: 0x12AA36, size: 0x8, addend: 0x0, symName: __ZNSt3__120__shared_ptr_pointerIP18llama_adapter_cvecNS_14default_deleteIS1_EENS_9allocatorIS1_EEE21__on_zero_shared_weakEv, symObjAddr: 0xE8A4, symBinAddr: 0x26970, symSize: 0x4 }
  - { offset: 0x12AA68, size: 0x8, addend: 0x0, symName: __ZNSt3__120__shared_ptr_pointerIP18llama_adapter_cvecNS_14default_deleteIS1_EENS_9allocatorIS1_EEE21__on_zero_shared_weakEv, symObjAddr: 0xE8A4, symBinAddr: 0x26970, symSize: 0x4 }
  - { offset: 0x12AA8A, size: 0x8, addend: 0x0, symName: __ZNSt3__120__shared_ptr_pointerIP18llama_adapter_cvecNS_14default_deleteIS1_EENS_9allocatorIS1_EEE21__on_zero_shared_weakEv, symObjAddr: 0xE8A4, symBinAddr: 0x26970, symSize: 0x4 }
  - { offset: 0x12B2C9, size: 0x8, addend: 0x0, symName: __ZNSt3__112__hash_tableINS_17__hash_value_typeIP18llama_adapter_lorafEENS_22__unordered_map_hasherIS3_NS_4pairIKS3_fEENS_4hashIS3_EENS_8equal_toIS3_EELb1EEENS_21__unordered_map_equalIS3_S8_SC_SA_Lb1EEENS_9allocatorIS8_EEE11__do_rehashILb1EEEvm, symObjAddr: 0xF200, symBinAddr: 0x27178, symSize: 0x18C }
  - { offset: 0x12B600, size: 0x8, addend: 0x0, symName: __ZNSt3__112__hash_tableINS_17__hash_value_typeIP18llama_adapter_lorafEENS_22__unordered_map_hasherIS3_NS_4pairIKS3_fEENS_4hashIS3_EENS_8equal_toIS3_EELb1EEENS_21__unordered_map_equalIS3_S8_SC_SA_Lb1EEENS_9allocatorIS8_EEE4findIS3_EENS_15__hash_iteratorIPNS_11__hash_nodeIS4_PvEEEERKT_, symObjAddr: 0xF38C, symBinAddr: 0x27304, symSize: 0x120 }
  - { offset: 0x12BF05, size: 0x8, addend: 0x0, symName: __ZNSt3__16__treeINS_12__value_typeIijEENS_19__map_value_compareIiNS_4pairIKijEENS_4lessIiEELb1EEENS_9allocatorIS6_EEE7destroyEPNS_11__tree_nodeIS2_PvEE, symObjAddr: 0xF7E0, symBinAddr: 0x27424, symSize: 0x44 }
  - { offset: 0x12C2FF, size: 0x8, addend: 0x0, symName: __ZNSt3__16vectorIjNS_9allocatorIjEEE20__throw_length_errorB9nqe210106Ev, symObjAddr: 0xF950, symBinAddr: 0x27594, symSize: 0x14 }
  - { offset: 0x12C317, size: 0x8, addend: 0x0, symName: __ZNSt3__13mapIiP13llama_samplerNS_4lessIiEENS_9allocatorINS_4pairIKiS2_EEEEE6insertB9nqe210106INS_20__map_const_iteratorINS_21__tree_const_iteratorINS_12__value_typeIiS2_EEPNS_11__tree_nodeISF_PvEElEEEEEEvT_SM_, symObjAddr: 0xF964, symBinAddr: 0x275A8, symSize: 0xF4 }
  - { offset: 0x12C5B1, size: 0x8, addend: 0x0, symName: __ZNSt3__16__treeINS_12__value_typeIiP13llama_samplerEENS_19__map_value_compareIiNS_4pairIKiS3_EENS_4lessIiEELb1EEENS_9allocatorIS8_EEE12__find_equalIiEERPNS_16__tree_node_baseIPvEENS_21__tree_const_iteratorIS4_PNS_11__tree_nodeIS4_SH_EElEERPNS_15__tree_end_nodeISJ_EESK_RKT_, symObjAddr: 0xFA58, symBinAddr: 0x2769C, symSize: 0x1A0 }
  - { offset: 0x12C612, size: 0x8, addend: 0x0, symName: __ZNSt3__16__treeINS_12__value_typeIiP13llama_samplerEENS_19__map_value_compareIiNS_4pairIKiS3_EENS_4lessIiEELb1EEENS_9allocatorIS8_EEE12__find_equalIiEERPNS_16__tree_node_baseIPvEENS_21__tree_const_iteratorIS4_PNS_11__tree_nodeIS4_SH_EElEERPNS_15__tree_end_nodeISJ_EESK_RKT_, symObjAddr: 0xFA58, symBinAddr: 0x2769C, symSize: 0x1A0 }
  - { offset: 0x12C62E, size: 0x8, addend: 0x0, symName: __ZNSt3__16__treeINS_12__value_typeIiP13llama_samplerEENS_19__map_value_compareIiNS_4pairIKiS3_EENS_4lessIiEELb1EEENS_9allocatorIS8_EEE12__find_equalIiEERPNS_16__tree_node_baseIPvEENS_21__tree_const_iteratorIS4_PNS_11__tree_nodeIS4_SH_EElEERPNS_15__tree_end_nodeISJ_EESK_RKT_, symObjAddr: 0xFA58, symBinAddr: 0x2769C, symSize: 0x1A0 }
  - { offset: 0x12C9D6, size: 0x8, addend: 0x0, symName: '__ZNSt3__110__function6__funcIZNK13llama_context12graph_get_cbEvE3$_0FvRK12llama_ubatchP11ggml_tensorPKciEED1Ev', symObjAddr: 0xFBF8, symBinAddr: 0x2783C, symSize: 0x4 }
  - { offset: 0x12CA05, size: 0x8, addend: 0x0, symName: '__ZNSt3__110__function6__funcIZNK13llama_context12graph_get_cbEvE3$_0FvRK12llama_ubatchP11ggml_tensorPKciEED0Ev', symObjAddr: 0xFBFC, symBinAddr: 0x27840, symSize: 0x4 }
  - { offset: 0x12CA7A, size: 0x8, addend: 0x0, symName: '__ZNKSt3__110__function6__funcIZNK13llama_context12graph_get_cbEvE3$_0FvRK12llama_ubatchP11ggml_tensorPKciEE7__cloneEv', symObjAddr: 0xFC00, symBinAddr: 0x27844, symSize: 0x34 }
  - { offset: 0x12CAD9, size: 0x8, addend: 0x0, symName: '__ZNKSt3__110__function6__funcIZNK13llama_context12graph_get_cbEvE3$_0FvRK12llama_ubatchP11ggml_tensorPKciEE7__cloneEPNS0_6__baseISB_EE', symObjAddr: 0xFC34, symBinAddr: 0x27878, symSize: 0x14 }
  - { offset: 0x12CB44, size: 0x8, addend: 0x0, symName: '__ZNSt3__110__function6__funcIZNK13llama_context12graph_get_cbEvE3$_0FvRK12llama_ubatchP11ggml_tensorPKciEE7destroyEv', symObjAddr: 0xFC48, symBinAddr: 0x2788C, symSize: 0x4 }
  - { offset: 0x12CB67, size: 0x8, addend: 0x0, symName: '__ZNSt3__110__function6__funcIZNK13llama_context12graph_get_cbEvE3$_0FvRK12llama_ubatchP11ggml_tensorPKciEE18destroy_deallocateEv', symObjAddr: 0xFC4C, symBinAddr: 0x27890, symSize: 0x14 }
  - { offset: 0x12CCAD, size: 0x8, addend: 0x0, symName: '__ZNSt3__110__function6__funcIZNK13llama_context12graph_get_cbEvE3$_0FvRK12llama_ubatchP11ggml_tensorPKciEEclES6_OS8_OSA_Oi', symObjAddr: 0xFC60, symBinAddr: 0x278A4, symSize: 0x110 }
  - { offset: 0x12CF4A, size: 0x8, addend: 0x0, symName: '__ZNKSt3__110__function6__funcIZNK13llama_context12graph_get_cbEvE3$_0FvRK12llama_ubatchP11ggml_tensorPKciEE6targetERKSt9type_info', symObjAddr: 0xFD70, symBinAddr: 0x279B4, symSize: 0x60 }
  - { offset: 0x12CFFD, size: 0x8, addend: 0x0, symName: '__ZNKSt3__110__function6__funcIZNK13llama_context12graph_get_cbEvE3$_0FvRK12llama_ubatchP11ggml_tensorPKciEE11target_typeEv', symObjAddr: 0xFDD0, symBinAddr: 0x27A14, symSize: 0xC }
  - { offset: 0x12D1C9, size: 0x8, addend: 0x0, symName: _OUTLINED_FUNCTION_0, symObjAddr: 0x10094, symBinAddr: 0x27B94, symSize: 0x14 }
  - { offset: 0x12EFEC, size: 0x8, addend: 0x0, symName: _llama_max_parallel_sequences, symObjAddr: 0x0, symBinAddr: 0x27BA8, symSize: 0x8 }
  - { offset: 0x12EFFA, size: 0x8, addend: 0x0, symName: _llama_max_parallel_sequences, symObjAddr: 0x0, symBinAddr: 0x27BA8, symSize: 0x8 }
  - { offset: 0x12F150, size: 0x8, addend: 0x0, symName: __ZNK29llama_grammar_trigger_pattern4findERKNSt3__112basic_stringIcNS0_11char_traitsIcEENS0_9allocatorIcEEEE, symObjAddr: 0x0, symBinAddr: 0x27BB0, symSize: 0x3A0 }
  - { offset: 0x158101, size: 0x8, addend: 0x0, symName: __ZNSt3__135__uninitialized_allocator_copy_implB9nqe210106INS_9allocatorINS_6vectorI21llama_grammar_elementNS1_IS3_EEEEEEPS5_S7_S7_EET2_RT_T0_T1_S8_, symObjAddr: 0x169E0, symBinAddr: 0x3E0B8, symSize: 0xF8 }
  - { offset: 0x158641, size: 0x8, addend: 0x0, symName: __ZNSt3__135__uninitialized_allocator_copy_implB9nqe210106INS_9allocatorINS_6vectorIPK21llama_grammar_elementNS1_IS5_EEEEEEPS7_S9_S9_EET2_RT_T0_T1_SA_, symObjAddr: 0x16BC8, symBinAddr: 0x3E2A0, symSize: 0xF8 }
  - { offset: 0x159AE7, size: 0x8, addend: 0x0, symName: __ZNSt3__119__throw_regex_errorB9nqe210106ILNS_15regex_constants10error_typeE12EEEvv, symObjAddr: 0xC738, symBinAddr: 0x33F34, symSize: 0x4C }
  - { offset: 0x159B0D, size: 0x8, addend: 0x0, symName: __ZNSt3__119__throw_regex_errorB9nqe210106ILNS_15regex_constants10error_typeE16EEEvv, symObjAddr: 0xC784, symBinAddr: 0x33F80, symSize: 0x4C }
  - { offset: 0x15B2EE, size: 0x8, addend: 0x0, symName: __ZNSt3__134__uninitialized_allocator_relocateB9nqe210106INS_9allocatorI29llama_grammar_trigger_patternEEPS2_EEvRT_T0_S7_S7_, symObjAddr: 0xEE9C, symBinAddr: 0x36684, symSize: 0xFC }
  - { offset: 0x15B349, size: 0x8, addend: 0x0, symName: __ZNSt3__134__uninitialized_allocator_relocateB9nqe210106INS_9allocatorI29llama_grammar_trigger_patternEEPS2_EEvRT_T0_S7_S7_, symObjAddr: 0xEE9C, symBinAddr: 0x36684, symSize: 0xFC }
  - { offset: 0x15B7BE, size: 0x8, addend: 0x0, symName: __ZNSt3__119__throw_regex_errorB9nqe210106ILNS_15regex_constants10error_typeE17EEEvv, symObjAddr: 0xF32C, symBinAddr: 0x36B14, symSize: 0x4C }
  - { offset: 0x15BBA7, size: 0x8, addend: 0x0, symName: __ZNSt3__119__throw_regex_errorB9nqe210106ILNS_15regex_constants10error_typeE14EEEvv, symObjAddr: 0xFBC4, symBinAddr: 0x373AC, symSize: 0x4C }
  - { offset: 0x15BBCD, size: 0x8, addend: 0x0, symName: __ZNSt3__119__throw_regex_errorB9nqe210106ILNS_15regex_constants10error_typeE15EEEvv, symObjAddr: 0x15E80, symBinAddr: 0x3D5E4, symSize: 0x4C }
  - { offset: 0x15BEFF, size: 0x8, addend: 0x0, symName: __ZNSt3__119__throw_regex_errorB9nqe210106ILNS_15regex_constants10error_typeE6EEEvv, symObjAddr: 0x10854, symBinAddr: 0x3803C, symSize: 0x4C }
  - { offset: 0x15BF25, size: 0x8, addend: 0x0, symName: __ZNSt3__119__throw_regex_errorB9nqe210106ILNS_15regex_constants10error_typeE11EEEvv, symObjAddr: 0x11208, symBinAddr: 0x389F0, symSize: 0x4C }
  - { offset: 0x15BF69, size: 0x8, addend: 0x0, symName: __ZNSt3__119__throw_regex_errorB9nqe210106ILNS_15regex_constants10error_typeE7EEEvv, symObjAddr: 0x158C4, symBinAddr: 0x3D028, symSize: 0x4C }
  - { offset: 0x15BF8F, size: 0x8, addend: 0x0, symName: __ZNSt3__119__throw_regex_errorB9nqe210106ILNS_15regex_constants10error_typeE8EEEvv, symObjAddr: 0x15878, symBinAddr: 0x3CFDC, symSize: 0x4C }
  - { offset: 0x15BFDA, size: 0x8, addend: 0x0, symName: __ZNSt3__119__throw_regex_errorB9nqe210106ILNS_15regex_constants10error_typeE4EEEvv, symObjAddr: 0x11B60, symBinAddr: 0x39348, symSize: 0x4C }
  - { offset: 0x15C000, size: 0x8, addend: 0x0, symName: __ZNSt3__119__throw_regex_errorB9nqe210106ILNS_15regex_constants10error_typeE3EEEvv, symObjAddr: 0x11360, symBinAddr: 0x38B48, symSize: 0x4C }
  - { offset: 0x15C026, size: 0x8, addend: 0x0, symName: __ZNSt3__119__throw_regex_errorB9nqe210106ILNS_15regex_constants10error_typeE5EEEvv, symObjAddr: 0x136E8, symBinAddr: 0x3AE4C, symSize: 0x4C }
  - { offset: 0x15C82B, size: 0x8, addend: 0x0, symName: __ZNSt3__119__throw_regex_errorB9nqe210106ILNS_15regex_constants10error_typeE1EEEvv, symObjAddr: 0x149A0, symBinAddr: 0x3C104, symSize: 0x4C }
  - { offset: 0x15C851, size: 0x8, addend: 0x0, symName: __ZNSt3__119__throw_regex_errorB9nqe210106ILNS_15regex_constants10error_typeE2EEEvv, symObjAddr: 0x14F84, symBinAddr: 0x3C6E8, symSize: 0x4C }
  - { offset: 0x15C8B3, size: 0x8, addend: 0x0, symName: __ZNSt3__119__throw_regex_errorB9nqe210106ILNS_15regex_constants10error_typeE9EEEvv, symObjAddr: 0x15540, symBinAddr: 0x3CCA4, symSize: 0x4C }
  - { offset: 0x15E54E, size: 0x8, addend: 0x0, symName: __ZL11decode_utf8RKNSt3__112basic_stringIcNS_11char_traitsIcEENS_9allocatorIcEEEE18llama_partial_utf8, symObjAddr: 0x8B50, symBinAddr: 0x30658, symSize: 0x480 }
  - { offset: 0x15E578, size: 0x8, addend: 0x0, symName: __ZZL11decode_utf8RKNSt3__112basic_stringIcNS_11char_traitsIcEENS_9allocatorIcEEEE18llama_partial_utf8E6lookup, symObjAddr: 0x181B4, symBinAddr: 0x2D63AC, symSize: 0x0 }
  - { offset: 0x15F899, size: 0x8, addend: 0x0, symName: __ZTVNSt3__111__end_stateIcEE, symObjAddr: 0x18D40, symBinAddr: 0x312F10, symSize: 0x0 }
  - { offset: 0x15F8C5, size: 0x8, addend: 0x0, symName: __ZTVNSt3__120__shared_ptr_pointerIPNS_13__empty_stateIcEENS_10shared_ptrIS2_E27__shared_ptr_default_deleteIS2_S2_EENS_9allocatorIS2_EEEE, symObjAddr: 0x18D98, symBinAddr: 0x312F68, symSize: 0x0 }
  - { offset: 0x15F9A5, size: 0x8, addend: 0x0, symName: __ZTVNSt3__113__empty_stateIcEE, symObjAddr: 0x18DE8, symBinAddr: 0x312FB8, symSize: 0x0 }
  - { offset: 0x15F9BA, size: 0x8, addend: 0x0, symName: __ZTVNSt3__116__owns_one_stateIcEE, symObjAddr: 0x18E60, symBinAddr: 0x313030, symSize: 0x0 }
  - { offset: 0x15F9CF, size: 0x8, addend: 0x0, symName: __ZTVNSt3__120__l_anchor_multilineIcEE, symObjAddr: 0x18E90, symBinAddr: 0x313060, symSize: 0x0 }
  - { offset: 0x15F9FB, size: 0x8, addend: 0x0, symName: __ZTVNSt3__120__r_anchor_multilineIcEE, symObjAddr: 0x18ED8, symBinAddr: 0x3130A8, symSize: 0x0 }
  - { offset: 0x15FA27, size: 0x8, addend: 0x0, symName: __ZTVNSt3__115__word_boundaryIcNS_12regex_traitsIcEEEE, symObjAddr: 0x18F20, symBinAddr: 0x3130F0, symSize: 0x0 }
  - { offset: 0x15FB2D, size: 0x8, addend: 0x0, symName: __ZTVNSt3__111__lookaheadIcNS_12regex_traitsIcEEEE, symObjAddr: 0x18F68, symBinAddr: 0x313138, symSize: 0x0 }
  - { offset: 0x15FF04, size: 0x8, addend: 0x0, symName: __ZTVNSt3__123__match_any_but_newlineIcEE, symObjAddr: 0x18FB0, symBinAddr: 0x313180, symSize: 0x0 }
  - { offset: 0x15FF30, size: 0x8, addend: 0x0, symName: __ZTVNSt3__118__match_char_icaseIcNS_12regex_traitsIcEEEE, symObjAddr: 0x18FF8, symBinAddr: 0x3131C8, symSize: 0x0 }
  - { offset: 0x15FF68, size: 0x8, addend: 0x0, symName: __ZTVNSt3__120__match_char_collateIcNS_12regex_traitsIcEEEE, symObjAddr: 0x19040, symBinAddr: 0x313210, symSize: 0x0 }
  - { offset: 0x15FFA0, size: 0x8, addend: 0x0, symName: __ZTVNSt3__112__match_charIcEE, symObjAddr: 0x19088, symBinAddr: 0x313258, symSize: 0x0 }
  - { offset: 0x15FFD8, size: 0x8, addend: 0x0, symName: __ZTVNSt3__116__back_ref_icaseIcNS_12regex_traitsIcEEEE, symObjAddr: 0x190D0, symBinAddr: 0x3132A0, symSize: 0x0 }
  - { offset: 0x160004, size: 0x8, addend: 0x0, symName: __ZTVNSt3__118__back_ref_collateIcNS_12regex_traitsIcEEEE, symObjAddr: 0x19118, symBinAddr: 0x3132E8, symSize: 0x0 }
  - { offset: 0x160030, size: 0x8, addend: 0x0, symName: __ZTVNSt3__110__back_refIcEE, symObjAddr: 0x19160, symBinAddr: 0x313330, symSize: 0x0 }
  - { offset: 0x16005C, size: 0x8, addend: 0x0, symName: __ZTVNSt3__120__bracket_expressionIcNS_12regex_traitsIcEEEE, symObjAddr: 0x191A8, symBinAddr: 0x313378, symSize: 0x0 }
  - { offset: 0x160071, size: 0x8, addend: 0x0, symName: __ZTVNSt3__128__begin_marked_subexpressionIcEE, symObjAddr: 0x191F0, symBinAddr: 0x3133C0, symSize: 0x0 }
  - { offset: 0x16009D, size: 0x8, addend: 0x0, symName: __ZTVNSt3__126__end_marked_subexpressionIcEE, symObjAddr: 0x19238, symBinAddr: 0x313408, symSize: 0x0 }
  - { offset: 0x1600C9, size: 0x8, addend: 0x0, symName: __ZTVNSt3__16__loopIcEE, symObjAddr: 0x19280, symBinAddr: 0x313450, symSize: 0x0 }
  - { offset: 0x160112, size: 0x8, addend: 0x0, symName: __ZTVNSt3__117__owns_two_statesIcEE, symObjAddr: 0x192E0, symBinAddr: 0x3134B0, symSize: 0x0 }
  - { offset: 0x160127, size: 0x8, addend: 0x0, symName: __ZTVNSt3__117__repeat_one_loopIcEE, symObjAddr: 0x19310, symBinAddr: 0x3134E0, symSize: 0x0 }
  - { offset: 0x160153, size: 0x8, addend: 0x0, symName: __ZTVNSt3__111__alternateIcEE, symObjAddr: 0x19358, symBinAddr: 0x313528, symSize: 0x0 }
  - { offset: 0x16017F, size: 0x8, addend: 0x0, symName: __ZTVNSt3__121__empty_non_own_stateIcEE, symObjAddr: 0x193A0, symBinAddr: 0x313570, symSize: 0x0 }
  - { offset: 0x1601AB, size: 0x8, addend: 0x0, symName: __ZTVNSt3__111__match_anyIcEE, symObjAddr: 0x193E8, symBinAddr: 0x3135B8, symSize: 0x0 }
  - { offset: 0x160A10, size: 0x8, addend: 0x0, symName: __ZL27llama_grammar_advance_stackRKNSt3__16vectorINS0_I21llama_grammar_elementNS_9allocatorIS1_EEEENS2_IS4_EEEERKNS0_IPKS1_NS2_ISA_EEEERNS0_ISC_NS2_ISC_EEEE, symObjAddr: 0x5DBC, symBinAddr: 0x2D8C4, symSize: 0x918 }
  - { offset: 0x164423, size: 0x8, addend: 0x0, symName: __ZNK29llama_grammar_trigger_pattern4findERKNSt3__112basic_stringIcNS0_11char_traitsIcEENS0_9allocatorIcEEEE, symObjAddr: 0x0, symBinAddr: 0x27BB0, symSize: 0x3A0 }
  - { offset: 0x1658D2, size: 0x8, addend: 0x0, symName: __ZNKSt3__111basic_regexIcNS_12regex_traitsIcEEE8__searchINS_9allocatorINS_9sub_matchIPKcEEEEEEbS8_S8_RNS_13match_resultsIS8_T_EENS_15regex_constants15match_flag_typeE, symObjAddr: 0xADE0, symBinAddr: 0x325DC, symSize: 0x308 }
  - { offset: 0x165E2D, size: 0x8, addend: 0x0, symName: __ZNSt3__113match_resultsINS_11__wrap_iterIPKcEENS_9allocatorINS_9sub_matchIS4_EEEEE8__assignB9nqe210106IS3_NS5_INS6_IS3_EEEEEEvS4_S4_RKNS0_IT_T0_EEb, symObjAddr: 0xB0E8, symBinAddr: 0x328E4, symSize: 0x174 }
  - { offset: 0x1671AC, size: 0x8, addend: 0x0, symName: __ZN20llama_grammar_parser13get_symbol_idEPKcm, symObjAddr: 0x3A0, symBinAddr: 0x27F50, symSize: 0x108 }
  - { offset: 0x16764F, size: 0x8, addend: 0x0, symName: __ZNSt3__16__treeINS_12__value_typeINS_12basic_stringIcNS_11char_traitsIcEENS_9allocatorIcEEEEjEENS_19__map_value_compareIS7_NS_4pairIKS7_jEENS_4lessIS7_EELb1EEENS5_ISC_EEE25__emplace_unique_key_argsIS7_JS7_RjEEENSA_INS_15__tree_iteratorIS8_PNS_11__tree_nodeIS8_PvEElEEbEERKT_DpOT0_, symObjAddr: 0xE4E4, symBinAddr: 0x35CE0, symSize: 0x180 }
  - { offset: 0x167BF5, size: 0x8, addend: 0x0, symName: __ZNKSt3__111basic_regexIcNS_12regex_traitsIcEEE8__searchINS_9allocatorINS_9sub_matchIPKcEEEEEEbS8_S8_RNS_13match_resultsIS8_T_EENS_15regex_constants15match_flag_typeE, symObjAddr: 0xADE0, symBinAddr: 0x325DC, symSize: 0x308 }
  - { offset: 0x167C00, size: 0x8, addend: 0x0, symName: __ZNSt3__112basic_stringIcNS_11char_traitsIcEENS_9allocatorIcEEEC1B9nqe210106EPKcm, symObjAddr: 0x4A8, symBinAddr: 0x28058, symSize: 0xAC }
  - { offset: 0x167E14, size: 0x8, addend: 0x0, symName: __ZN20llama_grammar_parser18generate_symbol_idERKNSt3__112basic_stringIcNS0_11char_traitsIcEENS0_9allocatorIcEEEE, symObjAddr: 0x554, symBinAddr: 0x28104, symSize: 0x1FC }
  - { offset: 0x167F78, size: 0x8, addend: 0x0, symName: __ZN20llama_grammar_parser18generate_symbol_idERKNSt3__112basic_stringIcNS0_11char_traitsIcEENS0_9allocatorIcEEEE, symObjAddr: 0x554, symBinAddr: 0x28104, symSize: 0x1FC }
  - { offset: 0x168910, size: 0x8, addend: 0x0, symName: __ZNSt3__16__treeINS_12__value_typeINS_12basic_stringIcNS_11char_traitsIcEENS_9allocatorIcEEEEjEENS_19__map_value_compareIS7_NS_4pairIKS7_jEENS_4lessIS7_EELb1EEENS5_ISC_EEE25__emplace_unique_key_argsIS7_JRKNS_21piecewise_construct_tENS_5tupleIJOS7_EEENSM_IJEEEEEENSA_INS_15__tree_iteratorIS8_PNS_11__tree_nodeIS8_PvEElEEbEERKT_DpOT0_, symObjAddr: 0xE664, symBinAddr: 0x35E60, symSize: 0x174 }
  - { offset: 0x16914A, size: 0x8, addend: 0x0, symName: __ZN20llama_grammar_parser8add_ruleEjRKNSt3__16vectorI21llama_grammar_elementNS0_9allocatorIS2_EEEE, symObjAddr: 0x750, symBinAddr: 0x28300, symSize: 0xE4 }
  - { offset: 0x16942B, size: 0x8, addend: 0x0, symName: __ZNSt3__16vectorINS0_I21llama_grammar_elementNS_9allocatorIS1_EEEENS2_IS4_EEE8__appendEm, symObjAddr: 0xE7D8, symBinAddr: 0x35FD4, symSize: 0x17C }
  - { offset: 0x16983A, size: 0x8, addend: 0x0, symName: __ZNSt3__16vectorINS0_I21llama_grammar_elementNS_9allocatorIS1_EEEENS2_IS4_EEE20__throw_length_errorB9nqe210106Ev, symObjAddr: 0xE954, symBinAddr: 0x36150, symSize: 0x14 }
  - { offset: 0x169845, size: 0x8, addend: 0x0, symName: __ZNSt3__16vectorI21llama_grammar_elementNS_9allocatorIS1_EEE18__assign_with_sizeB9nqe210106IPS1_S6_EEvT_T0_l, symObjAddr: 0xE968, symBinAddr: 0x36164, symSize: 0x148 }
  - { offset: 0x16A1F8, size: 0x8, addend: 0x0, symName: __ZNSt3__16__treeINS_12__value_typeIjNS_12basic_stringIcNS_11char_traitsIcEENS_9allocatorIcEEEEEENS_19__map_value_compareIjNS_4pairIKjS7_EENS_4lessIjEELb1EEENS5_ISC_EEE7destroyEPNS_11__tree_nodeIS8_PvEE, symObjAddr: 0xEAB0, symBinAddr: 0x362AC, symSize: 0x60 }
  - { offset: 0x16A5BB, size: 0x8, addend: 0x0, symName: __ZN20llama_grammar_parser16parse_alternatesEPKcRKNSt3__112basic_stringIcNS2_11char_traitsIcEENS2_9allocatorIcEEEEjb, symObjAddr: 0x834, symBinAddr: 0x283E4, symSize: 0x344 }
  - { offset: 0x16B324, size: 0x8, addend: 0x0, symName: __ZN20llama_grammar_parser14parse_sequenceEPKcRKNSt3__112basic_stringIcNS2_11char_traitsIcEENS2_9allocatorIcEEEERNS2_6vectorI21llama_grammar_elementNS6_ISC_EEEEb, symObjAddr: 0xB78, symBinAddr: 0x28728, symSize: 0x1E94 }
  - { offset: 0x16EAAB, size: 0x8, addend: 0x0, symName: __ZNSt3__16vectorI21llama_grammar_elementNS_9allocatorIS1_EEE20__throw_length_errorB9nqe210106Ev, symObjAddr: 0xA0A0, symBinAddr: 0x31BA8, symSize: 0x14 }
  - { offset: 0x16EC4E, size: 0x8, addend: 0x0, symName: __ZL10parse_charPKc, symObjAddr: 0x2A0C, symBinAddr: 0x2A5BC, symSize: 0x270 }
  - { offset: 0x16EF34, size: 0x8, addend: 0x0, symName: __ZL9parse_intPKc, symObjAddr: 0x3674, symBinAddr: 0x2B17C, symSize: 0x13C }
  - { offset: 0x16F1A2, size: 0x8, addend: 0x0, symName: __ZL10parse_namePKc, symObjAddr: 0x2C7C, symBinAddr: 0x2A82C, symSize: 0x154 }
  - { offset: 0x16F434, size: 0x8, addend: 0x0, symName: '__ZZN20llama_grammar_parser14parse_sequenceEPKcRKNSt3__112basic_stringIcNS2_11char_traitsIcEENS2_9allocatorIcEEEERNS2_6vectorI21llama_grammar_elementNS6_ISC_EEEEbENK3$_0clEyy', symObjAddr: 0x2E78, symBinAddr: 0x2A980, symSize: 0x7FC }
  - { offset: 0x171397, size: 0x8, addend: 0x0, symName: '__ZZN20llama_grammar_parser14parse_sequenceEPKcRKNSt3__112basic_stringIcNS2_11char_traitsIcEENS2_9allocatorIcEEEERNS2_6vectorI21llama_grammar_elementNS6_ISC_EEEEbENK3$_0clEyy', symObjAddr: 0x2E78, symBinAddr: 0x2A980, symSize: 0x7FC }
  - { offset: 0x1713A2, size: 0x8, addend: 0x0, symName: __ZN20llama_grammar_parser14parse_sequenceEPKcRKNSt3__112basic_stringIcNS2_11char_traitsIcEENS2_9allocatorIcEEEERNS2_6vectorI21llama_grammar_elementNS6_ISC_EEEEb.cold.3, symObjAddr: 0x170D0, symBinAddr: 0x291E6C, symSize: 0xC }
  - { offset: 0x1713BA, size: 0x8, addend: 0x0, symName: __ZN20llama_grammar_parser14parse_sequenceEPKcRKNSt3__112basic_stringIcNS2_11char_traitsIcEENS2_9allocatorIcEEEERNS2_6vectorI21llama_grammar_elementNS6_ISC_EEEEb.cold.1, symObjAddr: 0x170B8, symBinAddr: 0x291E54, symSize: 0xC }
  - { offset: 0x1713D2, size: 0x8, addend: 0x0, symName: __ZN20llama_grammar_parser14parse_sequenceEPKcRKNSt3__112basic_stringIcNS2_11char_traitsIcEENS2_9allocatorIcEEEERNS2_6vectorI21llama_grammar_elementNS6_ISC_EEEEb.cold.2, symObjAddr: 0x170C4, symBinAddr: 0x291E60, symSize: 0xC }
  - { offset: 0x171454, size: 0x8, addend: 0x0, symName: __ZL9parse_hexPKci, symObjAddr: 0x9E64, symBinAddr: 0x3196C, symSize: 0x23C }
  - { offset: 0x17199A, size: 0x8, addend: 0x0, symName: __ZL10parse_charPKc.cold.1, symObjAddr: 0x170DC, symBinAddr: 0x291E78, symSize: 0xC }
  - { offset: 0x17200C, size: 0x8, addend: 0x0, symName: __ZNSt3__16vectorI21llama_grammar_elementNS_9allocatorIS1_EEE18__insert_with_sizeB9nqe210106INS_11__wrap_iterIPS1_EES8_EES8_NS6_IPKS1_EET_T0_l, symObjAddr: 0xA268, symBinAddr: 0x31CD4, symSize: 0x40C }
  - { offset: 0x172B5A, size: 0x8, addend: 0x0, symName: __ZNSt3__16vectorI21llama_grammar_elementNS_9allocatorIS1_EEE8__appendEm, symObjAddr: 0xA150, symBinAddr: 0x31BBC, symSize: 0x118 }
  - { offset: 0x172F9D, size: 0x8, addend: 0x0, symName: __ZNSt3__16vectorI21llama_grammar_elementNS_9allocatorIS1_EEE18__insert_with_sizeB9nqe210106INS_11__wrap_iterIPS1_EES8_EES8_NS6_IPKS1_EET_T0_l, symObjAddr: 0xA268, symBinAddr: 0x31CD4, symSize: 0x40C }
  - { offset: 0x172FC2, size: 0x8, addend: 0x0, symName: __ZN20llama_grammar_parser10parse_ruleEPKc, symObjAddr: 0x37B0, symBinAddr: 0x2B2B8, symSize: 0x454 }
  - { offset: 0x173A96, size: 0x8, addend: 0x0, symName: __ZN20llama_grammar_parser5parseEPKc, symObjAddr: 0x3C04, symBinAddr: 0x2B70C, symSize: 0x364 }
  - { offset: 0x1748E7, size: 0x8, addend: 0x0, symName: __ZN20llama_grammar_parser5printEP7__sFILE, symObjAddr: 0x3F68, symBinAddr: 0x2BA70, symSize: 0x9D0 }
  - { offset: 0x1762C8, size: 0x8, addend: 0x0, symName: __ZNSt3__16__treeINS_12__value_typeIjNS_12basic_stringIcNS_11char_traitsIcEENS_9allocatorIcEEEEEENS_19__map_value_compareIjNS_4pairIKjS7_EENS_4lessIjEELb1EEENS5_ISC_EEE7destroyEPNS_11__tree_nodeIS8_PvEE, symObjAddr: 0xEAB0, symBinAddr: 0x362AC, symSize: 0x60 }
  - { offset: 0x176985, size: 0x8, addend: 0x0, symName: __ZNK20llama_grammar_parser7c_rulesEv, symObjAddr: 0x4938, symBinAddr: 0x2C440, symSize: 0x1AC }
  - { offset: 0x177056, size: 0x8, addend: 0x0, symName: __ZNSt3__16vectorIPK21llama_grammar_elementNS_9allocatorIS3_EEE20__throw_length_errorB9nqe210106Ev, symObjAddr: 0xAB10, symBinAddr: 0x32334, symSize: 0x14 }
  - { offset: 0x17706E, size: 0x8, addend: 0x0, symName: '__ZNSt3__16__treeINS_6vectorIPK21llama_grammar_elementNS_9allocatorIS4_EEEEZL27llama_grammar_advance_stackRKNS1_INS1_IS2_NS5_IS2_EEEENS5_IS9_EEEERKS7_RNS1_IS7_NS5_IS7_EEEEE3$_0SG_E7destroyEPNS_11__tree_nodeIS7_PvEE', symObjAddr: 0xAB24, symBinAddr: 0x32348, symSize: 0x48 }
  - { offset: 0x177079, size: 0x8, addend: 0x0, symName: __Z23llama_grammar_get_rulesPK13llama_grammar, symObjAddr: 0x4AE4, symBinAddr: 0x2C5EC, symSize: 0x8 }
  - { offset: 0x1770A9, size: 0x8, addend: 0x0, symName: __Z24llama_grammar_get_stacksP13llama_grammar, symObjAddr: 0x4AEC, symBinAddr: 0x2C5F4, symSize: 0x8 }
  - { offset: 0x1773AD, size: 0x8, addend: 0x0, symName: __Z20llama_grammar_acceptP13llama_grammarj, symObjAddr: 0x4AF4, symBinAddr: 0x2C5FC, symSize: 0x138 }
  - { offset: 0x1778DE, size: 0x8, addend: 0x0, symName: __ZL24llama_grammar_accept_chrR13llama_grammarRKNSt3__16vectorIPK21llama_grammar_elementNS1_9allocatorIS5_EEEEjRNS2_IS8_NS6_IS8_EEEE, symObjAddr: 0x4C2C, symBinAddr: 0x2C734, symSize: 0x2C4 }
  - { offset: 0x1781E4, size: 0x8, addend: 0x0, symName: __ZNSt3__16vectorINS0_IPK21llama_grammar_elementNS_9allocatorIS3_EEEENS4_IS6_EEE20__throw_length_errorB9nqe210106Ev, symObjAddr: 0xA8C8, symBinAddr: 0x322C0, symSize: 0x14 }
  - { offset: 0x1781FC, size: 0x8, addend: 0x0, symName: __ZNSt3__110unique_ptrINS_11__tree_nodeINS_6vectorIPK21llama_grammar_elementNS_9allocatorIS5_EEEEPvEENS_22__tree_node_destructorINS6_ISA_EEEEED1B9nqe210106Ev, symObjAddr: 0xA8DC, symBinAddr: 0x322D4, symSize: 0x60 }
  - { offset: 0x178207, size: 0x8, addend: 0x0, symName: __ZNSt3__16vectorINS0_IPK21llama_grammar_elementNS_9allocatorIS3_EEEENS4_IS6_EEED1B9nqe210106Ev, symObjAddr: 0x4EF0, symBinAddr: 0x2C9F8, symSize: 0x74 }
  - { offset: 0x178F7A, size: 0x8, addend: 0x0, symName: __Z41llama_grammar_reject_candidates_for_stackRKNSt3__16vectorINS0_I21llama_grammar_elementNS_9allocatorIS1_EEEENS2_IS4_EEEERKNS0_IPKS1_NS2_ISA_EEEERKNS0_I23llama_grammar_candidateNS2_ISF_EEEE, symObjAddr: 0x4F64, symBinAddr: 0x2CA6C, symSize: 0xE58 }
  - { offset: 0x17BDEE, size: 0x8, addend: 0x0, symName: __ZL31llama_grammar_reject_candidatesRKNSt3__16vectorINS0_I21llama_grammar_elementNS_9allocatorIS1_EEEENS2_IS4_EEEERKNS0_INS0_IPKS1_NS2_ISA_EEEENS2_ISC_EEEERKNS0_I23llama_grammar_candidateNS2_ISH_EEEE, symObjAddr: 0x66D4, symBinAddr: 0x2E1DC, symSize: 0x120 }
  - { offset: 0x17C174, size: 0x8, addend: 0x0, symName: __ZNSt3__16vectorI23llama_grammar_candidateNS_9allocatorIS1_EEE20__throw_length_errorB9nqe210106Ev, symObjAddr: 0xEB10, symBinAddr: 0x3630C, symSize: 0x14 }
  - { offset: 0x17C18C, size: 0x8, addend: 0x0, symName: __ZNSt3__128__exception_guard_exceptionsINS_6vectorINS1_I21llama_grammar_elementNS_9allocatorIS2_EEEENS3_IS5_EEE16__destroy_vectorEED1B9nqe210106Ev, symObjAddr: 0xEB24, symBinAddr: 0x36320, symSize: 0x84 }
  - { offset: 0x17CE6C, size: 0x8, addend: 0x0, symName: __ZNSt3__16vectorINS0_IPK21llama_grammar_elementNS_9allocatorIS3_EEEENS4_IS6_EEE24__emplace_back_slow_pathIJRKS6_EEEPS6_DpOT_, symObjAddr: 0xA6E8, symBinAddr: 0x320E0, symSize: 0x174 }
  - { offset: 0x17D5C4, size: 0x8, addend: 0x0, symName: '__ZNSt3__16__treeINS_6vectorIPK21llama_grammar_elementNS_9allocatorIS4_EEEEZL27llama_grammar_advance_stackRKNS1_INS1_IS2_NS5_IS2_EEEENS5_IS9_EEEERKS7_RNS1_IS7_NS5_IS7_EEEEE3$_0SG_E7destroyEPNS_11__tree_nodeIS7_PvEE', symObjAddr: 0xAB24, symBinAddr: 0x32348, symSize: 0x48 }
  - { offset: 0x17D815, size: 0x8, addend: 0x0, symName: __ZNSt3__110unique_ptrINS_11__tree_nodeINS_6vectorIPK21llama_grammar_elementNS_9allocatorIS5_EEEEPvEENS_22__tree_node_destructorINS6_ISA_EEEEED1B9nqe210106Ev, symObjAddr: 0xA8DC, symBinAddr: 0x322D4, symSize: 0x60 }
  - { offset: 0x17E2B7, size: 0x8, addend: 0x0, symName: __Z23llama_grammar_init_implPK11llama_vocabPPK21llama_grammar_elementmm, symObjAddr: 0x67F4, symBinAddr: 0x2E2FC, symSize: 0x72C }
  - { offset: 0x1804C1, size: 0x8, addend: 0x0, symName: __ZL35llama_grammar_detect_left_recursionRKNSt3__16vectorINS0_I21llama_grammar_elementNS_9allocatorIS1_EEEENS2_IS4_EEEEmPNS0_IbNS2_IbEEEESB_SB_, symObjAddr: 0x6F20, symBinAddr: 0x2EA28, symSize: 0x184 }
  - { offset: 0x180831, size: 0x8, addend: 0x0, symName: __ZNSt3__16vectorINS0_I21llama_grammar_elementNS_9allocatorIS1_EEEENS2_IS4_EEE20__throw_length_errorB9nqe210106Ev, symObjAddr: 0xE954, symBinAddr: 0x36150, symSize: 0x14 }
  - { offset: 0x180849, size: 0x8, addend: 0x0, symName: __ZNSt3__16vectorI21llama_grammar_elementNS_9allocatorIS1_EEE18__assign_with_sizeB9nqe210106IPS1_S6_EEvT_T0_l, symObjAddr: 0xE968, symBinAddr: 0x36164, symSize: 0x148 }
  - { offset: 0x180854, size: 0x8, addend: 0x0, symName: __ZNSt3__16vectorINS0_I21llama_grammar_elementNS_9allocatorIS1_EEEENS2_IS4_EEED1B9nqe210106Ev, symObjAddr: 0x70A4, symBinAddr: 0x2EBAC, symSize: 0x74 }
  - { offset: 0x180A9B, size: 0x8, addend: 0x0, symName: __ZNSt3__128__exception_guard_exceptionsINS_6vectorINS1_I21llama_grammar_elementNS_9allocatorIS2_EEEENS3_IS5_EEE16__destroy_vectorEED1B9nqe210106Ev, symObjAddr: 0xEB24, symBinAddr: 0x36320, symSize: 0x84 }
  - { offset: 0x181A81, size: 0x8, addend: 0x0, symName: __Z23llama_grammar_init_implPK11llama_vocabPKcS3_bPS3_mPKim, symObjAddr: 0x7118, symBinAddr: 0x2EC20, symSize: 0xE80 }
  - { offset: 0x1859D3, size: 0x8, addend: 0x0, symName: __ZNSt3__16__treeINS_12__value_typeINS_12basic_stringIcNS_11char_traitsIcEENS_9allocatorIcEEEEjEENS_19__map_value_compareIS7_NS_4pairIKS7_jEENS_4lessIS7_EELb1EEENS5_ISC_EEE7destroyEPNS_11__tree_nodeIS8_PvEE, symObjAddr: 0xABD0, symBinAddr: 0x323F4, symSize: 0x60 }
  - { offset: 0x185BE9, size: 0x8, addend: 0x0, symName: __ZNSt3__16vectorI29llama_grammar_trigger_patternNS_9allocatorIS1_EEE24__emplace_back_slow_pathIJEEEPS1_DpOT_, symObjAddr: 0xEBBC, symBinAddr: 0x363A4, symSize: 0x1B0 }
  - { offset: 0x1860C7, size: 0x8, addend: 0x0, symName: __ZNSt3__111basic_regexIcNS_12regex_traitsIcEEEC2B9nqe210106INS_11char_traitsIcEENS_9allocatorIcEEEERKNS_12basic_stringIcT_T0_EENS_15regex_constants18syntax_option_typeE, symObjAddr: 0xF050, symBinAddr: 0x36838, symSize: 0xD4 }
  - { offset: 0x186299, size: 0x8, addend: 0x0, symName: __ZNSt3__16vectorI29llama_grammar_trigger_patternNS_9allocatorIS1_EEE24__emplace_back_slow_pathIJEEEPS1_DpOT_, symObjAddr: 0xEBBC, symBinAddr: 0x363A4, symSize: 0x1B0 }
  - { offset: 0x1862A4, size: 0x8, addend: 0x0, symName: __ZN20llama_grammar_parserD1Ev, symObjAddr: 0x80BC, symBinAddr: 0x2FBC4, symSize: 0x80 }
  - { offset: 0x18658A, size: 0x8, addend: 0x0, symName: __ZNSt3__16vectorI29llama_grammar_trigger_patternNS_9allocatorIS1_EEED1B9nqe210106Ev, symObjAddr: 0x7FFC, symBinAddr: 0x2FB04, symSize: 0xC0 }
  - { offset: 0x1868E4, size: 0x8, addend: 0x0, symName: __ZNSt3__111basic_regexIcNS_12regex_traitsIcEEED1Ev, symObjAddr: 0x7F98, symBinAddr: 0x2FAA0, symSize: 0x64 }
  - { offset: 0x186C3F, size: 0x8, addend: 0x0, symName: __Z23llama_grammar_free_implP13llama_grammar, symObjAddr: 0x813C, symBinAddr: 0x2FC44, symSize: 0x1C }
  - { offset: 0x186C94, size: 0x8, addend: 0x0, symName: __ZN13llama_grammarD2Ev, symObjAddr: 0xAC30, symBinAddr: 0x32454, symSize: 0x188 }
  - { offset: 0x1880C8, size: 0x8, addend: 0x0, symName: __Z24llama_grammar_clone_implRK13llama_grammar, symObjAddr: 0x8158, symBinAddr: 0x2FC60, symSize: 0x4C0 }
  - { offset: 0x1890D8, size: 0x8, addend: 0x0, symName: __ZNSt3__135__uninitialized_allocator_copy_implB9nqe210106INS_9allocatorINS_6vectorI21llama_grammar_elementNS1_IS3_EEEEEEPS5_S7_S7_EET2_RT_T0_T1_S8_, symObjAddr: 0x169E0, symBinAddr: 0x3E0B8, symSize: 0xF8 }
  - { offset: 0x1890E3, size: 0x8, addend: 0x0, symName: __ZNSt3__16vectorI29llama_grammar_trigger_patternNS_9allocatorIS1_EEE18__construct_at_endIPS1_S6_EEvT_T0_m, symObjAddr: 0x16D40, symBinAddr: 0x3E418, symSize: 0x118 }
  - { offset: 0x1894DF, size: 0x8, addend: 0x0, symName: __ZNSt3__16vectorINS_4pairIiNS1_ImmEEEENS_9allocatorIS3_EEE20__throw_length_errorB9nqe210106Ev, symObjAddr: 0x16D2C, symBinAddr: 0x3E404, symSize: 0x14 }
  - { offset: 0x1894F7, size: 0x8, addend: 0x0, symName: __ZNSt3__16vectorI29llama_grammar_trigger_patternNS_9allocatorIS1_EEE18__construct_at_endIPS1_S6_EEvT_T0_m, symObjAddr: 0x16D40, symBinAddr: 0x3E418, symSize: 0x118 }
  - { offset: 0x189502, size: 0x8, addend: 0x0, symName: __ZNSt3__16vectorI29llama_grammar_trigger_patternNS_9allocatorIS1_EEE20__throw_length_errorB9nqe210106Ev, symObjAddr: 0xEE88, symBinAddr: 0x36670, symSize: 0x14 }
  - { offset: 0x18951A, size: 0x8, addend: 0x0, symName: __ZNSt3__134__uninitialized_allocator_relocateB9nqe210106INS_9allocatorI29llama_grammar_trigger_patternEEPS2_EEvRT_T0_S7_S7_, symObjAddr: 0xEE9C, symBinAddr: 0x36684, symSize: 0xFC }
  - { offset: 0x189525, size: 0x8, addend: 0x0, symName: __ZNSt3__128__exception_guard_exceptionsINS_6vectorINS1_IPK21llama_grammar_elementNS_9allocatorIS4_EEEENS5_IS7_EEE16__destroy_vectorEED1B9nqe210106Ev, symObjAddr: 0x16B44, symBinAddr: 0x3E21C, symSize: 0x84 }
  - { offset: 0x18977E, size: 0x8, addend: 0x0, symName: __ZNSt3__128__exception_guard_exceptionsINS_6vectorI29llama_grammar_trigger_patternNS_9allocatorIS2_EEE16__destroy_vectorEED1B9nqe210106Ev, symObjAddr: 0x16E58, symBinAddr: 0x3E530, symSize: 0xD8 }
  - { offset: 0x18A203, size: 0x8, addend: 0x0, symName: __Z24llama_grammar_apply_implRK13llama_grammarP22llama_token_data_array, symObjAddr: 0x8618, symBinAddr: 0x30120, symSize: 0x538 }
  - { offset: 0x18B67D, size: 0x8, addend: 0x0, symName: __ZNSt3__16vectorINS_4pairINS0_IjNS_9allocatorIjEEEE18llama_partial_utf8EENS2_IS6_EEE20__throw_length_errorB9nqe210106Ev, symObjAddr: 0x16F30, symBinAddr: 0x3E608, symSize: 0x14 }
  - { offset: 0x18B695, size: 0x8, addend: 0x0, symName: __ZNSt3__16vectorINS0_IPK21llama_grammar_elementNS_9allocatorIS3_EEEENS4_IS6_EEE24__emplace_back_slow_pathIJRS6_EEEPS6_DpOT_, symObjAddr: 0x16F44, symBinAddr: 0x3E61C, symSize: 0x174 }
  - { offset: 0x18B6A0, size: 0x8, addend: 0x0, symName: __ZNSt3__16vectorINS_4pairINS0_IjNS_9allocatorIjEEEE18llama_partial_utf8EENS2_IS6_EEED1B9nqe210106Ev, symObjAddr: 0x8FD0, symBinAddr: 0x30AD8, symSize: 0x74 }
  - { offset: 0x18C36E, size: 0x8, addend: 0x0, symName: __Z25llama_grammar_accept_implR13llama_grammari, symObjAddr: 0x9044, symBinAddr: 0x30B4C, symSize: 0x524 }
  - { offset: 0x18D8DE, size: 0x8, addend: 0x0, symName: __Z26llama_grammar_accept_tokenR13llama_grammariRKNSt3__112basic_stringIcNS1_11char_traitsIcEENS1_9allocatorIcEEEE, symObjAddr: 0x9568, symBinAddr: 0x31070, symSize: 0x7C0 }
  - { offset: 0x19048A, size: 0x8, addend: 0x0, symName: __ZNSt3__14pairINS_12basic_stringIcNS_11char_traitsIcEENS_9allocatorIcEEEES6_ED1Ev, symObjAddr: 0x1302C, symBinAddr: 0x3A790, symSize: 0x58 }
  - { offset: 0x1907E0, size: 0x8, addend: 0x0, symName: __ZNSt3__16vectorINS0_IPK21llama_grammar_elementNS_9allocatorIS3_EEEENS4_IS6_EEE24__emplace_back_slow_pathIJRS6_EEEPS6_DpOT_, symObjAddr: 0x16F44, symBinAddr: 0x3E61C, symSize: 0x174 }
  - { offset: 0x190F38, size: 0x8, addend: 0x0, symName: __ZNSt3__128__exception_guard_exceptionsINS_29_AllocatorDestroyRangeReverseINS_9allocatorINS_6vectorIPK21llama_grammar_elementNS2_IS6_EEEEEEPS8_EEED1B9nqe210106Ev, symObjAddr: 0x16CC0, symBinAddr: 0x3E398, symSize: 0x6C }
  - { offset: 0x1910E5, size: 0x8, addend: 0x0, symName: __Z24llama_grammar_accept_strR13llama_grammarRKNSt3__112basic_stringIcNS1_11char_traitsIcEENS1_9allocatorIcEEEE, symObjAddr: 0x9D28, symBinAddr: 0x31830, symSize: 0x13C }
  - { offset: 0x1918E5, size: 0x8, addend: 0x0, symName: __ZNSt3__114__split_bufferINS_6vectorIPK21llama_grammar_elementNS_9allocatorIS4_EEEERNS5_IS7_EEED1Ev, symObjAddr: 0xA85C, symBinAddr: 0x32254, symSize: 0x6C }
  - { offset: 0x191C79, size: 0x8, addend: 0x0, symName: __ZNSt3__110shared_ptrINS_13__empty_stateIcEEED1B9nqe210106Ev, symObjAddr: 0xAB6C, symBinAddr: 0x32390, symSize: 0x64 }
  - { offset: 0x192007, size: 0x8, addend: 0x0, symName: __ZNSt3__16vectorINS_9sub_matchIPKcEENS_9allocatorIS4_EEE6assignEmRKS4_, symObjAddr: 0xB25C, symBinAddr: 0x32A58, symSize: 0x1DC }
  - { offset: 0x1925AC, size: 0x8, addend: 0x0, symName: __ZNKSt3__111basic_regexIcNS_12regex_traitsIcEEE21__match_at_start_ecmaINS_9allocatorINS_9sub_matchIPKcEEEEEEbS8_S8_RNS_13match_resultsIS8_T_EENS_15regex_constants15match_flag_typeEb, symObjAddr: 0xB438, symBinAddr: 0x32C34, symSize: 0x480 }
  - { offset: 0x1925B7, size: 0x8, addend: 0x0, symName: __ZNKSt3__111basic_regexIcNS_12regex_traitsIcEEE27__match_at_start_posix_subsINS_9allocatorINS_9sub_matchIPKcEEEEEEbS8_S8_RNS_13match_resultsIS8_T_EENS_15regex_constants15match_flag_typeEb, symObjAddr: 0xC140, symBinAddr: 0x3393C, symSize: 0x5B8 }
  - { offset: 0x19410F, size: 0x8, addend: 0x0, symName: __ZNKSt3__111basic_regexIcNS_12regex_traitsIcEEE21__match_at_start_ecmaINS_9allocatorINS_9sub_matchIPKcEEEEEEbS8_S8_RNS_13match_resultsIS8_T_EENS_15regex_constants15match_flag_typeEb, symObjAddr: 0xB438, symBinAddr: 0x32C34, symSize: 0x480 }
  - { offset: 0x19520A, size: 0x8, addend: 0x0, symName: __ZNKSt3__111basic_regexIcNS_12regex_traitsIcEEE29__match_at_start_posix_nosubsINS_9allocatorINS_9sub_matchIPKcEEEEEEbS8_S8_RNS_13match_resultsIS8_T_EENS_15regex_constants15match_flag_typeEb, symObjAddr: 0xB8B8, symBinAddr: 0x330B4, symSize: 0x888 }
  - { offset: 0x196EF8, size: 0x8, addend: 0x0, symName: __ZNSt3__16vectorINS_9sub_matchINS_11__wrap_iterIPKcEEEENS_9allocatorIS6_EEE8__appendEm, symObjAddr: 0xE340, symBinAddr: 0x35B3C, symSize: 0x190 }
  - { offset: 0x197418, size: 0x8, addend: 0x0, symName: __ZNSt3__16vectorINS_9sub_matchINS_11__wrap_iterIPKcEEEENS_9allocatorIS6_EEE20__throw_length_errorB9nqe210106Ev, symObjAddr: 0xE4D0, symBinAddr: 0x35CCC, symSize: 0x14 }
  - { offset: 0x1976AE, size: 0x8, addend: 0x0, symName: __ZNSt3__16vectorINS_9sub_matchIPKcEENS_9allocatorIS4_EEE20__throw_length_errorB9nqe210106Ev, symObjAddr: 0xCD18, symBinAddr: 0x34514, symSize: 0x14 }
  - { offset: 0x1976C6, size: 0x8, addend: 0x0, symName: __ZNSt3__16vectorINS_4pairImPKcEENS_9allocatorIS4_EEE8__appendEm, symObjAddr: 0xCD2C, symBinAddr: 0x34528, symSize: 0x118 }
  - { offset: 0x197DC7, size: 0x8, addend: 0x0, symName: __ZNSt3__16vectorINS_7__stateIcEENS_9allocatorIS2_EEE24__emplace_back_slow_pathIJS2_EEEPS2_DpOT_, symObjAddr: 0xC850, symBinAddr: 0x3404C, symSize: 0x17C }
  - { offset: 0x1983E9, size: 0x8, addend: 0x0, symName: __ZNSt3__16vectorINS_9sub_matchIPKcEENS_9allocatorIS4_EEE8__appendEmRKS4_, symObjAddr: 0xCB78, symBinAddr: 0x34374, symSize: 0x1A0 }
  - { offset: 0x1988D3, size: 0x8, addend: 0x0, symName: __ZNSt3__16vectorINS_9sub_matchIPKcEENS_9allocatorIS4_EEE20__throw_length_errorB9nqe210106Ev, symObjAddr: 0xCD18, symBinAddr: 0x34514, symSize: 0x14 }
  - { offset: 0x1988DE, size: 0x8, addend: 0x0, symName: __ZNSt3__16vectorINS_4pairImPKcEENS_9allocatorIS4_EEE8__appendEm, symObjAddr: 0xCD2C, symBinAddr: 0x34528, symSize: 0x118 }
  - { offset: 0x198D84, size: 0x8, addend: 0x0, symName: __ZNSt3__16vectorINS_4pairImPKcEENS_9allocatorIS4_EEE20__throw_length_errorB9nqe210106Ev, symObjAddr: 0xCE44, symBinAddr: 0x34640, symSize: 0x14 }
  - { offset: 0x198D8F, size: 0x8, addend: 0x0, symName: __ZNSt3__17__stateIcEC2ERKS1_, symObjAddr: 0xCE58, symBinAddr: 0x34654, symSize: 0x16C }
  - { offset: 0x19937F, size: 0x8, addend: 0x0, symName: __ZNSt3__16vectorINS_7__stateIcEENS_9allocatorIS2_EEED1B9nqe210106Ev, symObjAddr: 0xC7D0, symBinAddr: 0x33FCC, symSize: 0x80 }
  - { offset: 0x199719, size: 0x8, addend: 0x0, symName: __ZNSt3__17__stateIcED1Ev, symObjAddr: 0xC6F8, symBinAddr: 0x33EF4, symSize: 0x40 }
  - { offset: 0x199DD8, size: 0x8, addend: 0x0, symName: __ZNSt3__15dequeINS_7__stateIcEENS_9allocatorIS2_EEE19__add_back_capacityEv, symObjAddr: 0xD190, symBinAddr: 0x3498C, symSize: 0x338 }
  - { offset: 0x19A953, size: 0x8, addend: 0x0, symName: __ZNSt3__15dequeINS_7__stateIcEENS_9allocatorIS2_EEE20__add_front_capacityEv, symObjAddr: 0xD948, symBinAddr: 0x35144, symSize: 0x3A4 }
  - { offset: 0x19B5D4, size: 0x8, addend: 0x0, symName: __ZNSt3__15dequeINS_7__stateIcEENS_9allocatorIS2_EEED1B9nqe210106Ev, symObjAddr: 0xD120, symBinAddr: 0x3491C, symSize: 0x70 }
  - { offset: 0x19B8ED, size: 0x8, addend: 0x0, symName: __ZNSt3__16vectorINS_9sub_matchIPKcEENS_9allocatorIS4_EEE18__assign_with_sizeB9nqe210106IPS4_S9_EEvT_T0_l, symObjAddr: 0xDE74, symBinAddr: 0x35670, symSize: 0x200 }
  - { offset: 0x19C041, size: 0x8, addend: 0x0, symName: __ZNSt3__16vectorINS_4pairImPKcEENS_9allocatorIS4_EEE18__assign_with_sizeB9nqe210106IPS4_S9_EEvT_T0_l, symObjAddr: 0xE074, symBinAddr: 0x35870, symSize: 0x2CC }
  - { offset: 0x19C05E, size: 0x8, addend: 0x0, symName: __ZNSt3__16vectorINS_4pairImPKcEENS_9allocatorIS4_EEE18__assign_with_sizeB9nqe210106IPS4_S9_EEvT_T0_l, symObjAddr: 0xE074, symBinAddr: 0x35870, symSize: 0x2CC }
  - { offset: 0x19C776, size: 0x8, addend: 0x0, symName: __ZNSt3__16vectorINS_9sub_matchINS_11__wrap_iterIPKcEEEENS_9allocatorIS6_EEE8__appendEm, symObjAddr: 0xE340, symBinAddr: 0x35B3C, symSize: 0x190 }
  - { offset: 0x19C92F, size: 0x8, addend: 0x0, symName: __ZNSt3__16vectorINS_7__stateIcEENS_9allocatorIS2_EEE26__swap_out_circular_bufferERNS_14__split_bufferIS2_RS4_EE, symObjAddr: 0xC9CC, symBinAddr: 0x341C8, symSize: 0x124 }
  - { offset: 0x19CE67, size: 0x8, addend: 0x0, symName: __ZNSt3__16vectorINS_7__stateIcEENS_9allocatorIS2_EEE20__throw_length_errorB9nqe210106Ev, symObjAddr: 0xCB64, symBinAddr: 0x34360, symSize: 0x14 }
  - { offset: 0x19CE7F, size: 0x8, addend: 0x0, symName: __ZNSt3__16vectorINS_9sub_matchIPKcEENS_9allocatorIS4_EEE8__appendEmRKS4_, symObjAddr: 0xCB78, symBinAddr: 0x34374, symSize: 0x1A0 }
  - { offset: 0x19CE8A, size: 0x8, addend: 0x0, symName: __ZNSt3__114__split_bufferINS_7__stateIcEERNS_9allocatorIS2_EEED1Ev, symObjAddr: 0xCAF0, symBinAddr: 0x342EC, symSize: 0x74 }
  - { offset: 0x19D7FC, size: 0x8, addend: 0x0, symName: __ZNSt3__16vectorINS_4pairImPKcEENS_9allocatorIS4_EEE20__throw_length_errorB9nqe210106Ev, symObjAddr: 0xCE44, symBinAddr: 0x34640, symSize: 0x14 }
  - { offset: 0x19D814, size: 0x8, addend: 0x0, symName: __ZNSt3__17__stateIcEC2ERKS1_, symObjAddr: 0xCE58, symBinAddr: 0x34654, symSize: 0x16C }
  - { offset: 0x19DC1F, size: 0x8, addend: 0x0, symName: __ZNSt3__15dequeINS_7__stateIcEENS_9allocatorIS2_EEE5clearEv, symObjAddr: 0xCFC4, symBinAddr: 0x347C0, symSize: 0x15C }
  - { offset: 0x19E581, size: 0x8, addend: 0x0, symName: __ZNSt3__114__split_bufferIPNS_7__stateIcEENS_9allocatorIS3_EEE12emplace_backIJRS3_EEEvDpOT_, symObjAddr: 0xD4C8, symBinAddr: 0x34CC4, symSize: 0x17C }
  - { offset: 0x19E989, size: 0x8, addend: 0x0, symName: __ZNSt3__114__split_bufferIPNS_7__stateIcEENS_9allocatorIS3_EEE12emplace_backIJS3_EEEvDpOT_, symObjAddr: 0xD644, symBinAddr: 0x34E40, symSize: 0x17C }
  - { offset: 0x19E99F, size: 0x8, addend: 0x0, symName: __ZNSt3__114__split_bufferIPNS_7__stateIcEENS_9allocatorIS3_EEE12emplace_backIJS3_EEEvDpOT_, symObjAddr: 0xD644, symBinAddr: 0x34E40, symSize: 0x17C }
  - { offset: 0x19EDA7, size: 0x8, addend: 0x0, symName: __ZNSt3__114__split_bufferIPNS_7__stateIcEENS_9allocatorIS3_EEE13emplace_frontIJS3_EEEvDpOT_, symObjAddr: 0xD7C0, symBinAddr: 0x34FBC, symSize: 0x188 }
  - { offset: 0x19EDBD, size: 0x8, addend: 0x0, symName: __ZNSt3__114__split_bufferIPNS_7__stateIcEENS_9allocatorIS3_EEE13emplace_frontIJS3_EEEvDpOT_, symObjAddr: 0xD7C0, symBinAddr: 0x34FBC, symSize: 0x188 }
  - { offset: 0x19F1E9, size: 0x8, addend: 0x0, symName: __ZNSt3__15dequeINS_7__stateIcEENS_9allocatorIS2_EEE20__add_front_capacityEv, symObjAddr: 0xD948, symBinAddr: 0x35144, symSize: 0x3A4 }
  - { offset: 0x19F2CB, size: 0x8, addend: 0x0, symName: __ZNSt3__114__split_bufferIPNS_7__stateIcEENS_9allocatorIS3_EEE13emplace_frontIJRS3_EEEvDpOT_, symObjAddr: 0xDCEC, symBinAddr: 0x354E8, symSize: 0x188 }
  - { offset: 0x19F6F7, size: 0x8, addend: 0x0, symName: __ZNSt3__16vectorINS_9sub_matchIPKcEENS_9allocatorIS4_EEE18__assign_with_sizeB9nqe210106IPS4_S9_EEvT_T0_l, symObjAddr: 0xDE74, symBinAddr: 0x35670, symSize: 0x200 }
  - { offset: 0x19FB9D, size: 0x8, addend: 0x0, symName: __ZNSt3__16vectorINS_9sub_matchINS_11__wrap_iterIPKcEEEENS_9allocatorIS6_EEE20__throw_length_errorB9nqe210106Ev, symObjAddr: 0xE4D0, symBinAddr: 0x35CCC, symSize: 0x14 }
  - { offset: 0x19FBB5, size: 0x8, addend: 0x0, symName: __ZNSt3__16__treeINS_12__value_typeINS_12basic_stringIcNS_11char_traitsIcEENS_9allocatorIcEEEEjEENS_19__map_value_compareIS7_NS_4pairIKS7_jEENS_4lessIS7_EELb1EEENS5_ISC_EEE25__emplace_unique_key_argsIS7_JS7_RjEEENSA_INS_15__tree_iteratorIS8_PNS_11__tree_nodeIS8_PvEElEEbEERKT_DpOT0_, symObjAddr: 0xE4E4, symBinAddr: 0x35CE0, symSize: 0x180 }
  - { offset: 0x1A040A, size: 0x8, addend: 0x0, symName: __ZNSt3__114__split_bufferI29llama_grammar_trigger_patternRNS_9allocatorIS1_EEED1Ev, symObjAddr: 0xEDD8, symBinAddr: 0x365C0, symSize: 0xB0 }
  - { offset: 0x1A072C, size: 0x8, addend: 0x0, symName: __ZNSt3__111basic_regexIcNS_12regex_traitsIcEEEC1B9nqe210106Ev, symObjAddr: 0xED6C, symBinAddr: 0x36554, symSize: 0x6C }
  - { offset: 0x1A09E1, size: 0x8, addend: 0x0, symName: __ZNSt3__128__exception_guard_exceptionsINS_29_AllocatorDestroyRangeReverseINS_9allocatorI29llama_grammar_trigger_patternEEPS3_EEED1B9nqe210106Ev, symObjAddr: 0xEF98, symBinAddr: 0x36780, symSize: 0xB8 }
  - { offset: 0x1A0CE4, size: 0x8, addend: 0x0, symName: __ZNSt3__111basic_regexIcNS_12regex_traitsIcEEE7__parseINS_11__wrap_iterIPKcEEEET_S9_S9_, symObjAddr: 0xF124, symBinAddr: 0x3690C, symSize: 0x208 }
  - { offset: 0x1A162F, size: 0x8, addend: 0x0, symName: __ZNSt3__111basic_regexIcNS_12regex_traitsIcEEE13__parse_egrepINS_11__wrap_iterIPKcEEEET_S9_S9_, symObjAddr: 0xFA24, symBinAddr: 0x3720C, symSize: 0x1A0 }
  - { offset: 0x1A1BC3, size: 0x8, addend: 0x0, symName: __ZNSt3__111basic_regexIcNS_12regex_traitsIcEEE24__parse_extended_reg_expINS_11__wrap_iterIPKcEEEET_S9_S9_, symObjAddr: 0xF720, symBinAddr: 0x36F08, symSize: 0x164 }
  - { offset: 0x1A1EF8, size: 0x8, addend: 0x0, symName: __ZNSt3__111basic_regexIcNS_12regex_traitsIcEEE12__parse_grepINS_11__wrap_iterIPKcEEEET_S9_S9_, symObjAddr: 0xF884, symBinAddr: 0x3706C, symSize: 0x1A0 }
  - { offset: 0x1A1F0C, size: 0x8, addend: 0x0, symName: __ZNSt3__111basic_regexIcNS_12regex_traitsIcEEE21__parse_basic_reg_expINS_11__wrap_iterIPKcEEEET_S9_S9_, symObjAddr: 0xF5C0, symBinAddr: 0x36DA8, symSize: 0x160 }
  - { offset: 0x1A22A1, size: 0x8, addend: 0x0, symName: __ZNSt3__111basic_regexIcNS_12regex_traitsIcEEE24__parse_extended_reg_expINS_11__wrap_iterIPKcEEEET_S9_S9_, symObjAddr: 0xF720, symBinAddr: 0x36F08, symSize: 0x164 }
  - { offset: 0x1A22B5, size: 0x8, addend: 0x0, symName: __ZNSt3__111basic_regexIcNS_12regex_traitsIcEEE12__parse_grepINS_11__wrap_iterIPKcEEEET_S9_S9_, symObjAddr: 0xF884, symBinAddr: 0x3706C, symSize: 0x1A0 }
  - { offset: 0x1A2849, size: 0x8, addend: 0x0, symName: __ZNSt3__111basic_regexIcNS_12regex_traitsIcEEE16__parse_ecma_expINS_11__wrap_iterIPKcEEEET_S9_S9_, symObjAddr: 0xF378, symBinAddr: 0x36B60, symSize: 0x248 }
  - { offset: 0x1A2FC9, size: 0x8, addend: 0x0, symName: __ZNSt3__111basic_regexIcNS_12regex_traitsIcEEE17__parse_assertionINS_11__wrap_iterIPKcEEEET_S9_S9_, symObjAddr: 0xFE04, symBinAddr: 0x375EC, symSize: 0x364 }
  - { offset: 0x1A3692, size: 0x8, addend: 0x0, symName: __ZNSt3__111basic_regexIcNS_12regex_traitsIcEEE12__parse_atomINS_11__wrap_iterIPKcEEEET_S9_S9_, symObjAddr: 0x10168, symBinAddr: 0x37950, symSize: 0x268 }
  - { offset: 0x1A3A58, size: 0x8, addend: 0x0, symName: __ZNSt3__111basic_regexIcNS_12regex_traitsIcEEE23__parse_ERE_dupl_symbolINS_11__wrap_iterIPKcEEEET_S9_S9_PNS_16__owns_one_stateIcEEjj, symObjAddr: 0x103D0, symBinAddr: 0x37BB8, symSize: 0x3D0 }
  - { offset: 0x1A3A6C, size: 0x8, addend: 0x0, symName: __ZNSt3__111basic_regexIcNS_12regex_traitsIcEEE23__parse_ERE_dupl_symbolINS_11__wrap_iterIPKcEEEET_S9_S9_PNS_16__owns_one_stateIcEEjj, symObjAddr: 0x103D0, symBinAddr: 0x37BB8, symSize: 0x3D0 }
  - { offset: 0x1A4112, size: 0x8, addend: 0x0, symName: __ZNSt3__111basic_regexIcNS_12regex_traitsIcEEE16__push_lookaheadERKS3_bj, symObjAddr: 0x107A0, symBinAddr: 0x37F88, symSize: 0xB4 }
  - { offset: 0x1A42E4, size: 0x8, addend: 0x0, symName: __ZNSt3__111basic_regexIcNS_12regex_traitsIcEEE18__parse_nondupl_REINS_11__wrap_iterIPKcEEEET_S9_S9_, symObjAddr: 0x15ECC, symBinAddr: 0x3D630, symSize: 0x334 }
  - { offset: 0x1A49DC, size: 0x8, addend: 0x0, symName: __ZNSt3__111basic_regexIcNS_12regex_traitsIcEEE22__parse_RE_dupl_symbolINS_11__wrap_iterIPKcEEEET_S9_S9_PNS_16__owns_one_stateIcEEjj, symObjAddr: 0x16200, symBinAddr: 0x3D964, symSize: 0x268 }
  - { offset: 0x1A49F0, size: 0x8, addend: 0x0, symName: __ZNSt3__111basic_regexIcNS_12regex_traitsIcEEE22__parse_RE_dupl_symbolINS_11__wrap_iterIPKcEEEET_S9_S9_PNS_16__owns_one_stateIcEEjj, symObjAddr: 0x16200, symBinAddr: 0x3D964, symSize: 0x268 }
  - { offset: 0x1A4FB7, size: 0x8, addend: 0x0, symName: __ZNSt3__111__match_anyIcED1Ev, symObjAddr: 0x16468, symBinAddr: 0x3DBCC, symSize: 0x48 }
  - { offset: 0x1A500E, size: 0x8, addend: 0x0, symName: __ZNSt3__111basic_regexIcNS_12regex_traitsIcEEE22__parse_ERE_expressionINS_11__wrap_iterIPKcEEEET_S9_S9_, symObjAddr: 0x16594, symBinAddr: 0x3DCF8, symSize: 0x258 }
  - { offset: 0x1A54F6, size: 0x8, addend: 0x0, symName: __ZNSt3__111basic_regexIcNS_12regex_traitsIcEEE20__parse_ORD_CHAR_EREINS_11__wrap_iterIPKcEEEET_S9_S9_, symObjAddr: 0x167EC, symBinAddr: 0x3DF50, symSize: 0x94 }
  - { offset: 0x1A5526, size: 0x8, addend: 0x0, symName: __ZNSt3__111__end_stateIcED1Ev, symObjAddr: 0xFC10, symBinAddr: 0x373F8, symSize: 0x4 }
  - { offset: 0x1A5556, size: 0x8, addend: 0x0, symName: __ZNSt3__111__end_stateIcED0Ev, symObjAddr: 0xFC14, symBinAddr: 0x373FC, symSize: 0x4 }
  - { offset: 0x1A5576, size: 0x8, addend: 0x0, symName: __ZNKSt3__111__end_stateIcE6__execERNS_7__stateIcEE, symObjAddr: 0xFC18, symBinAddr: 0x37400, symSize: 0xC }
  - { offset: 0x1A55A9, size: 0x8, addend: 0x0, symName: __ZNKSt3__16__nodeIcE12__exec_splitEbRNS_7__stateIcEE, symObjAddr: 0xFC24, symBinAddr: 0x3740C, symSize: 0x4 }
  - { offset: 0x1A55E9, size: 0x8, addend: 0x0, symName: __ZNKSt3__16__nodeIcE6__execERNS_7__stateIcEE, symObjAddr: 0xFC28, symBinAddr: 0x37410, symSize: 0x4 }
  - { offset: 0x1A5639, size: 0x8, addend: 0x0, symName: __ZNSt3__120__shared_ptr_pointerIPNS_13__empty_stateIcEENS_10shared_ptrIS2_E27__shared_ptr_default_deleteIS2_S2_EENS_9allocatorIS2_EEED1Ev, symObjAddr: 0xFC2C, symBinAddr: 0x37414, symSize: 0x4 }
  - { offset: 0x1A565B, size: 0x8, addend: 0x0, symName: __ZNSt3__120__shared_ptr_pointerIPNS_13__empty_stateIcEENS_10shared_ptrIS2_E27__shared_ptr_default_deleteIS2_S2_EENS_9allocatorIS2_EEED1Ev, symObjAddr: 0xFC2C, symBinAddr: 0x37414, symSize: 0x4 }
  - { offset: 0x1A5695, size: 0x8, addend: 0x0, symName: __ZNSt3__120__shared_ptr_pointerIPNS_13__empty_stateIcEENS_10shared_ptrIS2_E27__shared_ptr_default_deleteIS2_S2_EENS_9allocatorIS2_EEED0Ev, symObjAddr: 0xFC30, symBinAddr: 0x37418, symSize: 0x14 }
  - { offset: 0x1A56F8, size: 0x8, addend: 0x0, symName: __ZNSt3__120__shared_ptr_pointerIPNS_13__empty_stateIcEENS_10shared_ptrIS2_E27__shared_ptr_default_deleteIS2_S2_EENS_9allocatorIS2_EEE16__on_zero_sharedEv, symObjAddr: 0xFC44, symBinAddr: 0x3742C, symSize: 0x18 }
  - { offset: 0x1A57A0, size: 0x8, addend: 0x0, symName: __ZNKSt3__120__shared_ptr_pointerIPNS_13__empty_stateIcEENS_10shared_ptrIS2_E27__shared_ptr_default_deleteIS2_S2_EENS_9allocatorIS2_EEE13__get_deleterERKSt9type_info, symObjAddr: 0xFC5C, symBinAddr: 0x37444, symSize: 0x70 }
  - { offset: 0x1A58C6, size: 0x8, addend: 0x0, symName: __ZNSt3__120__shared_ptr_pointerIPNS_13__empty_stateIcEENS_10shared_ptrIS2_E27__shared_ptr_default_deleteIS2_S2_EENS_9allocatorIS2_EEE21__on_zero_shared_weakEv, symObjAddr: 0xFCCC, symBinAddr: 0x374B4, symSize: 0x4 }
  - { offset: 0x1A58F8, size: 0x8, addend: 0x0, symName: __ZNSt3__120__shared_ptr_pointerIPNS_13__empty_stateIcEENS_10shared_ptrIS2_E27__shared_ptr_default_deleteIS2_S2_EENS_9allocatorIS2_EEE21__on_zero_shared_weakEv, symObjAddr: 0xFCCC, symBinAddr: 0x374B4, symSize: 0x4 }
  - { offset: 0x1A591A, size: 0x8, addend: 0x0, symName: __ZNSt3__120__shared_ptr_pointerIPNS_13__empty_stateIcEENS_10shared_ptrIS2_E27__shared_ptr_default_deleteIS2_S2_EENS_9allocatorIS2_EEE21__on_zero_shared_weakEv, symObjAddr: 0xFCCC, symBinAddr: 0x374B4, symSize: 0x4 }
  - { offset: 0x1A595A, size: 0x8, addend: 0x0, symName: __ZNSt3__113__empty_stateIcED1Ev, symObjAddr: 0xFCD0, symBinAddr: 0x374B8, symSize: 0x48 }
  - { offset: 0x1A597E, size: 0x8, addend: 0x0, symName: __ZNSt3__113__empty_stateIcED1Ev, symObjAddr: 0xFCD0, symBinAddr: 0x374B8, symSize: 0x48 }
  - { offset: 0x1A599C, size: 0x8, addend: 0x0, symName: __ZNSt3__113__empty_stateIcED1Ev, symObjAddr: 0xFCD0, symBinAddr: 0x374B8, symSize: 0x48 }
  - { offset: 0x1A59C6, size: 0x8, addend: 0x0, symName: __ZNSt3__113__empty_stateIcED0Ev, symObjAddr: 0xFD18, symBinAddr: 0x37500, symSize: 0x48 }
  - { offset: 0x1A59EA, size: 0x8, addend: 0x0, symName: __ZNSt3__113__empty_stateIcED0Ev, symObjAddr: 0xFD18, symBinAddr: 0x37500, symSize: 0x48 }
  - { offset: 0x1A5A08, size: 0x8, addend: 0x0, symName: __ZNSt3__113__empty_stateIcED0Ev, symObjAddr: 0xFD18, symBinAddr: 0x37500, symSize: 0x48 }
  - { offset: 0x1A5A26, size: 0x8, addend: 0x0, symName: __ZNSt3__113__empty_stateIcED0Ev, symObjAddr: 0xFD18, symBinAddr: 0x37500, symSize: 0x48 }
  - { offset: 0x1A5A6D, size: 0x8, addend: 0x0, symName: __ZNKSt3__113__empty_stateIcE6__execERNS_7__stateIcEE, symObjAddr: 0xFD60, symBinAddr: 0x37548, symSize: 0x14 }
  - { offset: 0x1A5ABF, size: 0x8, addend: 0x0, symName: __ZNSt3__116__owns_one_stateIcED1Ev, symObjAddr: 0xFD74, symBinAddr: 0x3755C, symSize: 0x48 }
  - { offset: 0x1A5AE3, size: 0x8, addend: 0x0, symName: __ZNSt3__116__owns_one_stateIcED1Ev, symObjAddr: 0xFD74, symBinAddr: 0x3755C, symSize: 0x48 }
  - { offset: 0x1A5B2C, size: 0x8, addend: 0x0, symName: __ZNSt3__116__owns_one_stateIcED0Ev, symObjAddr: 0xFDBC, symBinAddr: 0x375A4, symSize: 0x48 }
  - { offset: 0x1A5B5B, size: 0x8, addend: 0x0, symName: __ZNSt3__116__owns_one_stateIcED0Ev, symObjAddr: 0xFDBC, symBinAddr: 0x375A4, symSize: 0x48 }
  - { offset: 0x1A5B79, size: 0x8, addend: 0x0, symName: __ZNSt3__116__owns_one_stateIcED0Ev, symObjAddr: 0xFDBC, symBinAddr: 0x375A4, symSize: 0x48 }
  - { offset: 0x1A5C8D, size: 0x8, addend: 0x0, symName: __ZNSt3__111basic_regexIcNS_12regex_traitsIcEEE16__push_lookaheadERKS3_bj, symObjAddr: 0x107A0, symBinAddr: 0x37F88, symSize: 0xB4 }
  - { offset: 0x1A600D, size: 0x8, addend: 0x0, symName: __ZNSt3__111basic_regexIcNS_12regex_traitsIcEEE26__parse_bracket_expressionINS_11__wrap_iterIPKcEEEET_S9_S9_, symObjAddr: 0x110A8, symBinAddr: 0x38890, symSize: 0x160 }
  - { offset: 0x1A6239, size: 0x8, addend: 0x0, symName: __ZNSt3__111basic_regexIcNS_12regex_traitsIcEEE19__parse_atom_escapeINS_11__wrap_iterIPKcEEEET_S9_S9_, symObjAddr: 0x10F2C, symBinAddr: 0x38714, symSize: 0x17C }
  - { offset: 0x1A6403, size: 0x8, addend: 0x0, symName: __ZNSt3__111basic_regexIcNS_12regex_traitsIcEEE26__parse_bracket_expressionINS_11__wrap_iterIPKcEEEET_S9_S9_, symObjAddr: 0x110A8, symBinAddr: 0x38890, symSize: 0x160 }
  - { offset: 0x1A6417, size: 0x8, addend: 0x0, symName: __ZNSt3__111basic_regexIcNS_12regex_traitsIcEEE25__parse_pattern_characterINS_11__wrap_iterIPKcEEEET_S9_S9_, symObjAddr: 0x11254, symBinAddr: 0x38A3C, symSize: 0x7C }
  - { offset: 0x1A65EC, size: 0x8, addend: 0x0, symName: __ZNSt3__111basic_regexIcNS_12regex_traitsIcEEE11__push_loopEmmPNS_16__owns_one_stateIcEEmmb, symObjAddr: 0x1573C, symBinAddr: 0x3CEA0, symSize: 0x13C }
  - { offset: 0x1A6B82, size: 0x8, addend: 0x0, symName: __ZNSt3__120__l_anchor_multilineIcED1Ev, symObjAddr: 0x108A0, symBinAddr: 0x38088, symSize: 0x48 }
  - { offset: 0x1A6BA6, size: 0x8, addend: 0x0, symName: __ZNSt3__120__l_anchor_multilineIcED1Ev, symObjAddr: 0x108A0, symBinAddr: 0x38088, symSize: 0x48 }
  - { offset: 0x1A6BC4, size: 0x8, addend: 0x0, symName: __ZNSt3__120__l_anchor_multilineIcED1Ev, symObjAddr: 0x108A0, symBinAddr: 0x38088, symSize: 0x48 }
  - { offset: 0x1A6C0F, size: 0x8, addend: 0x0, symName: __ZNSt3__120__l_anchor_multilineIcED0Ev, symObjAddr: 0x108E8, symBinAddr: 0x380D0, symSize: 0x48 }
  - { offset: 0x1A6C3F, size: 0x8, addend: 0x0, symName: __ZNSt3__120__l_anchor_multilineIcED0Ev, symObjAddr: 0x108E8, symBinAddr: 0x380D0, symSize: 0x48 }
  - { offset: 0x1A6C5D, size: 0x8, addend: 0x0, symName: __ZNSt3__120__l_anchor_multilineIcED0Ev, symObjAddr: 0x108E8, symBinAddr: 0x380D0, symSize: 0x48 }
  - { offset: 0x1A6C7B, size: 0x8, addend: 0x0, symName: __ZNSt3__120__l_anchor_multilineIcED0Ev, symObjAddr: 0x108E8, symBinAddr: 0x380D0, symSize: 0x48 }
  - { offset: 0x1A6CA6, size: 0x8, addend: 0x0, symName: __ZNKSt3__120__l_anchor_multilineIcE6__execERNS_7__stateIcEE, symObjAddr: 0x10930, symBinAddr: 0x38118, symSize: 0x68 }
  - { offset: 0x1A6D0E, size: 0x8, addend: 0x0, symName: __ZNSt3__120__r_anchor_multilineIcED1Ev, symObjAddr: 0x10998, symBinAddr: 0x38180, symSize: 0x48 }
  - { offset: 0x1A6D32, size: 0x8, addend: 0x0, symName: __ZNSt3__120__r_anchor_multilineIcED1Ev, symObjAddr: 0x10998, symBinAddr: 0x38180, symSize: 0x48 }
  - { offset: 0x1A6D50, size: 0x8, addend: 0x0, symName: __ZNSt3__120__r_anchor_multilineIcED1Ev, symObjAddr: 0x10998, symBinAddr: 0x38180, symSize: 0x48 }
  - { offset: 0x1A6D9B, size: 0x8, addend: 0x0, symName: __ZNSt3__120__r_anchor_multilineIcED0Ev, symObjAddr: 0x109E0, symBinAddr: 0x381C8, symSize: 0x48 }
  - { offset: 0x1A6DCB, size: 0x8, addend: 0x0, symName: __ZNSt3__120__r_anchor_multilineIcED0Ev, symObjAddr: 0x109E0, symBinAddr: 0x381C8, symSize: 0x48 }
  - { offset: 0x1A6DE9, size: 0x8, addend: 0x0, symName: __ZNSt3__120__r_anchor_multilineIcED0Ev, symObjAddr: 0x109E0, symBinAddr: 0x381C8, symSize: 0x48 }
  - { offset: 0x1A6E07, size: 0x8, addend: 0x0, symName: __ZNSt3__120__r_anchor_multilineIcED0Ev, symObjAddr: 0x109E0, symBinAddr: 0x381C8, symSize: 0x48 }
  - { offset: 0x1A6E32, size: 0x8, addend: 0x0, symName: __ZNKSt3__120__r_anchor_multilineIcE6__execERNS_7__stateIcEE, symObjAddr: 0x10A28, symBinAddr: 0x38210, symSize: 0x54 }
  - { offset: 0x1A6E9A, size: 0x8, addend: 0x0, symName: __ZNSt3__115__word_boundaryIcNS_12regex_traitsIcEEED1Ev, symObjAddr: 0x10A7C, symBinAddr: 0x38264, symSize: 0x58 }
  - { offset: 0x1A6F4E, size: 0x8, addend: 0x0, symName: __ZNSt3__115__word_boundaryIcNS_12regex_traitsIcEEED0Ev, symObjAddr: 0x10AD4, symBinAddr: 0x382BC, symSize: 0x58 }
  - { offset: 0x1A7068, size: 0x8, addend: 0x0, symName: __ZNKSt3__115__word_boundaryIcNS_12regex_traitsIcEEE6__execERNS_7__stateIcEE, symObjAddr: 0x10B2C, symBinAddr: 0x38314, symSize: 0x154 }
  - { offset: 0x1A722A, size: 0x8, addend: 0x0, symName: __ZNSt3__111__lookaheadIcNS_12regex_traitsIcEEED1Ev, symObjAddr: 0x10C80, symBinAddr: 0x38468, symSize: 0x94 }
  - { offset: 0x1A738E, size: 0x8, addend: 0x0, symName: __ZNSt3__111__lookaheadIcNS_12regex_traitsIcEEED0Ev, symObjAddr: 0x10D14, symBinAddr: 0x384FC, symSize: 0x94 }
  - { offset: 0x1A74FA, size: 0x8, addend: 0x0, symName: __ZNKSt3__111__lookaheadIcNS_12regex_traitsIcEEE6__execERNS_7__stateIcEE, symObjAddr: 0x10DA8, symBinAddr: 0x38590, symSize: 0x184 }
  - { offset: 0x1A7A93, size: 0x8, addend: 0x0, symName: __ZNSt3__111basic_regexIcNS_12regex_traitsIcEEE11__push_charEc, symObjAddr: 0x11A1C, symBinAddr: 0x39204, symSize: 0x144 }
  - { offset: 0x1A7DFE, size: 0x8, addend: 0x0, symName: __ZNSt3__111basic_regexIcNS_12regex_traitsIcEEE15__push_back_refEi, symObjAddr: 0x11BAC, symBinAddr: 0x39394, symSize: 0xD4 }
  - { offset: 0x1A7FB2, size: 0x8, addend: 0x0, symName: __ZNSt3__111basic_regexIcNS_12regex_traitsIcEEE30__parse_character_class_escapeINS_11__wrap_iterIPKcEEEET_S9_S9_, symObjAddr: 0x113AC, symBinAddr: 0x38B94, symSize: 0x25C }
  - { offset: 0x1A8421, size: 0x8, addend: 0x0, symName: __ZNSt3__111basic_regexIcNS_12regex_traitsIcEEE24__parse_character_escapeINS_11__wrap_iterIPKcEEEET_S9_S9_PNS_12basic_stringIcNS_11char_traitsIcEENS_9allocatorIcEEEE, symObjAddr: 0x11608, symBinAddr: 0x38DF0, symSize: 0x414 }
  - { offset: 0x1A88BB, size: 0x8, addend: 0x0, symName: __ZNSt3__111basic_regexIcNS_12regex_traitsIcEEE11__push_charEc, symObjAddr: 0x11A1C, symBinAddr: 0x39204, symSize: 0x144 }
  - { offset: 0x1A89A7, size: 0x8, addend: 0x0, symName: __ZNSt3__120__bracket_expressionIcNS_12regex_traitsIcEEEC2B9nqe210106ERKS2_PNS_6__nodeIcEEbbb, symObjAddr: 0x12550, symBinAddr: 0x39D38, symSize: 0x19C }
  - { offset: 0x1A8F6A, size: 0x8, addend: 0x0, symName: __ZNSt3__120__bracket_expressionIcNS_12regex_traitsIcEEE10__add_charB9nqe210106Ec, symObjAddr: 0x123C4, symBinAddr: 0x39BAC, symSize: 0x18C }
  - { offset: 0x1A927B, size: 0x8, addend: 0x0, symName: __ZNSt3__120__bracket_expressionIcNS_12regex_traitsIcEEEC2B9nqe210106ERKS2_PNS_6__nodeIcEEbbb, symObjAddr: 0x12550, symBinAddr: 0x39D38, symSize: 0x19C }
  - { offset: 0x1A9286, size: 0x8, addend: 0x0, symName: __ZNSt3__111basic_regexIcNS_12regex_traitsIcEEE23__parse_expression_termINS_11__wrap_iterIPKcEEEET_S9_S9_PNS_20__bracket_expressionIcS2_EE, symObjAddr: 0x13734, symBinAddr: 0x3AE98, symSize: 0x42C }
  - { offset: 0x1A9EE6, size: 0x8, addend: 0x0, symName: __ZNSt3__123__match_any_but_newlineIcED1Ev, symObjAddr: 0x112D0, symBinAddr: 0x38AB8, symSize: 0x48 }
  - { offset: 0x1A9F0A, size: 0x8, addend: 0x0, symName: __ZNSt3__123__match_any_but_newlineIcED1Ev, symObjAddr: 0x112D0, symBinAddr: 0x38AB8, symSize: 0x48 }
  - { offset: 0x1A9F28, size: 0x8, addend: 0x0, symName: __ZNSt3__123__match_any_but_newlineIcED1Ev, symObjAddr: 0x112D0, symBinAddr: 0x38AB8, symSize: 0x48 }
  - { offset: 0x1A9F73, size: 0x8, addend: 0x0, symName: __ZNSt3__123__match_any_but_newlineIcED0Ev, symObjAddr: 0x11318, symBinAddr: 0x38B00, symSize: 0x48 }
  - { offset: 0x1A9FA3, size: 0x8, addend: 0x0, symName: __ZNSt3__123__match_any_but_newlineIcED0Ev, symObjAddr: 0x11318, symBinAddr: 0x38B00, symSize: 0x48 }
  - { offset: 0x1A9FC1, size: 0x8, addend: 0x0, symName: __ZNSt3__123__match_any_but_newlineIcED0Ev, symObjAddr: 0x11318, symBinAddr: 0x38B00, symSize: 0x48 }
  - { offset: 0x1A9FDF, size: 0x8, addend: 0x0, symName: __ZNSt3__123__match_any_but_newlineIcED0Ev, symObjAddr: 0x11318, symBinAddr: 0x38B00, symSize: 0x48 }
  - { offset: 0x1AA385, size: 0x8, addend: 0x0, symName: __ZNSt3__118__match_char_icaseIcNS_12regex_traitsIcEEED1Ev, symObjAddr: 0x11C80, symBinAddr: 0x39468, symSize: 0x58 }
  - { offset: 0x1AA439, size: 0x8, addend: 0x0, symName: __ZNSt3__118__match_char_icaseIcNS_12regex_traitsIcEEED0Ev, symObjAddr: 0x11CD8, symBinAddr: 0x394C0, symSize: 0x58 }
  - { offset: 0x1AA4F5, size: 0x8, addend: 0x0, symName: __ZNKSt3__118__match_char_icaseIcNS_12regex_traitsIcEEE6__execERNS_7__stateIcEE, symObjAddr: 0x11D30, symBinAddr: 0x39518, symSize: 0x84 }
  - { offset: 0x1AA5B2, size: 0x8, addend: 0x0, symName: __ZNSt3__120__match_char_collateIcNS_12regex_traitsIcEEED1Ev, symObjAddr: 0x11DB4, symBinAddr: 0x3959C, symSize: 0x58 }
  - { offset: 0x1AA666, size: 0x8, addend: 0x0, symName: __ZNSt3__120__match_char_collateIcNS_12regex_traitsIcEEED0Ev, symObjAddr: 0x11E0C, symBinAddr: 0x395F4, symSize: 0x58 }
  - { offset: 0x1AA722, size: 0x8, addend: 0x0, symName: __ZNKSt3__120__match_char_collateIcNS_12regex_traitsIcEEE6__execERNS_7__stateIcEE, symObjAddr: 0x11E64, symBinAddr: 0x3964C, symSize: 0x44 }
  - { offset: 0x1AA793, size: 0x8, addend: 0x0, symName: __ZNSt3__112__match_charIcED1Ev, symObjAddr: 0x11EA8, symBinAddr: 0x39690, symSize: 0x48 }
  - { offset: 0x1AA7B7, size: 0x8, addend: 0x0, symName: __ZNSt3__112__match_charIcED1Ev, symObjAddr: 0x11EA8, symBinAddr: 0x39690, symSize: 0x48 }
  - { offset: 0x1AA7D5, size: 0x8, addend: 0x0, symName: __ZNSt3__112__match_charIcED1Ev, symObjAddr: 0x11EA8, symBinAddr: 0x39690, symSize: 0x48 }
  - { offset: 0x1AA820, size: 0x8, addend: 0x0, symName: __ZNSt3__112__match_charIcED0Ev, symObjAddr: 0x11EF0, symBinAddr: 0x396D8, symSize: 0x48 }
  - { offset: 0x1AA850, size: 0x8, addend: 0x0, symName: __ZNSt3__112__match_charIcED0Ev, symObjAddr: 0x11EF0, symBinAddr: 0x396D8, symSize: 0x48 }
  - { offset: 0x1AA86E, size: 0x8, addend: 0x0, symName: __ZNSt3__112__match_charIcED0Ev, symObjAddr: 0x11EF0, symBinAddr: 0x396D8, symSize: 0x48 }
  - { offset: 0x1AA88C, size: 0x8, addend: 0x0, symName: __ZNSt3__112__match_charIcED0Ev, symObjAddr: 0x11EF0, symBinAddr: 0x396D8, symSize: 0x48 }
  - { offset: 0x1AA8B7, size: 0x8, addend: 0x0, symName: __ZNKSt3__112__match_charIcE6__execERNS_7__stateIcEE, symObjAddr: 0x11F38, symBinAddr: 0x39720, symSize: 0x44 }
  - { offset: 0x1AA928, size: 0x8, addend: 0x0, symName: __ZNSt3__116__back_ref_icaseIcNS_12regex_traitsIcEEED1Ev, symObjAddr: 0x11F7C, symBinAddr: 0x39764, symSize: 0x58 }
  - { offset: 0x1AA9DC, size: 0x8, addend: 0x0, symName: __ZNSt3__116__back_ref_icaseIcNS_12regex_traitsIcEEED0Ev, symObjAddr: 0x11FD4, symBinAddr: 0x397BC, symSize: 0x58 }
  - { offset: 0x1AAA98, size: 0x8, addend: 0x0, symName: __ZNKSt3__116__back_ref_icaseIcNS_12regex_traitsIcEEE6__execERNS_7__stateIcEE, symObjAddr: 0x1202C, symBinAddr: 0x39814, symSize: 0xFC }
  - { offset: 0x1AAC03, size: 0x8, addend: 0x0, symName: __ZNSt3__118__back_ref_collateIcNS_12regex_traitsIcEEED1Ev, symObjAddr: 0x12128, symBinAddr: 0x39910, symSize: 0x58 }
  - { offset: 0x1AACB7, size: 0x8, addend: 0x0, symName: __ZNSt3__118__back_ref_collateIcNS_12regex_traitsIcEEED0Ev, symObjAddr: 0x12180, symBinAddr: 0x39968, symSize: 0x58 }
  - { offset: 0x1AAD73, size: 0x8, addend: 0x0, symName: __ZNKSt3__118__back_ref_collateIcNS_12regex_traitsIcEEE6__execERNS_7__stateIcEE, symObjAddr: 0x121D8, symBinAddr: 0x399C0, symSize: 0x8C }
  - { offset: 0x1AAE48, size: 0x8, addend: 0x0, symName: __ZNSt3__110__back_refIcED1Ev, symObjAddr: 0x12264, symBinAddr: 0x39A4C, symSize: 0x48 }
  - { offset: 0x1AAE6C, size: 0x8, addend: 0x0, symName: __ZNSt3__110__back_refIcED1Ev, symObjAddr: 0x12264, symBinAddr: 0x39A4C, symSize: 0x48 }
  - { offset: 0x1AAE8A, size: 0x8, addend: 0x0, symName: __ZNSt3__110__back_refIcED1Ev, symObjAddr: 0x12264, symBinAddr: 0x39A4C, symSize: 0x48 }
  - { offset: 0x1AAED5, size: 0x8, addend: 0x0, symName: __ZNSt3__110__back_refIcED0Ev, symObjAddr: 0x122AC, symBinAddr: 0x39A94, symSize: 0x48 }
  - { offset: 0x1AAF05, size: 0x8, addend: 0x0, symName: __ZNSt3__110__back_refIcED0Ev, symObjAddr: 0x122AC, symBinAddr: 0x39A94, symSize: 0x48 }
  - { offset: 0x1AAF23, size: 0x8, addend: 0x0, symName: __ZNSt3__110__back_refIcED0Ev, symObjAddr: 0x122AC, symBinAddr: 0x39A94, symSize: 0x48 }
  - { offset: 0x1AAF41, size: 0x8, addend: 0x0, symName: __ZNSt3__110__back_refIcED0Ev, symObjAddr: 0x122AC, symBinAddr: 0x39A94, symSize: 0x48 }
  - { offset: 0x1AAF6C, size: 0x8, addend: 0x0, symName: __ZNKSt3__110__back_refIcE6__execERNS_7__stateIcEE, symObjAddr: 0x122F4, symBinAddr: 0x39ADC, symSize: 0xD0 }
  - { offset: 0x1AB0E5, size: 0x8, addend: 0x0, symName: __ZNSt3__120__bracket_expressionIcNS_12regex_traitsIcEEE10__add_charB9nqe210106Ec, symObjAddr: 0x123C4, symBinAddr: 0x39BAC, symSize: 0x18C }
  - { offset: 0x1AB36D, size: 0x8, addend: 0x0, symName: __ZNSt3__16vectorIcNS_9allocatorIcEEE20__throw_length_errorB9nqe210106Ev, symObjAddr: 0x136D4, symBinAddr: 0x3AE38, symSize: 0x14 }
  - { offset: 0x1AB385, size: 0x8, addend: 0x0, symName: __ZNSt3__119__throw_regex_errorB9nqe210106ILNS_15regex_constants10error_typeE5EEEvv, symObjAddr: 0x136E8, symBinAddr: 0x3AE4C, symSize: 0x4C }
  - { offset: 0x1AB758, size: 0x8, addend: 0x0, symName: __ZNSt3__16vectorINS_4pairINS_12basic_stringIcNS_11char_traitsIcEENS_9allocatorIcEEEES7_EENS5_IS8_EEED1B9nqe210106Ev, symObjAddr: 0x1275C, symBinAddr: 0x39ED4, symSize: 0x94 }
  - { offset: 0x1ABD81, size: 0x8, addend: 0x0, symName: __ZNSt3__120__bracket_expressionIcNS_12regex_traitsIcEEED1Ev, symObjAddr: 0x127F0, symBinAddr: 0x39F68, symSize: 0x4 }
  - { offset: 0x1ABDA4, size: 0x8, addend: 0x0, symName: __ZNSt3__120__bracket_expressionIcNS_12regex_traitsIcEEED1Ev, symObjAddr: 0x127F0, symBinAddr: 0x39F68, symSize: 0x4 }
  - { offset: 0x1ABDB7, size: 0x8, addend: 0x0, symName: __ZNSt3__120__bracket_expressionIcNS_12regex_traitsIcEEED2Ev, symObjAddr: 0x13084, symBinAddr: 0x3A7E8, symSize: 0x148 }
  - { offset: 0x1AC6E7, size: 0x8, addend: 0x0, symName: __ZNSt3__120__bracket_expressionIcNS_12regex_traitsIcEEED0Ev, symObjAddr: 0x127F4, symBinAddr: 0x39F6C, symSize: 0x14 }
  - { offset: 0x1ACB4F, size: 0x8, addend: 0x0, symName: __ZNKSt3__120__bracket_expressionIcNS_12regex_traitsIcEEE6__execERNS_7__stateIcEE, symObjAddr: 0x12808, symBinAddr: 0x39F80, symSize: 0x810 }
  - { offset: 0x1AE297, size: 0x8, addend: 0x0, symName: __ZNKSt3__112regex_traitsIcE20__lookup_collatenameIPcEENS_12basic_stringIcNS_11char_traitsIcEENS_9allocatorIcEEEET_SA_c, symObjAddr: 0x132FC, symBinAddr: 0x3AA60, symSize: 0x244 }
  - { offset: 0x1AECEA, size: 0x8, addend: 0x0, symName: __ZNKSt3__112regex_traitsIcE9transformIPcEENS_12basic_stringIcNS_11char_traitsIcEENS_9allocatorIcEEEET_SA_, symObjAddr: 0x131CC, symBinAddr: 0x3A930, symSize: 0x130 }
  - { offset: 0x1AF25F, size: 0x8, addend: 0x0, symName: __ZNKSt3__112regex_traitsIcE19__transform_primaryIPcEENS_12basic_stringIcNS_11char_traitsIcEENS_9allocatorIcEEEET_SA_c, symObjAddr: 0x13540, symBinAddr: 0x3ACA4, symSize: 0x194 }
  - { offset: 0x1AF939, size: 0x8, addend: 0x0, symName: __ZNSt3__14pairINS_12basic_stringIcNS_11char_traitsIcEENS_9allocatorIcEEEES6_ED1Ev, symObjAddr: 0x1302C, symBinAddr: 0x3A790, symSize: 0x58 }
  - { offset: 0x1AFC0B, size: 0x8, addend: 0x0, symName: __ZNSt3__111basic_regexIcNS_12regex_traitsIcEEE25__parse_equivalence_classINS_11__wrap_iterIPKcEEEET_S9_S9_PNS_20__bracket_expressionIcS2_EE, symObjAddr: 0x13B60, symBinAddr: 0x3B2C4, symSize: 0x278 }
  - { offset: 0x1B05F1, size: 0x8, addend: 0x0, symName: __ZNSt3__111basic_regexIcNS_12regex_traitsIcEEE18__parse_awk_escapeINS_11__wrap_iterIPKcEEEET_S9_S9_PNS_12basic_stringIcNS_11char_traitsIcEENS_9allocatorIcEEEE, symObjAddr: 0x140F4, symBinAddr: 0x3B858, symSize: 0x2B4 }
  - { offset: 0x1B07CD, size: 0x8, addend: 0x0, symName: __ZNSt3__120__bracket_expressionIcNS_12regex_traitsIcEEE11__add_rangeB9nqe210106ENS_12basic_stringIcNS_11char_traitsIcEENS_9allocatorIcEEEES9_, symObjAddr: 0x143A8, symBinAddr: 0x3BB0C, symSize: 0x438 }
  - { offset: 0x1B07E1, size: 0x8, addend: 0x0, symName: __ZNSt3__111basic_regexIcNS_12regex_traitsIcEEE24__parse_collating_symbolINS_11__wrap_iterIPKcEEEET_S9_S9_RNS_12basic_stringIcNS_11char_traitsIcEENS_9allocatorIcEEEE, symObjAddr: 0x13E88, symBinAddr: 0x3B5EC, symSize: 0xE4 }
  - { offset: 0x1B0B2E, size: 0x8, addend: 0x0, symName: __ZNSt3__111basic_regexIcNS_12regex_traitsIcEEE20__parse_class_escapeINS_11__wrap_iterIPKcEEEET_S9_S9_RNS_12basic_stringIcNS_11char_traitsIcEENS_9allocatorIcEEEEPNS_20__bracket_expressionIcS2_EE, symObjAddr: 0x13F6C, symBinAddr: 0x3B6D0, symSize: 0x188 }
  - { offset: 0x1B0B42, size: 0x8, addend: 0x0, symName: __ZNSt3__111basic_regexIcNS_12regex_traitsIcEEE23__parse_character_classINS_11__wrap_iterIPKcEEEET_S9_S9_PNS_20__bracket_expressionIcS2_EE, symObjAddr: 0x13DD8, symBinAddr: 0x3B53C, symSize: 0xB0 }
  - { offset: 0x1B0DB6, size: 0x8, addend: 0x0, symName: __ZNSt3__111basic_regexIcNS_12regex_traitsIcEEE24__parse_collating_symbolINS_11__wrap_iterIPKcEEEET_S9_S9_RNS_12basic_stringIcNS_11char_traitsIcEENS_9allocatorIcEEEE, symObjAddr: 0x13E88, symBinAddr: 0x3B5EC, symSize: 0xE4 }
  - { offset: 0x1B0DD6, size: 0x8, addend: 0x0, symName: __ZNSt3__120__bracket_expressionIcNS_12regex_traitsIcEEE13__add_digraphB9nqe210106Ecc, symObjAddr: 0x147E0, symBinAddr: 0x3BF44, symSize: 0x1C0 }
  - { offset: 0x1B156A, size: 0x8, addend: 0x0, symName: __ZNSt3__119__throw_regex_errorB9nqe210106ILNS_15regex_constants10error_typeE1EEEvv, symObjAddr: 0x149A0, symBinAddr: 0x3C104, symSize: 0x4C }
  - { offset: 0x1B1575, size: 0x8, addend: 0x0, symName: __ZNSt3__111basic_regexIcNS_12regex_traitsIcEEE20__parse_class_escapeINS_11__wrap_iterIPKcEEEET_S9_S9_RNS_12basic_stringIcNS_11char_traitsIcEENS_9allocatorIcEEEEPNS_20__bracket_expressionIcS2_EE, symObjAddr: 0x13F6C, symBinAddr: 0x3B6D0, symSize: 0x188 }
  - { offset: 0x1B1749, size: 0x8, addend: 0x0, symName: __ZNSt3__111basic_regexIcNS_12regex_traitsIcEEE18__parse_awk_escapeINS_11__wrap_iterIPKcEEEET_S9_S9_PNS_12basic_stringIcNS_11char_traitsIcEENS_9allocatorIcEEEE, symObjAddr: 0x140F4, symBinAddr: 0x3B858, symSize: 0x2B4 }
  - { offset: 0x1B175D, size: 0x8, addend: 0x0, symName: __ZNSt3__120__bracket_expressionIcNS_12regex_traitsIcEEE11__add_rangeB9nqe210106ENS_12basic_stringIcNS_11char_traitsIcEENS_9allocatorIcEEEES9_, symObjAddr: 0x143A8, symBinAddr: 0x3BB0C, symSize: 0x438 }
  - { offset: 0x1B2AC5, size: 0x8, addend: 0x0, symName: __ZNKSt3__112regex_traitsIcE20__lookup_collatenameINS_11__wrap_iterIPKcEEEENS_12basic_stringIcNS_11char_traitsIcEENS_9allocatorIcEEEET_SD_c, symObjAddr: 0x149EC, symBinAddr: 0x3C150, symSize: 0x244 }
  - { offset: 0x1B352C, size: 0x8, addend: 0x0, symName: __ZNKSt3__112regex_traitsIcE19__transform_primaryINS_11__wrap_iterIPcEEEENS_12basic_stringIcNS_11char_traitsIcEENS_9allocatorIcEEEET_SC_c, symObjAddr: 0x14C30, symBinAddr: 0x3C394, symSize: 0x194 }
  - { offset: 0x1B3C1A, size: 0x8, addend: 0x0, symName: __ZNSt3__16vectorINS_12basic_stringIcNS_11char_traitsIcEENS_9allocatorIcEEEENS4_IS6_EEE24__emplace_back_slow_pathIJRKS6_EEEPS6_DpOT_, symObjAddr: 0x14DC4, symBinAddr: 0x3C528, symSize: 0x148 }
  - { offset: 0x1B4069, size: 0x8, addend: 0x0, symName: __ZNKSt3__112regex_traitsIcE18__lookup_classnameINS_11__wrap_iterIPKcEEEEjT_S7_bc, symObjAddr: 0x14FD0, symBinAddr: 0x3C734, symSize: 0x150 }
  - { offset: 0x1B46EA, size: 0x8, addend: 0x0, symName: __ZNSt3__120__bracket_expressionIcNS_12regex_traitsIcEEE14__add_neg_charB9nqe210106Ec, symObjAddr: 0x15120, symBinAddr: 0x3C884, symSize: 0x18C }
  - { offset: 0x1B4A05, size: 0x8, addend: 0x0, symName: __ZNSt3__16vectorINS_4pairINS_12basic_stringIcNS_11char_traitsIcEENS_9allocatorIcEEEES7_EENS5_IS8_EEE9push_backB9nqe210106EOS8_, symObjAddr: 0x152AC, symBinAddr: 0x3CA10, symSize: 0x164 }
  - { offset: 0x1B4AC8, size: 0x8, addend: 0x0, symName: __ZNKSt3__112regex_traitsIcE9transformINS_11__wrap_iterIPcEEEENS_12basic_stringIcNS_11char_traitsIcEENS_9allocatorIcEEEET_SC_, symObjAddr: 0x15410, symBinAddr: 0x3CB74, symSize: 0x130 }
  - { offset: 0x1B5074, size: 0x8, addend: 0x0, symName: __ZNSt3__16vectorINS_4pairINS_12basic_stringIcNS_11char_traitsIcEENS_9allocatorIcEEEES7_EENS5_IS8_EEE9push_backB9nqe210106EOS8_, symObjAddr: 0x152AC, symBinAddr: 0x3CA10, symSize: 0x164 }
  - { offset: 0x1B55BE, size: 0x8, addend: 0x0, symName: __ZNKSt3__112regex_traitsIcE9transformINS_11__wrap_iterIPcEEEENS_12basic_stringIcNS_11char_traitsIcEENS_9allocatorIcEEEET_SC_, symObjAddr: 0x15410, symBinAddr: 0x3CB74, symSize: 0x130 }
  - { offset: 0x1B58D1, size: 0x8, addend: 0x0, symName: __ZNSt3__16vectorINS_4pairIccEENS_9allocatorIS2_EEE20__throw_length_errorB9nqe210106Ev, symObjAddr: 0x155A0, symBinAddr: 0x3CD04, symSize: 0x14 }
  - { offset: 0x1B58E9, size: 0x8, addend: 0x0, symName: __ZNSt3__128__begin_marked_subexpressionIcED1Ev, symObjAddr: 0x155B4, symBinAddr: 0x3CD18, symSize: 0x48 }
  - { offset: 0x1B5D75, size: 0x8, addend: 0x0, symName: __ZNSt3__16vectorINS_12basic_stringIcNS_11char_traitsIcEENS_9allocatorIcEEEENS4_IS6_EEE20__throw_length_errorB9nqe210106Ev, symObjAddr: 0x14F70, symBinAddr: 0x3C6D4, symSize: 0x14 }
  - { offset: 0x1B5D8D, size: 0x8, addend: 0x0, symName: __ZNSt3__119__throw_regex_errorB9nqe210106ILNS_15regex_constants10error_typeE2EEEvv, symObjAddr: 0x14F84, symBinAddr: 0x3C6E8, symSize: 0x4C }
  - { offset: 0x1B5D98, size: 0x8, addend: 0x0, symName: __ZNSt3__114__split_bufferINS_12basic_stringIcNS_11char_traitsIcEENS_9allocatorIcEEEERNS4_IS6_EEED1Ev, symObjAddr: 0x14F0C, symBinAddr: 0x3C670, symSize: 0x64 }
  - { offset: 0x1B6306, size: 0x8, addend: 0x0, symName: __ZNSt3__16vectorINS_4pairINS_12basic_stringIcNS_11char_traitsIcEENS_9allocatorIcEEEES7_EENS5_IS8_EEE20__throw_length_errorB9nqe210106Ev, symObjAddr: 0x1558C, symBinAddr: 0x3CCF0, symSize: 0x14 }
  - { offset: 0x1B631E, size: 0x8, addend: 0x0, symName: __ZNSt3__16vectorINS_4pairIccEENS_9allocatorIS2_EEE20__throw_length_errorB9nqe210106Ev, symObjAddr: 0x155A0, symBinAddr: 0x3CD04, symSize: 0x14 }
  - { offset: 0x1B634A, size: 0x8, addend: 0x0, symName: __ZNSt3__128__begin_marked_subexpressionIcED1Ev, symObjAddr: 0x155B4, symBinAddr: 0x3CD18, symSize: 0x48 }
  - { offset: 0x1B636E, size: 0x8, addend: 0x0, symName: __ZNSt3__128__begin_marked_subexpressionIcED1Ev, symObjAddr: 0x155B4, symBinAddr: 0x3CD18, symSize: 0x48 }
  - { offset: 0x1B638C, size: 0x8, addend: 0x0, symName: __ZNSt3__128__begin_marked_subexpressionIcED1Ev, symObjAddr: 0x155B4, symBinAddr: 0x3CD18, symSize: 0x48 }
  - { offset: 0x1B63D7, size: 0x8, addend: 0x0, symName: __ZNSt3__128__begin_marked_subexpressionIcED0Ev, symObjAddr: 0x155FC, symBinAddr: 0x3CD60, symSize: 0x48 }
  - { offset: 0x1B6407, size: 0x8, addend: 0x0, symName: __ZNSt3__128__begin_marked_subexpressionIcED0Ev, symObjAddr: 0x155FC, symBinAddr: 0x3CD60, symSize: 0x48 }
  - { offset: 0x1B6425, size: 0x8, addend: 0x0, symName: __ZNSt3__128__begin_marked_subexpressionIcED0Ev, symObjAddr: 0x155FC, symBinAddr: 0x3CD60, symSize: 0x48 }
  - { offset: 0x1B6443, size: 0x8, addend: 0x0, symName: __ZNSt3__128__begin_marked_subexpressionIcED0Ev, symObjAddr: 0x155FC, symBinAddr: 0x3CD60, symSize: 0x48 }
  - { offset: 0x1B646E, size: 0x8, addend: 0x0, symName: __ZNKSt3__128__begin_marked_subexpressionIcE6__execERNS_7__stateIcEE, symObjAddr: 0x15644, symBinAddr: 0x3CDA8, symSize: 0x30 }
  - { offset: 0x1B64FE, size: 0x8, addend: 0x0, symName: __ZNSt3__126__end_marked_subexpressionIcED1Ev, symObjAddr: 0x15674, symBinAddr: 0x3CDD8, symSize: 0x48 }
  - { offset: 0x1B6522, size: 0x8, addend: 0x0, symName: __ZNSt3__126__end_marked_subexpressionIcED1Ev, symObjAddr: 0x15674, symBinAddr: 0x3CDD8, symSize: 0x48 }
  - { offset: 0x1B6540, size: 0x8, addend: 0x0, symName: __ZNSt3__126__end_marked_subexpressionIcED1Ev, symObjAddr: 0x15674, symBinAddr: 0x3CDD8, symSize: 0x48 }
  - { offset: 0x1B658B, size: 0x8, addend: 0x0, symName: __ZNSt3__126__end_marked_subexpressionIcED0Ev, symObjAddr: 0x156BC, symBinAddr: 0x3CE20, symSize: 0x48 }
  - { offset: 0x1B65BB, size: 0x8, addend: 0x0, symName: __ZNSt3__126__end_marked_subexpressionIcED0Ev, symObjAddr: 0x156BC, symBinAddr: 0x3CE20, symSize: 0x48 }
  - { offset: 0x1B65D9, size: 0x8, addend: 0x0, symName: __ZNSt3__126__end_marked_subexpressionIcED0Ev, symObjAddr: 0x156BC, symBinAddr: 0x3CE20, symSize: 0x48 }
  - { offset: 0x1B65F7, size: 0x8, addend: 0x0, symName: __ZNSt3__126__end_marked_subexpressionIcED0Ev, symObjAddr: 0x156BC, symBinAddr: 0x3CE20, symSize: 0x48 }
  - { offset: 0x1B6622, size: 0x8, addend: 0x0, symName: __ZNKSt3__126__end_marked_subexpressionIcE6__execERNS_7__stateIcEE, symObjAddr: 0x15704, symBinAddr: 0x3CE68, symSize: 0x38 }
  - { offset: 0x1B68B9, size: 0x8, addend: 0x0, symName: __ZNSt3__16__loopIcED0Ev, symObjAddr: 0x15978, symBinAddr: 0x3D0DC, symSize: 0x68 }
  - { offset: 0x1B69B2, size: 0x8, addend: 0x0, symName: __ZNSt3__16__loopIcED1Ev, symObjAddr: 0x15910, symBinAddr: 0x3D074, symSize: 0x68 }
  - { offset: 0x1B6AD9, size: 0x8, addend: 0x0, symName: __ZNKSt3__16__loopIcE6__execERNS_7__stateIcEE, symObjAddr: 0x159E0, symBinAddr: 0x3D144, symSize: 0x1D0 }
  - { offset: 0x1B6C16, size: 0x8, addend: 0x0, symName: __ZNKSt3__16__loopIcE12__exec_splitEbRNS_7__stateIcEE, symObjAddr: 0x15BB0, symBinAddr: 0x3D314, symSize: 0xC8 }
  - { offset: 0x1B6CEB, size: 0x8, addend: 0x0, symName: __ZNSt3__117__owns_two_statesIcED1Ev, symObjAddr: 0x15C78, symBinAddr: 0x3D3DC, symSize: 0x68 }
  - { offset: 0x1B6D7D, size: 0x8, addend: 0x0, symName: __ZNSt3__117__owns_two_statesIcED0Ev, symObjAddr: 0x15CE0, symBinAddr: 0x3D444, symSize: 0x68 }
  - { offset: 0x1B6E17, size: 0x8, addend: 0x0, symName: __ZNSt3__117__repeat_one_loopIcED1Ev, symObjAddr: 0x15D48, symBinAddr: 0x3D4AC, symSize: 0x4 }
  - { offset: 0x1B6E47, size: 0x8, addend: 0x0, symName: __ZNSt3__117__repeat_one_loopIcED0Ev, symObjAddr: 0x15D4C, symBinAddr: 0x3D4B0, symSize: 0x4 }
  - { offset: 0x1B6E73, size: 0x8, addend: 0x0, symName: __ZNKSt3__117__repeat_one_loopIcE6__execERNS_7__stateIcEE, symObjAddr: 0x15D50, symBinAddr: 0x3D4B4, symSize: 0x14 }
  - { offset: 0x1B6EE4, size: 0x8, addend: 0x0, symName: __ZNSt3__111__alternateIcED1Ev, symObjAddr: 0x15D64, symBinAddr: 0x3D4C8, symSize: 0x68 }
  - { offset: 0x1B6F96, size: 0x8, addend: 0x0, symName: __ZNSt3__111__alternateIcED0Ev, symObjAddr: 0x15DCC, symBinAddr: 0x3D530, symSize: 0x68 }
  - { offset: 0x1B7050, size: 0x8, addend: 0x0, symName: __ZNKSt3__111__alternateIcE6__execERNS_7__stateIcEE, symObjAddr: 0x15E34, symBinAddr: 0x3D598, symSize: 0xC }
  - { offset: 0x1B7083, size: 0x8, addend: 0x0, symName: __ZNKSt3__111__alternateIcE12__exec_splitEbRNS_7__stateIcEE, symObjAddr: 0x15E40, symBinAddr: 0x3D5A4, symSize: 0x24 }
  - { offset: 0x1B70C9, size: 0x8, addend: 0x0, symName: __ZNSt3__121__empty_non_own_stateIcED1Ev, symObjAddr: 0x15E64, symBinAddr: 0x3D5C8, symSize: 0x4 }
  - { offset: 0x1B70F9, size: 0x8, addend: 0x0, symName: __ZNSt3__121__empty_non_own_stateIcED0Ev, symObjAddr: 0x15E68, symBinAddr: 0x3D5CC, symSize: 0x4 }
  - { offset: 0x1B7125, size: 0x8, addend: 0x0, symName: __ZNKSt3__121__empty_non_own_stateIcE6__execERNS_7__stateIcEE, symObjAddr: 0x15E6C, symBinAddr: 0x3D5D0, symSize: 0x14 }
  - { offset: 0x1B745D, size: 0x8, addend: 0x0, symName: __ZNSt3__111__match_anyIcED1Ev, symObjAddr: 0x16468, symBinAddr: 0x3DBCC, symSize: 0x48 }
  - { offset: 0x1B7481, size: 0x8, addend: 0x0, symName: __ZNSt3__111__match_anyIcED1Ev, symObjAddr: 0x16468, symBinAddr: 0x3DBCC, symSize: 0x48 }
  - { offset: 0x1B749F, size: 0x8, addend: 0x0, symName: __ZNSt3__111__match_anyIcED1Ev, symObjAddr: 0x16468, symBinAddr: 0x3DBCC, symSize: 0x48 }
  - { offset: 0x1B74EA, size: 0x8, addend: 0x0, symName: __ZNSt3__111__match_anyIcED0Ev, symObjAddr: 0x164B0, symBinAddr: 0x3DC14, symSize: 0x48 }
  - { offset: 0x1B751A, size: 0x8, addend: 0x0, symName: __ZNSt3__111__match_anyIcED0Ev, symObjAddr: 0x164B0, symBinAddr: 0x3DC14, symSize: 0x48 }
  - { offset: 0x1B7538, size: 0x8, addend: 0x0, symName: __ZNSt3__111__match_anyIcED0Ev, symObjAddr: 0x164B0, symBinAddr: 0x3DC14, symSize: 0x48 }
  - { offset: 0x1B7556, size: 0x8, addend: 0x0, symName: __ZNSt3__111__match_anyIcED0Ev, symObjAddr: 0x164B0, symBinAddr: 0x3DC14, symSize: 0x48 }
  - { offset: 0x1B7581, size: 0x8, addend: 0x0, symName: __ZNKSt3__111__match_anyIcE6__execERNS_7__stateIcEE, symObjAddr: 0x164F8, symBinAddr: 0x3DC5C, symSize: 0x3C }
  - { offset: 0x1B75D1, size: 0x8, addend: 0x0, symName: __ZNSt3__111basic_regexIcNS_12regex_traitsIcEEE15__test_back_refEc, symObjAddr: 0x16534, symBinAddr: 0x3DC98, symSize: 0x60 }
  - { offset: 0x1B769F, size: 0x8, addend: 0x0, symName: __ZNSt3__111basic_regexIcNS_12regex_traitsIcEEE22__parse_ERE_expressionINS_11__wrap_iterIPKcEEEET_S9_S9_, symObjAddr: 0x16594, symBinAddr: 0x3DCF8, symSize: 0x258 }
  - { offset: 0x1B76ED, size: 0x8, addend: 0x0, symName: __ZNSt3__111basic_regexIcNS_12regex_traitsIcEEE20__parse_ORD_CHAR_EREINS_11__wrap_iterIPKcEEEET_S9_S9_, symObjAddr: 0x167EC, symBinAddr: 0x3DF50, symSize: 0x94 }
  - { offset: 0x1B775F, size: 0x8, addend: 0x0, symName: __ZNSt3__111basic_regexIcNS_12regex_traitsIcEEE23__parse_QUOTED_CHAR_EREINS_11__wrap_iterIPKcEEEET_S9_S9_, symObjAddr: 0x16880, symBinAddr: 0x3DFE4, symSize: 0xD4 }
  - { offset: 0x1B797D, size: 0x8, addend: 0x0, symName: __ZNSt3__128__exception_guard_exceptionsINS_29_AllocatorDestroyRangeReverseINS_9allocatorINS_6vectorI21llama_grammar_elementNS2_IS4_EEEEEEPS6_EEED1B9nqe210106Ev, symObjAddr: 0x16AD8, symBinAddr: 0x3E1B0, symSize: 0x6C }
  - { offset: 0x1B7D6D, size: 0x8, addend: 0x0, symName: _OUTLINED_FUNCTION_0, symObjAddr: 0x170E8, symBinAddr: 0x3E790, symSize: 0x14 }
  - { offset: 0x1B9BBF, size: 0x8, addend: 0x0, symName: __ZTV20llm_graph_input_embd, symObjAddr: 0xDB60, symBinAddr: 0x313640, symSize: 0x0 }
  - { offset: 0x1E9E4A, size: 0x8, addend: 0x0, symName: __ZNSt3__125__throw_bad_function_callB9nqe210106Ev, symObjAddr: 0xC718, symBinAddr: 0x4A86C, symSize: 0x34 }
  - { offset: 0x1EA08C, size: 0x8, addend: 0x0, symName: __ZNSt3__111make_uniqueB9nqe210106I24llm_graph_input_samplingJRKNS_3mapIiP13llama_samplerNS_4lessIiEENS_9allocatorINS_4pairIKiS4_EEEEEEELi0EEENS_10unique_ptrIT_NS_14default_deleteISG_EEEEDpOT0_, symObjAddr: 0xB258, symBinAddr: 0x49920, symSize: 0xF4 }
  - { offset: 0x1F0582, size: 0x8, addend: 0x0, symName: __ZTV19llm_graph_input_pos, symObjAddr: 0xDBB8, symBinAddr: 0x313698, symSize: 0x0 }
  - { offset: 0x1F0648, size: 0x8, addend: 0x0, symName: __ZTV25llm_graph_input_attn_temp, symObjAddr: 0xDC00, symBinAddr: 0x3136E0, symSize: 0x0 }
  - { offset: 0x1F070F, size: 0x8, addend: 0x0, symName: __ZTV26llm_graph_input_pos_bucket, symObjAddr: 0xDC48, symBinAddr: 0x313728, symSize: 0x0 }
  - { offset: 0x1F07BA, size: 0x8, addend: 0x0, symName: __ZTV29llm_graph_input_pos_bucket_kv, symObjAddr: 0xDC90, symBinAddr: 0x313770, symSize: 0x0 }
  - { offset: 0x1F2AF8, size: 0x8, addend: 0x0, symName: __ZTV23llm_graph_input_out_ids, symObjAddr: 0xDCD8, symBinAddr: 0x3137B8, symSize: 0x0 }
  - { offset: 0x1F2BE8, size: 0x8, addend: 0x0, symName: __ZTV20llm_graph_input_mean, symObjAddr: 0xDD20, symBinAddr: 0x313800, symSize: 0x0 }
  - { offset: 0x1F2C8B, size: 0x8, addend: 0x0, symName: __ZTV19llm_graph_input_cls, symObjAddr: 0xDD68, symBinAddr: 0x313848, symSize: 0x0 }
  - { offset: 0x1F2D45, size: 0x8, addend: 0x0, symName: __ZTV18llm_graph_input_rs, symObjAddr: 0xDDB0, symBinAddr: 0x313890, symSize: 0x0 }
  - { offset: 0x1F35A4, size: 0x8, addend: 0x0, symName: __ZTV26llm_graph_input_cross_embd, symObjAddr: 0xDDF8, symBinAddr: 0x3138D8, symSize: 0x0 }
  - { offset: 0x1F3649, size: 0x8, addend: 0x0, symName: __ZTV29llm_graph_input_attn_no_cache, symObjAddr: 0xDE40, symBinAddr: 0x313920, symSize: 0x0 }
  - { offset: 0x1F376C, size: 0x8, addend: 0x0, symName: __ZTV23llm_graph_input_attn_kv, symObjAddr: 0xDE88, symBinAddr: 0x313968, symSize: 0x0 }
  - { offset: 0x1F38FC, size: 0x8, addend: 0x0, symName: __ZTV22llm_graph_input_attn_k, symObjAddr: 0xDED0, symBinAddr: 0x3139B0, symSize: 0x0 }
  - { offset: 0x1F3A4B, size: 0x8, addend: 0x0, symName: __ZTV28llm_graph_input_attn_kv_iswa, symObjAddr: 0xDF18, symBinAddr: 0x3139F8, symSize: 0x0 }
  - { offset: 0x1F4196, size: 0x8, addend: 0x0, symName: __ZTV26llm_graph_input_attn_cross, symObjAddr: 0xDF60, symBinAddr: 0x313A40, symSize: 0x0 }
  - { offset: 0x1F426F, size: 0x8, addend: 0x0, symName: __ZTV26llm_graph_input_mem_hybrid, symObjAddr: 0xDFA8, symBinAddr: 0x313A88, symSize: 0x0 }
  - { offset: 0x1F4952, size: 0x8, addend: 0x0, symName: __ZTV28llm_graph_input_mem_hybrid_k, symObjAddr: 0xDFF0, symBinAddr: 0x313AD0, symSize: 0x0 }
  - { offset: 0x1F4ACF, size: 0x8, addend: 0x0, symName: __ZTV31llm_graph_input_mem_hybrid_iswa, symObjAddr: 0xE038, symBinAddr: 0x313B18, symSize: 0x0 }
  - { offset: 0x1F516C, size: 0x8, addend: 0x0, symName: __ZTV24llm_graph_input_sampling, symObjAddr: 0xE080, symBinAddr: 0x313B60, symSize: 0x0 }
  - { offset: 0x1F522C, size: 0x8, addend: 0x0, symName: __ZTV16llm_graph_result, symObjAddr: 0xDB20, symBinAddr: 0x313600, symSize: 0x0 }
  - { offset: 0x1F5241, size: 0x8, addend: 0x0, symName: __ZTV17llm_graph_context, symObjAddr: 0xDB40, symBinAddr: 0x313620, symSize: 0x0 }
  - { offset: 0x1F5D69, size: 0x8, addend: 0x0, symName: __ZTV17llm_graph_input_i, symObjAddr: 0xE0E8, symBinAddr: 0x313BC8, symSize: 0x0 }
  - { offset: 0x1F5D83, size: 0x8, addend: 0x0, symName: __ZTVNSt3__117bad_function_callE, symObjAddr: 0xE130, symBinAddr: 0x313C10, symSize: 0x0 }
  - { offset: 0x1F5DAF, size: 0x8, addend: 0x0, symName: __ZTVNSt3__110__function6__funcIPFP11ggml_tensorP12ggml_contextS3_S3_ES6_EE, symObjAddr: 0xE158, symBinAddr: 0x313C38, symSize: 0x0 }
  - { offset: 0x1F65B0, size: 0x8, addend: 0x0, symName: __ZN20llm_graph_input_embd9set_inputEPK12llama_ubatch, symObjAddr: 0x0, symBinAddr: 0x3E7A4, symSize: 0xD8 }
  - { offset: 0x1F667A, size: 0x8, addend: 0x0, symName: __ZN20llm_graph_input_embd9can_reuseERK16llm_graph_params, symObjAddr: 0xD8, symBinAddr: 0x3E87C, symSize: 0x68 }
  - { offset: 0x1F66D6, size: 0x8, addend: 0x0, symName: __ZN20llm_graph_input_embd9can_reuseERK16llm_graph_params, symObjAddr: 0xD8, symBinAddr: 0x3E87C, symSize: 0x68 }
  - { offset: 0x1F69D6, size: 0x8, addend: 0x0, symName: __ZN19llm_graph_input_pos9set_inputEPK12llama_ubatch, symObjAddr: 0x140, symBinAddr: 0x3E8E4, symSize: 0x1F8 }
  - { offset: 0x1F6D8C, size: 0x8, addend: 0x0, symName: __ZN19llm_graph_input_pos9can_reuseERK16llm_graph_params, symObjAddr: 0x338, symBinAddr: 0x3EADC, symSize: 0x24 }
  - { offset: 0x1F7051, size: 0x8, addend: 0x0, symName: __ZN25llm_graph_input_attn_temp9set_inputEPK12llama_ubatch, symObjAddr: 0x35C, symBinAddr: 0x3EB00, symSize: 0x26C }
  - { offset: 0x1F747A, size: 0x8, addend: 0x0, symName: __ZN26llm_graph_input_pos_bucket9set_inputEPK12llama_ubatch, symObjAddr: 0x5C8, symBinAddr: 0x3ED6C, symSize: 0x3A8 }
  - { offset: 0x1F75B6, size: 0x8, addend: 0x0, symName: __Z30llama_relative_position_bucketiiyb, symObjAddr: 0x970, symBinAddr: 0x3F114, symSize: 0xAC }
  - { offset: 0x1F75DB, size: 0x8, addend: 0x0, symName: __Z30llama_relative_position_bucketiiyb, symObjAddr: 0x970, symBinAddr: 0x3F114, symSize: 0xAC }
  - { offset: 0x1F7640, size: 0x8, addend: 0x0, symName: __ZN29llm_graph_input_pos_bucket_kv9set_inputEPK12llama_ubatch, symObjAddr: 0xA1C, symBinAddr: 0x3F1C0, symSize: 0x18 }
  - { offset: 0x1F7678, size: 0x8, addend: 0x0, symName: __ZN23llm_graph_input_out_ids9set_inputEPK12llama_ubatch, symObjAddr: 0xA34, symBinAddr: 0x3F1D8, symSize: 0x164 }
  - { offset: 0x1F774A, size: 0x8, addend: 0x0, symName: __ZN23llm_graph_input_out_ids9can_reuseERK16llm_graph_params, symObjAddr: 0xB98, symBinAddr: 0x3F33C, symSize: 0x1C }
  - { offset: 0x1F775D, size: 0x8, addend: 0x0, symName: __ZN23llm_graph_input_out_ids9can_reuseERK16llm_graph_params, symObjAddr: 0xB98, symBinAddr: 0x3F33C, symSize: 0x1C }
  - { offset: 0x1F7A22, size: 0x8, addend: 0x0, symName: __ZN20llm_graph_input_mean9set_inputEPK12llama_ubatch, symObjAddr: 0xBB4, symBinAddr: 0x3F358, symSize: 0x3E0 }
  - { offset: 0x1F81C6, size: 0x8, addend: 0x0, symName: __ZN19llm_graph_input_cls9set_inputEPK12llama_ubatch, symObjAddr: 0xF94, symBinAddr: 0x3F738, symSize: 0x368 }
  - { offset: 0x1F8768, size: 0x8, addend: 0x0, symName: __ZN18llm_graph_input_rs9set_inputEPK12llama_ubatch, symObjAddr: 0x12FC, symBinAddr: 0x3FAA0, symSize: 0xA0 }
  - { offset: 0x1F87EA, size: 0x8, addend: 0x0, symName: __ZN18llm_graph_input_rs9can_reuseERK16llm_graph_params, symObjAddr: 0x139C, symBinAddr: 0x3FB40, symSize: 0xB4 }
  - { offset: 0x1F87FD, size: 0x8, addend: 0x0, symName: __ZN18llm_graph_input_rs9can_reuseERK16llm_graph_params, symObjAddr: 0x139C, symBinAddr: 0x3FB40, symSize: 0xB4 }
  - { offset: 0x1F8873, size: 0x8, addend: 0x0, symName: __ZN26llm_graph_input_cross_embd9set_inputEPK12llama_ubatch, symObjAddr: 0x1450, symBinAddr: 0x3FBF4, symSize: 0x54 }
  - { offset: 0x1F8903, size: 0x8, addend: 0x0, symName: __ZN29llm_graph_input_attn_no_cache9set_inputEPK12llama_ubatch, symObjAddr: 0x14A4, symBinAddr: 0x3FC48, symSize: 0x348 }
  - { offset: 0x1F8CFB, size: 0x8, addend: 0x0, symName: __ZL10print_maskPKfxxx14llama_swa_type, symObjAddr: 0x17EC, symBinAddr: 0x3FF90, symSize: 0x20C }
  - { offset: 0x1F8E48, size: 0x8, addend: 0x0, symName: __ZL10print_maskPKfxxx14llama_swa_type, symObjAddr: 0x17EC, symBinAddr: 0x3FF90, symSize: 0x20C }
  - { offset: 0x1F904F, size: 0x8, addend: 0x0, symName: __ZN23llm_graph_input_attn_kv9set_inputEPK12llama_ubatch, symObjAddr: 0x19F8, symBinAddr: 0x4019C, symSize: 0x80 }
  - { offset: 0x1F90F3, size: 0x8, addend: 0x0, symName: __ZN23llm_graph_input_attn_kv9can_reuseERK16llm_graph_params, symObjAddr: 0x1A78, symBinAddr: 0x4021C, symSize: 0x7C }
  - { offset: 0x1F9197, size: 0x8, addend: 0x0, symName: __ZN22llm_graph_input_attn_k9set_inputEPK12llama_ubatch, symObjAddr: 0x1AF4, symBinAddr: 0x40298, symSize: 0x44 }
  - { offset: 0x1F91D1, size: 0x8, addend: 0x0, symName: __ZN22llm_graph_input_attn_k9can_reuseERK16llm_graph_params, symObjAddr: 0x1B38, symBinAddr: 0x402DC, symSize: 0x78 }
  - { offset: 0x1F9275, size: 0x8, addend: 0x0, symName: __ZN28llm_graph_input_attn_kv_iswa9set_inputEPK12llama_ubatch, symObjAddr: 0x1BB0, symBinAddr: 0x40354, symSize: 0x118 }
  - { offset: 0x1F92AF, size: 0x8, addend: 0x0, symName: __ZN28llm_graph_input_attn_kv_iswa9can_reuseERK16llm_graph_params, symObjAddr: 0x1CC8, symBinAddr: 0x4046C, symSize: 0xE0 }
  - { offset: 0x1F9473, size: 0x8, addend: 0x0, symName: __ZN26llm_graph_input_attn_cross9set_inputEPK12llama_ubatch, symObjAddr: 0x1DA8, symBinAddr: 0x4054C, symSize: 0x20C }
  - { offset: 0x1F969C, size: 0x8, addend: 0x0, symName: __ZN26llm_graph_input_mem_hybrid9set_inputEPK12llama_ubatch, symObjAddr: 0x1FB4, symBinAddr: 0x40758, symSize: 0x140 }
  - { offset: 0x1F96E7, size: 0x8, addend: 0x0, symName: __ZN26llm_graph_input_mem_hybrid9set_inputEPK12llama_ubatch, symObjAddr: 0x1FB4, symBinAddr: 0x40758, symSize: 0x140 }
  - { offset: 0x1F985B, size: 0x8, addend: 0x0, symName: __ZN26llm_graph_input_mem_hybrid9can_reuseERK16llm_graph_params, symObjAddr: 0x20F4, symBinAddr: 0x40898, symSize: 0x160 }
  - { offset: 0x1F986E, size: 0x8, addend: 0x0, symName: __ZN26llm_graph_input_mem_hybrid9can_reuseERK16llm_graph_params, symObjAddr: 0x20F4, symBinAddr: 0x40898, symSize: 0x160 }
  - { offset: 0x1F99C3, size: 0x8, addend: 0x0, symName: __ZN28llm_graph_input_mem_hybrid_k9set_inputEPK12llama_ubatch, symObjAddr: 0x2254, symBinAddr: 0x409F8, symSize: 0xE8 }
  - { offset: 0x1F9AA6, size: 0x8, addend: 0x0, symName: __ZN28llm_graph_input_mem_hybrid_k9can_reuseERK16llm_graph_params, symObjAddr: 0x233C, symBinAddr: 0x40AE0, symSize: 0x15C }
  - { offset: 0x1F9AB9, size: 0x8, addend: 0x0, symName: __ZN28llm_graph_input_mem_hybrid_k9can_reuseERK16llm_graph_params, symObjAddr: 0x233C, symBinAddr: 0x40AE0, symSize: 0x15C }
  - { offset: 0x1F9C0E, size: 0x8, addend: 0x0, symName: __ZN31llm_graph_input_mem_hybrid_iswa9set_inputEPK12llama_ubatch, symObjAddr: 0x2498, symBinAddr: 0x40C3C, symSize: 0x200 }
  - { offset: 0x1F9E81, size: 0x8, addend: 0x0, symName: __ZN31llm_graph_input_mem_hybrid_iswa9can_reuseERK16llm_graph_params, symObjAddr: 0x2698, symBinAddr: 0x40E3C, symSize: 0x1B4 }
  - { offset: 0x1F9E94, size: 0x8, addend: 0x0, symName: __ZN31llm_graph_input_mem_hybrid_iswa9can_reuseERK16llm_graph_params, symObjAddr: 0x2698, symBinAddr: 0x40E3C, symSize: 0x1B4 }
  - { offset: 0x1FA9C0, size: 0x8, addend: 0x0, symName: __ZN24llm_graph_input_sampling9set_inputEPK12llama_ubatch, symObjAddr: 0x284C, symBinAddr: 0x40FF0, symSize: 0x200 }
  - { offset: 0x1FB24D, size: 0x8, addend: 0x0, symName: __ZNSt3__112__hash_tableIiNS_4hashIiEENS_8equal_toIiEENS_9allocatorIiEEE25__emplace_unique_key_argsIiJRKiEEENS_4pairINS_15__hash_iteratorIPNS_11__hash_nodeIiPvEEEEbEERKT_DpOT0_, symObjAddr: 0xBF80, symBinAddr: 0x4A37C, symSize: 0x30C }
  - { offset: 0x1FB866, size: 0x8, addend: 0x0, symName: __ZNSt3__113unordered_setIiNS_4hashIiEENS_8equal_toIiEENS_9allocatorIiEEED1B9nqe210106Ev, symObjAddr: 0x2A4C, symBinAddr: 0x411F0, symSize: 0x48 }
  - { offset: 0x1FBB87, size: 0x8, addend: 0x0, symName: __ZN24llm_graph_input_sampling9can_reuseERK16llm_graph_params, symObjAddr: 0x2A94, symBinAddr: 0x41238, symSize: 0x150 }
  - { offset: 0x1FBBC3, size: 0x8, addend: 0x0, symName: __ZN24llm_graph_input_sampling9can_reuseERK16llm_graph_params, symObjAddr: 0x2A94, symBinAddr: 0x41238, symSize: 0x150 }
  - { offset: 0x1FC4AC, size: 0x8, addend: 0x0, symName: __ZN16llm_graph_resultC2Ex, symObjAddr: 0x2BE4, symBinAddr: 0x41388, symSize: 0x27C }
  - { offset: 0x1FCC5B, size: 0x8, addend: 0x0, symName: __ZN16llm_graph_result5resetEv, symObjAddr: 0x2E60, symBinAddr: 0x41604, symSize: 0x600 }
  - { offset: 0x1FDAAE, size: 0x8, addend: 0x0, symName: __ZNSt3__16vectorINS_10unique_ptrI17llm_graph_input_iNS_14default_deleteIS2_EEEENS_9allocatorIS5_EEED1B9nqe210106Ev, symObjAddr: 0x353C, symBinAddr: 0x41C04, symSize: 0x74 }
  - { offset: 0x1FDCB3, size: 0x8, addend: 0x0, symName: __ZNSt3__16__treeINS_12__value_typeIiP11ggml_tensorEENS_19__map_value_compareIiNS_4pairIKiS3_EENS_4lessIiEELb1EEENS_9allocatorIS8_EEE7destroyEPNS_11__tree_nodeIS4_PvEE, symObjAddr: 0xC418, symBinAddr: 0x4A814, symSize: 0x44 }
  - { offset: 0x1FE8BD, size: 0x8, addend: 0x0, symName: __ZNSt3__16vectorINS_10unique_ptrI17llm_graph_input_iNS_14default_deleteIS2_EEEENS_9allocatorIS5_EEE20__throw_length_errorB9nqe210106Ev, symObjAddr: 0xC470, symBinAddr: 0x4A858, symSize: 0x14 }
  - { offset: 0x1FE97E, size: 0x8, addend: 0x0, symName: __ZN16llm_graph_resultC1Ex, symObjAddr: 0x35B0, symBinAddr: 0x41C78, symSize: 0x4 }
  - { offset: 0x1FE9BB, size: 0x8, addend: 0x0, symName: __ZN16llm_graph_resultC1Ex, symObjAddr: 0x35B0, symBinAddr: 0x41C78, symSize: 0x4 }
  - { offset: 0x1FE9D5, size: 0x8, addend: 0x0, symName: __ZNK16llm_graph_result13get_max_nodesEv, symObjAddr: 0x35B4, symBinAddr: 0x41C7C, symSize: 0x8 }
  - { offset: 0x1FEA2B, size: 0x8, addend: 0x0, symName: __ZN16llm_graph_result10set_inputsEPK12llama_ubatch, symObjAddr: 0x35BC, symBinAddr: 0x41C84, symSize: 0x4C }
  - { offset: 0x1FEBB3, size: 0x8, addend: 0x0, symName: __ZN16llm_graph_result11set_outputsEv, symObjAddr: 0x3608, symBinAddr: 0x41CD0, symSize: 0x1A8 }
  - { offset: 0x1FF24D, size: 0x8, addend: 0x0, symName: __ZN16llm_graph_result9can_reuseERK16llm_graph_params, symObjAddr: 0x37B0, symBinAddr: 0x41E78, symSize: 0x150 }
  - { offset: 0x1FF3E5, size: 0x8, addend: 0x0, symName: __ZNK16llm_graph_params11allow_reuseERKS_, symObjAddr: 0x3900, symBinAddr: 0x41FC8, symSize: 0x3AC }
  - { offset: 0x1FFD2A, size: 0x8, addend: 0x0, symName: __ZN16llm_graph_result9add_inputENSt3__110unique_ptrI17llm_graph_input_iNS0_14default_deleteIS2_EEEE, symObjAddr: 0x3CAC, symBinAddr: 0x42374, symSize: 0xEC }
  - { offset: 0x2001CD, size: 0x8, addend: 0x0, symName: __ZN16llm_graph_result10set_paramsERK16llm_graph_params, symObjAddr: 0x3D98, symBinAddr: 0x42460, symSize: 0x8 }
  - { offset: 0x2001D8, size: 0x8, addend: 0x0, symName: __ZNSt3__16vectorINS_10unique_ptrI17llm_graph_input_iNS_14default_deleteIS2_EEEENS_9allocatorIS5_EEE20__throw_length_errorB9nqe210106Ev, symObjAddr: 0xC470, symBinAddr: 0x4A858, symSize: 0x14 }
  - { offset: 0x2001FB, size: 0x8, addend: 0x0, symName: __ZN16llm_graph_result10set_paramsERK16llm_graph_params, symObjAddr: 0x3D98, symBinAddr: 0x42460, symSize: 0x8 }
  - { offset: 0x20023A, size: 0x8, addend: 0x0, symName: __ZN16llm_graph_paramsaSERKS_, symObjAddr: 0x3DA0, symBinAddr: 0x42468, symSize: 0x1CC }
  - { offset: 0x20083D, size: 0x8, addend: 0x0, symName: __ZNSt3__16__treeINS_12__value_typeIiP13llama_samplerEENS_19__map_value_compareIiNS_4pairIKiS3_EENS_4lessIiEELb1EEENS_9allocatorIS8_EEE14__assign_multiINS_21__tree_const_iteratorIS4_PNS_11__tree_nodeIS4_PvEElEEEEvT_SM_, symObjAddr: 0xB748, symBinAddr: 0x49DBC, symSize: 0x298 }
  - { offset: 0x200CC1, size: 0x8, addend: 0x0, symName: __ZNSt3__110__function12__value_funcIFvRK12llama_ubatchP11ggml_tensorPKciEE4swapB9nqe210106ERSA_, symObjAddr: 0xBD28, symBinAddr: 0x4A1A0, symSize: 0x198 }
  - { offset: 0x200F1D, size: 0x8, addend: 0x0, symName: __ZN17llm_graph_contextC2ERK16llm_graph_params, symObjAddr: 0x3F6C, symBinAddr: 0x42634, symSize: 0x20C }
  - { offset: 0x2013B5, size: 0x8, addend: 0x0, symName: __ZN17llm_graph_contextC1ERK16llm_graph_params, symObjAddr: 0x4178, symBinAddr: 0x42840, symSize: 0x4 }
  - { offset: 0x2013F2, size: 0x8, addend: 0x0, symName: __ZN17llm_graph_contextC1ERK16llm_graph_params, symObjAddr: 0x4178, symBinAddr: 0x42840, symSize: 0x4 }
  - { offset: 0x2014D2, size: 0x8, addend: 0x0, symName: __ZNK17llm_graph_context2cbEP11ggml_tensorPKci, symObjAddr: 0x417C, symBinAddr: 0x42844, symSize: 0x54 }
  - { offset: 0x2015D9, size: 0x8, addend: 0x0, symName: __ZNK17llm_graph_context10build_cvecEP11ggml_tensori, symObjAddr: 0x41D0, symBinAddr: 0x42898, symSize: 0x18 }
  - { offset: 0x20166B, size: 0x8, addend: 0x0, symName: __ZNK17llm_graph_context13build_lora_mmEP11ggml_tensorS1_S1_, symObjAddr: 0x41E8, symBinAddr: 0x428B0, symSize: 0x11C }
  - { offset: 0x20188D, size: 0x8, addend: 0x0, symName: __ZNK17llm_graph_context16build_lora_mm_idEP11ggml_tensorS1_S1_, symObjAddr: 0x4304, symBinAddr: 0x429CC, symSize: 0x100 }
  - { offset: 0x201A7D, size: 0x8, addend: 0x0, symName: __ZNK17llm_graph_context10build_normEP11ggml_tensorS1_S1_13llm_norm_typei, symObjAddr: 0x4404, symBinAddr: 0x42ACC, symSize: 0x180 }
  - { offset: 0x201DE4, size: 0x8, addend: 0x0, symName: __ZNK17llm_graph_context9build_qkvERK11llama_layerP11ggml_tensorxxxi, symObjAddr: 0x4584, symBinAddr: 0x42C4C, symSize: 0x664 }
  - { offset: 0x202FA0, size: 0x8, addend: 0x0, symName: __ZNK17llm_graph_context9build_ffnEP11ggml_tensorS1_S1_S1_S1_S1_S1_S1_S1_S1_S1_15llm_ffn_op_type17llm_ffn_gate_typei, symObjAddr: 0x4BE8, symBinAddr: 0x432B0, symSize: 0x7D8 }
  - { offset: 0x2041FE, size: 0x8, addend: 0x0, symName: __ZNK17llm_graph_context13build_moe_ffnEP11ggml_tensorS1_S1_S1_S1_S1_xx15llm_ffn_op_typebf29llama_expert_gating_func_typeiS1_S1_S1_S1_S1_, symObjAddr: 0x53C0, symBinAddr: 0x43A88, symSize: 0x78 }
  - { offset: 0x204341, size: 0x8, addend: 0x0, symName: __ZNK17llm_graph_context13build_moe_ffnEP11ggml_tensorS1_S1_S1_S1_S1_xx15llm_ffn_op_typebf29llama_expert_gating_func_typeiS1_S1_S1_S1_S1_, symObjAddr: 0x53C0, symBinAddr: 0x43A88, symSize: 0x78 }
  - { offset: 0x2044CD, size: 0x8, addend: 0x0, symName: __ZNK17llm_graph_context13build_moe_ffnEP11ggml_tensorS1_S1_S1_S1_S1_S1_S1_S1_S1_xx15llm_ffn_op_typebf29llama_expert_gating_func_typeiS1_S1_S1_S1_S1_S1_, symObjAddr: 0x5438, symBinAddr: 0x43B00, symSize: 0x1378 }
  - { offset: 0x2076D7, size: 0x8, addend: 0x0, symName: __ZNK17llm_graph_context14build_inp_embdEP11ggml_tensor, symObjAddr: 0x67B0, symBinAddr: 0x44E78, symSize: 0x400 }
  - { offset: 0x207958, size: 0x8, addend: 0x0, symName: __ZNK17llm_graph_context14build_inp_embdEP11ggml_tensor, symObjAddr: 0x67B0, symBinAddr: 0x44E78, symSize: 0x400 }
  - { offset: 0x208495, size: 0x8, addend: 0x0, symName: __ZNK17llm_graph_context13build_inp_posEv, symObjAddr: 0x6BB0, symBinAddr: 0x45278, symSize: 0x170 }
  - { offset: 0x208A36, size: 0x8, addend: 0x0, symName: __ZNK17llm_graph_context20build_inp_attn_scaleEv, symObjAddr: 0x6D20, symBinAddr: 0x453E8, symSize: 0x184 }
  - { offset: 0x209049, size: 0x8, addend: 0x0, symName: __ZNK17llm_graph_context17build_inp_out_idsEv, symObjAddr: 0x6EA4, symBinAddr: 0x4556C, symSize: 0x18C }
  - { offset: 0x2095CC, size: 0x8, addend: 0x0, symName: __ZNK17llm_graph_context14build_inp_meanEv, symObjAddr: 0x7030, symBinAddr: 0x456F8, symSize: 0x178 }
  - { offset: 0x209B41, size: 0x8, addend: 0x0, symName: __ZNK17llm_graph_context13build_inp_clsEv, symObjAddr: 0x71A8, symBinAddr: 0x45870, symSize: 0x17C }
  - { offset: 0x20A0B5, size: 0x8, addend: 0x0, symName: __ZNK17llm_graph_context20build_inp_cross_embdEv, symObjAddr: 0x7324, symBinAddr: 0x459EC, symSize: 0x194 }
  - { offset: 0x20A673, size: 0x8, addend: 0x0, symName: __ZNK17llm_graph_context24build_inp_pos_bucket_encEv, symObjAddr: 0x74B8, symBinAddr: 0x45B80, symSize: 0x164 }
  - { offset: 0x20ABF7, size: 0x8, addend: 0x0, symName: __ZNK17llm_graph_context24build_inp_pos_bucket_decEv, symObjAddr: 0x761C, symBinAddr: 0x45CE4, symSize: 0x198 }
  - { offset: 0x20B156, size: 0x8, addend: 0x0, symName: __ZNK17llm_graph_context14build_pos_biasEP11ggml_tensorS1_, symObjAddr: 0x77B4, symBinAddr: 0x45E7C, symSize: 0x118 }
  - { offset: 0x20B460, size: 0x8, addend: 0x0, symName: __ZNK17llm_graph_context14build_attn_mhaEP11ggml_tensorS1_S1_S1_S1_S1_S1_fi, symObjAddr: 0x78CC, symBinAddr: 0x45F94, symSize: 0x6E4 }
  - { offset: 0x20C6CE, size: 0x8, addend: 0x0, symName: __ZNK17llm_graph_context23build_attn_inp_no_cacheEv, symObjAddr: 0x7FB0, symBinAddr: 0x46678, symSize: 0x240 }
  - { offset: 0x20CC84, size: 0x8, addend: 0x0, symName: __ZNK17llm_graph_context10build_attnEP29llm_graph_input_attn_no_cacheP11ggml_tensorS3_S3_S3_S3_S3_S3_S3_S3_fi, symObjAddr: 0x81F0, symBinAddr: 0x468B8, symSize: 0x154 }
  - { offset: 0x20D002, size: 0x8, addend: 0x0, symName: __ZNK17llm_graph_context17build_attn_inp_kvEv, symObjAddr: 0x8344, symBinAddr: 0x46A0C, symSize: 0x124 }
  - { offset: 0x20D551, size: 0x8, addend: 0x0, symName: __ZL22build_attn_inp_kv_implP12ggml_contextRK12llama_ubatchRK13llama_hparamsRK13llama_cparamsPK22llama_kv_cache_context, symObjAddr: 0x8468, symBinAddr: 0x46B30, symSize: 0x1D4 }
  - { offset: 0x20DA71, size: 0x8, addend: 0x0, symName: __ZNK17llm_graph_context10build_attnEP23llm_graph_input_attn_kvP11ggml_tensorS3_S3_S3_S3_S3_S3_S3_S3_fi, symObjAddr: 0x863C, symBinAddr: 0x46D04, symSize: 0x380 }
  - { offset: 0x20E0A2, size: 0x8, addend: 0x0, symName: __ZNK17llm_graph_context16build_attn_inp_kEv, symObjAddr: 0x89BC, symBinAddr: 0x47084, symSize: 0x124 }
  - { offset: 0x20E14F, size: 0x8, addend: 0x0, symName: __ZNK17llm_graph_context16build_attn_inp_kEv, symObjAddr: 0x89BC, symBinAddr: 0x47084, symSize: 0x124 }
  - { offset: 0x20E69E, size: 0x8, addend: 0x0, symName: __ZL21build_attn_inp_k_implP12ggml_contextRK12llama_ubatchRK13llama_hparamsRK13llama_cparamsPK22llama_kv_cache_context, symObjAddr: 0x8AE0, symBinAddr: 0x471A8, symSize: 0x1A0 }
  - { offset: 0x20EB0B, size: 0x8, addend: 0x0, symName: __ZNK17llm_graph_context10build_attnEP22llm_graph_input_attn_kP11ggml_tensorS3_S3_S3_S3_S3_S3_S3_S3_fi, symObjAddr: 0x8C80, symBinAddr: 0x47348, symSize: 0x1DC }
  - { offset: 0x20EE9C, size: 0x8, addend: 0x0, symName: __ZNK17llm_graph_context10build_attnEP28llm_graph_input_attn_kv_iswaP11ggml_tensorS3_S3_S3_S3_S3_S3_S3_S3_fi, symObjAddr: 0x8E5C, symBinAddr: 0x47524, symSize: 0x3B4 }
  - { offset: 0x20F4D1, size: 0x8, addend: 0x0, symName: __ZNK17llm_graph_context20build_attn_inp_crossEv, symObjAddr: 0x9210, symBinAddr: 0x478D8, symSize: 0x1BC }
  - { offset: 0x20FA79, size: 0x8, addend: 0x0, symName: __ZNK17llm_graph_context10build_attnEP26llm_graph_input_attn_crossP11ggml_tensorS3_S3_S3_S3_S3_S3_S3_S3_fi, symObjAddr: 0x93CC, symBinAddr: 0x47A94, symSize: 0x138 }
  - { offset: 0x20FDEC, size: 0x8, addend: 0x0, symName: __ZNK17llm_graph_context22build_attn_inp_kv_iswaEv, symObjAddr: 0x9504, symBinAddr: 0x47BCC, symSize: 0x378 }
  - { offset: 0x210515, size: 0x8, addend: 0x0, symName: __ZNK17llm_graph_context8build_rsEP11ggml_tensorS1_S1_iijjjiRKNSt3__18functionIFS1_P12ggml_contextS1_S1_EEE, symObjAddr: 0x987C, symBinAddr: 0x47F44, symSize: 0x15C }
  - { offset: 0x21076F, size: 0x8, addend: 0x0, symName: __ZNK17llm_graph_context12build_rs_inpEv, symObjAddr: 0x99D8, symBinAddr: 0x480A0, symSize: 0x120 }
  - { offset: 0x210870, size: 0x8, addend: 0x0, symName: __ZNK17llm_graph_context12build_rs_inpEv, symObjAddr: 0x99D8, symBinAddr: 0x480A0, symSize: 0x120 }
  - { offset: 0x210DBF, size: 0x8, addend: 0x0, symName: __ZL17build_rs_inp_implP12ggml_contextRK12llama_ubatchPK30llama_memory_recurrent_context, symObjAddr: 0x9AF8, symBinAddr: 0x481C0, symSize: 0x108 }
  - { offset: 0x211160, size: 0x8, addend: 0x0, symName: __ZNK17llm_graph_context8build_rsEP18llm_graph_input_rsP11ggml_tensoriiRKNSt3__18functionIFS3_P12ggml_contextS3_S3_EEE, symObjAddr: 0x9C00, symBinAddr: 0x482C8, symSize: 0xB4 }
  - { offset: 0x2113F9, size: 0x8, addend: 0x0, symName: __ZNK17llm_graph_context27build_rwkv_token_shift_loadEP18llm_graph_input_rsRK12llama_ubatchi, symObjAddr: 0x9CB4, symBinAddr: 0x4837C, symSize: 0x1C8 }
  - { offset: 0x211726, size: 0x8, addend: 0x0, symName: __ZNK17llm_graph_context28build_rwkv_token_shift_storeEP11ggml_tensorRK12llama_ubatchi, symObjAddr: 0x9E7C, symBinAddr: 0x48544, symSize: 0xE0 }
  - { offset: 0x211951, size: 0x8, addend: 0x0, symName: __ZNK17llm_graph_context20build_inp_mem_hybridEv, symObjAddr: 0x9F5C, symBinAddr: 0x48624, symSize: 0x204 }
  - { offset: 0x212247, size: 0x8, addend: 0x0, symName: __ZNK17llm_graph_context22build_inp_mem_hybrid_kEv, symObjAddr: 0xA160, symBinAddr: 0x48828, symSize: 0x204 }
  - { offset: 0x212BDA, size: 0x8, addend: 0x0, symName: __ZNK17llm_graph_context25build_inp_mem_hybrid_iswaEv, symObjAddr: 0xA364, symBinAddr: 0x48A2C, symSize: 0x3B8 }
  - { offset: 0x2135BD, size: 0x8, addend: 0x0, symName: __ZNK17llm_graph_context15build_dense_outEP11ggml_tensorS1_S1_, symObjAddr: 0xA71C, symBinAddr: 0x48DE4, symSize: 0x130 }
  - { offset: 0x213770, size: 0x8, addend: 0x0, symName: __ZNK17llm_graph_context13build_poolingEP11ggml_tensorS1_S1_S1_S1_, symObjAddr: 0xA84C, symBinAddr: 0x48F14, symSize: 0x2F0 }
  - { offset: 0x2137D8, size: 0x8, addend: 0x0, symName: __ZNK17llm_graph_context13build_poolingEP11ggml_tensorS1_S1_S1_S1_, symObjAddr: 0xA84C, symBinAddr: 0x48F14, symSize: 0x2F0 }
  - { offset: 0x213CF7, size: 0x8, addend: 0x0, symName: __ZNK17llm_graph_context14build_samplingEv, symObjAddr: 0xAB3C, symBinAddr: 0x49204, symSize: 0x71C }
  - { offset: 0x214883, size: 0x8, addend: 0x0, symName: __ZNK17llm_graph_context14build_samplingEv, symObjAddr: 0xAB3C, symBinAddr: 0x49204, symSize: 0x71C }
  - { offset: 0x2162A4, size: 0x8, addend: 0x0, symName: __ZNSt3__16__treeINS_12__value_typeIiiEENS_19__map_value_compareIiNS_4pairIKiiEENS_4lessIiEELb1EEENS_9allocatorIS6_EEE7destroyEPNS_11__tree_nodeIS2_PvEE, symObjAddr: 0xBEC8, symBinAddr: 0x4A338, symSize: 0x44 }
  - { offset: 0x2164E6, size: 0x8, addend: 0x0, symName: __ZN20llm_graph_input_embdD1Ev, symObjAddr: 0xB34C, symBinAddr: 0x49A14, symSize: 0x4 }
  - { offset: 0x216513, size: 0x8, addend: 0x0, symName: __ZN20llm_graph_input_embdD0Ev, symObjAddr: 0xB350, symBinAddr: 0x49A18, symSize: 0x4 }
  - { offset: 0x21653C, size: 0x8, addend: 0x0, symName: __ZN19llm_graph_input_posD1Ev, symObjAddr: 0xB354, symBinAddr: 0x49A1C, symSize: 0x4 }
  - { offset: 0x216569, size: 0x8, addend: 0x0, symName: __ZN19llm_graph_input_posD0Ev, symObjAddr: 0xB358, symBinAddr: 0x49A20, symSize: 0x4 }
  - { offset: 0x216592, size: 0x8, addend: 0x0, symName: __ZN25llm_graph_input_attn_tempD1Ev, symObjAddr: 0xB35C, symBinAddr: 0x49A24, symSize: 0x4 }
  - { offset: 0x2165BF, size: 0x8, addend: 0x0, symName: __ZN25llm_graph_input_attn_tempD0Ev, symObjAddr: 0xB360, symBinAddr: 0x49A28, symSize: 0x4 }
  - { offset: 0x2165E8, size: 0x8, addend: 0x0, symName: __ZN17llm_graph_input_i9can_reuseERK16llm_graph_params, symObjAddr: 0xB364, symBinAddr: 0x49A2C, symSize: 0x8 }
  - { offset: 0x21661D, size: 0x8, addend: 0x0, symName: __ZN26llm_graph_input_pos_bucketD1Ev, symObjAddr: 0xB36C, symBinAddr: 0x49A34, symSize: 0x4 }
  - { offset: 0x21664A, size: 0x8, addend: 0x0, symName: __ZN26llm_graph_input_pos_bucketD0Ev, symObjAddr: 0xB370, symBinAddr: 0x49A38, symSize: 0x4 }
  - { offset: 0x216673, size: 0x8, addend: 0x0, symName: __ZN29llm_graph_input_pos_bucket_kvD1Ev, symObjAddr: 0xB374, symBinAddr: 0x49A3C, symSize: 0x4 }
  - { offset: 0x2166A0, size: 0x8, addend: 0x0, symName: __ZN29llm_graph_input_pos_bucket_kvD0Ev, symObjAddr: 0xB378, symBinAddr: 0x49A40, symSize: 0x4 }
  - { offset: 0x2166C9, size: 0x8, addend: 0x0, symName: __ZN23llm_graph_input_out_idsD1Ev, symObjAddr: 0xB37C, symBinAddr: 0x49A44, symSize: 0x4 }
  - { offset: 0x2166F6, size: 0x8, addend: 0x0, symName: __ZN23llm_graph_input_out_idsD0Ev, symObjAddr: 0xB380, symBinAddr: 0x49A48, symSize: 0x4 }
  - { offset: 0x21671F, size: 0x8, addend: 0x0, symName: __ZN20llm_graph_input_meanD1Ev, symObjAddr: 0xB384, symBinAddr: 0x49A4C, symSize: 0x4 }
  - { offset: 0x21674C, size: 0x8, addend: 0x0, symName: __ZN20llm_graph_input_meanD0Ev, symObjAddr: 0xB388, symBinAddr: 0x49A50, symSize: 0x4 }
  - { offset: 0x216775, size: 0x8, addend: 0x0, symName: __ZN19llm_graph_input_clsD1Ev, symObjAddr: 0xB38C, symBinAddr: 0x49A54, symSize: 0x4 }
  - { offset: 0x2167A2, size: 0x8, addend: 0x0, symName: __ZN19llm_graph_input_clsD0Ev, symObjAddr: 0xB390, symBinAddr: 0x49A58, symSize: 0x4 }
  - { offset: 0x2167CB, size: 0x8, addend: 0x0, symName: __ZN18llm_graph_input_rsD1Ev, symObjAddr: 0xB394, symBinAddr: 0x49A5C, symSize: 0x4 }
  - { offset: 0x2167F8, size: 0x8, addend: 0x0, symName: __ZN18llm_graph_input_rsD0Ev, symObjAddr: 0xB398, symBinAddr: 0x49A60, symSize: 0x4 }
  - { offset: 0x216821, size: 0x8, addend: 0x0, symName: __ZN26llm_graph_input_cross_embdD1Ev, symObjAddr: 0xB39C, symBinAddr: 0x49A64, symSize: 0x4 }
  - { offset: 0x21684E, size: 0x8, addend: 0x0, symName: __ZN26llm_graph_input_cross_embdD0Ev, symObjAddr: 0xB3A0, symBinAddr: 0x49A68, symSize: 0x4 }
  - { offset: 0x216877, size: 0x8, addend: 0x0, symName: __ZN29llm_graph_input_attn_no_cacheD1Ev, symObjAddr: 0xB3A4, symBinAddr: 0x49A6C, symSize: 0x4 }
  - { offset: 0x2168A4, size: 0x8, addend: 0x0, symName: __ZN29llm_graph_input_attn_no_cacheD0Ev, symObjAddr: 0xB3A8, symBinAddr: 0x49A70, symSize: 0x4 }
  - { offset: 0x2168CD, size: 0x8, addend: 0x0, symName: __ZN23llm_graph_input_attn_kvD1Ev, symObjAddr: 0xB3AC, symBinAddr: 0x49A74, symSize: 0x4 }
  - { offset: 0x2168FA, size: 0x8, addend: 0x0, symName: __ZN23llm_graph_input_attn_kvD0Ev, symObjAddr: 0xB3B0, symBinAddr: 0x49A78, symSize: 0x4 }
  - { offset: 0x216923, size: 0x8, addend: 0x0, symName: __ZN22llm_graph_input_attn_kD1Ev, symObjAddr: 0xB3B4, symBinAddr: 0x49A7C, symSize: 0x4 }
  - { offset: 0x216950, size: 0x8, addend: 0x0, symName: __ZN22llm_graph_input_attn_kD0Ev, symObjAddr: 0xB3B8, symBinAddr: 0x49A80, symSize: 0x4 }
  - { offset: 0x216979, size: 0x8, addend: 0x0, symName: __ZN28llm_graph_input_attn_kv_iswaD1Ev, symObjAddr: 0xB3BC, symBinAddr: 0x49A84, symSize: 0x4 }
  - { offset: 0x2169A6, size: 0x8, addend: 0x0, symName: __ZN28llm_graph_input_attn_kv_iswaD0Ev, symObjAddr: 0xB3C0, symBinAddr: 0x49A88, symSize: 0x4 }
  - { offset: 0x2169CF, size: 0x8, addend: 0x0, symName: __ZN26llm_graph_input_attn_crossD1Ev, symObjAddr: 0xB3C4, symBinAddr: 0x49A8C, symSize: 0x4 }
  - { offset: 0x2169FC, size: 0x8, addend: 0x0, symName: __ZN26llm_graph_input_attn_crossD0Ev, symObjAddr: 0xB3C8, symBinAddr: 0x49A90, symSize: 0x4 }
  - { offset: 0x216A43, size: 0x8, addend: 0x0, symName: __ZN26llm_graph_input_mem_hybridD1Ev, symObjAddr: 0xB3CC, symBinAddr: 0x49A94, symSize: 0x5C }
  - { offset: 0x216BDE, size: 0x8, addend: 0x0, symName: __ZN26llm_graph_input_mem_hybridD0Ev, symObjAddr: 0xB428, symBinAddr: 0x49AF0, symSize: 0x5C }
  - { offset: 0x216D9F, size: 0x8, addend: 0x0, symName: __ZN28llm_graph_input_mem_hybrid_kD1Ev, symObjAddr: 0xB484, symBinAddr: 0x49B4C, symSize: 0x5C }
  - { offset: 0x216F3A, size: 0x8, addend: 0x0, symName: __ZN28llm_graph_input_mem_hybrid_kD0Ev, symObjAddr: 0xB4E0, symBinAddr: 0x49BA8, symSize: 0x5C }
  - { offset: 0x2170FB, size: 0x8, addend: 0x0, symName: __ZN31llm_graph_input_mem_hybrid_iswaD1Ev, symObjAddr: 0xB53C, symBinAddr: 0x49C04, symSize: 0x5C }
  - { offset: 0x217296, size: 0x8, addend: 0x0, symName: __ZN31llm_graph_input_mem_hybrid_iswaD0Ev, symObjAddr: 0xB598, symBinAddr: 0x49C60, symSize: 0x5C }
  - { offset: 0x217457, size: 0x8, addend: 0x0, symName: __ZN24llm_graph_input_samplingD1Ev, symObjAddr: 0xB5F4, symBinAddr: 0x49CBC, symSize: 0x38 }
  - { offset: 0x21750F, size: 0x8, addend: 0x0, symName: __ZN24llm_graph_input_samplingD0Ev, symObjAddr: 0xB62C, symBinAddr: 0x49CF4, symSize: 0x38 }
  - { offset: 0x2175CF, size: 0x8, addend: 0x0, symName: __ZN16llm_graph_resultD1Ev, symObjAddr: 0xB664, symBinAddr: 0x49D2C, symSize: 0x4 }
  - { offset: 0x2175F2, size: 0x8, addend: 0x0, symName: __ZN16llm_graph_resultD1Ev, symObjAddr: 0xB664, symBinAddr: 0x49D2C, symSize: 0x4 }
  - { offset: 0x217605, size: 0x8, addend: 0x0, symName: __ZN16llm_graph_resultD2Ev, symObjAddr: 0xC864, symBinAddr: 0x4A9B8, symSize: 0x150 }
  - { offset: 0x217D90, size: 0x8, addend: 0x0, symName: __ZN16llm_graph_resultD0Ev, symObjAddr: 0xB668, symBinAddr: 0x49D30, symSize: 0x14 }
  - { offset: 0x217E0F, size: 0x8, addend: 0x0, symName: __ZN17llm_graph_contextD1Ev, symObjAddr: 0xB67C, symBinAddr: 0x49D44, symSize: 0x3C }
  - { offset: 0x217EC7, size: 0x8, addend: 0x0, symName: __ZN17llm_graph_contextD0Ev, symObjAddr: 0xB6B8, symBinAddr: 0x49D80, symSize: 0x3C }
  - { offset: 0x2181EA, size: 0x8, addend: 0x0, symName: __ZNSt3__16__treeINS_12__value_typeIiP13llama_samplerEENS_19__map_value_compareIiNS_4pairIKiS3_EENS_4lessIiEELb1EEENS_9allocatorIS8_EEE20__emplace_hint_multiIJRKS8_EEENS_15__tree_iteratorIS4_PNS_11__tree_nodeIS4_PvEElEENS_21__tree_const_iteratorIS4_SM_lEEDpOT_, symObjAddr: 0xB9E0, symBinAddr: 0x4A054, symSize: 0x14C }
  - { offset: 0x218808, size: 0x8, addend: 0x0, symName: __ZN17llm_graph_input_iD1Ev, symObjAddr: 0xBEC0, symBinAddr: 0x291E84, symSize: 0x4 }
  - { offset: 0x218835, size: 0x8, addend: 0x0, symName: __ZN17llm_graph_input_iD0Ev, symObjAddr: 0xBEC4, symBinAddr: 0x291E88, symSize: 0x4 }
  - { offset: 0x218C69, size: 0x8, addend: 0x0, symName: __ZNSt3__112__hash_tableIiNS_4hashIiEENS_8equal_toIiEENS_9allocatorIiEEE11__do_rehashILb1EEEvm, symObjAddr: 0xC28C, symBinAddr: 0x4A688, symSize: 0x18C }
  - { offset: 0x218FA0, size: 0x8, addend: 0x0, symName: __ZNSt3__16__treeINS_12__value_typeIiP11ggml_tensorEENS_19__map_value_compareIiNS_4pairIKiS3_EENS_4lessIiEELb1EEENS_9allocatorIS8_EEE7destroyEPNS_11__tree_nodeIS4_PvEE, symObjAddr: 0xC418, symBinAddr: 0x4A814, symSize: 0x44 }
  - { offset: 0x2194BE, size: 0x8, addend: 0x0, symName: __ZNSt3__117bad_function_callD1Ev, symObjAddr: 0xC74C, symBinAddr: 0x4A8A0, symSize: 0x4 }
  - { offset: 0x2194E0, size: 0x8, addend: 0x0, symName: __ZNSt3__117bad_function_callD1Ev, symObjAddr: 0xC74C, symBinAddr: 0x4A8A0, symSize: 0x4 }
  - { offset: 0x219518, size: 0x8, addend: 0x0, symName: __ZNSt3__117bad_function_callD0Ev, symObjAddr: 0xC750, symBinAddr: 0x4A8A4, symSize: 0x14 }
  - { offset: 0x219579, size: 0x8, addend: 0x0, symName: __ZNSt3__110__function6__funcIPFP11ggml_tensorP12ggml_contextS3_S3_ES6_ED1Ev, symObjAddr: 0xC764, symBinAddr: 0x4A8B8, symSize: 0x4 }
  - { offset: 0x2195A8, size: 0x8, addend: 0x0, symName: __ZNSt3__110__function6__funcIPFP11ggml_tensorP12ggml_contextS3_S3_ES6_ED0Ev, symObjAddr: 0xC768, symBinAddr: 0x4A8BC, symSize: 0x4 }
  - { offset: 0x21961D, size: 0x8, addend: 0x0, symName: __ZNKSt3__110__function6__funcIPFP11ggml_tensorP12ggml_contextS3_S3_ES6_E7__cloneEv, symObjAddr: 0xC76C, symBinAddr: 0x4A8C0, symSize: 0x38 }
  - { offset: 0x21968E, size: 0x8, addend: 0x0, symName: __ZNKSt3__110__function6__funcIPFP11ggml_tensorP12ggml_contextS3_S3_ES6_E7__cloneEPNS0_6__baseIS6_EE, symObjAddr: 0xC7A4, symBinAddr: 0x4A8F8, symSize: 0x18 }
  - { offset: 0x2196C3, size: 0x8, addend: 0x0, symName: __ZNKSt3__110__function6__funcIPFP11ggml_tensorP12ggml_contextS3_S3_ES6_E7__cloneEPNS0_6__baseIS6_EE, symObjAddr: 0xC7A4, symBinAddr: 0x4A8F8, symSize: 0x18 }
  - { offset: 0x2196E7, size: 0x8, addend: 0x0, symName: __ZNKSt3__110__function6__funcIPFP11ggml_tensorP12ggml_contextS3_S3_ES6_E7__cloneEPNS0_6__baseIS6_EE, symObjAddr: 0xC7A4, symBinAddr: 0x4A8F8, symSize: 0x18 }
  - { offset: 0x21970B, size: 0x8, addend: 0x0, symName: __ZNSt3__110__function6__funcIPFP11ggml_tensorP12ggml_contextS3_S3_ES6_E7destroyEv, symObjAddr: 0xC7BC, symBinAddr: 0x4A910, symSize: 0x4 }
  - { offset: 0x219730, size: 0x8, addend: 0x0, symName: __ZNSt3__110__function6__funcIPFP11ggml_tensorP12ggml_contextS3_S3_ES6_E18destroy_deallocateEv, symObjAddr: 0xC7C0, symBinAddr: 0x4A914, symSize: 0x14 }
  - { offset: 0x2197B9, size: 0x8, addend: 0x0, symName: __ZNSt3__110__function6__funcIPFP11ggml_tensorP12ggml_contextS3_S3_ES6_EclEOS5_OS3_SA_, symObjAddr: 0xC7D4, symBinAddr: 0x4A928, symSize: 0x14 }
  - { offset: 0x21980E, size: 0x8, addend: 0x0, symName: __ZNSt3__110__function6__funcIPFP11ggml_tensorP12ggml_contextS3_S3_ES6_EclEOS5_OS3_SA_, symObjAddr: 0xC7D4, symBinAddr: 0x4A928, symSize: 0x14 }
  - { offset: 0x219844, size: 0x8, addend: 0x0, symName: __ZNSt3__110__function6__funcIPFP11ggml_tensorP12ggml_contextS3_S3_ES6_EclEOS5_OS3_SA_, symObjAddr: 0xC7D4, symBinAddr: 0x4A928, symSize: 0x14 }
  - { offset: 0x21987B, size: 0x8, addend: 0x0, symName: __ZNSt3__110__function6__funcIPFP11ggml_tensorP12ggml_contextS3_S3_ES6_EclEOS5_OS3_SA_, symObjAddr: 0xC7D4, symBinAddr: 0x4A928, symSize: 0x14 }
  - { offset: 0x219918, size: 0x8, addend: 0x0, symName: __ZNKSt3__110__function6__funcIPFP11ggml_tensorP12ggml_contextS3_S3_ES6_E6targetERKSt9type_info, symObjAddr: 0xC7E8, symBinAddr: 0x4A93C, symSize: 0x70 }
  - { offset: 0x2199DD, size: 0x8, addend: 0x0, symName: __ZNKSt3__110__function6__funcIPFP11ggml_tensorP12ggml_contextS3_S3_ES6_E11target_typeEv, symObjAddr: 0xC858, symBinAddr: 0x4A9AC, symSize: 0xC }
  - { offset: 0x21B94F, size: 0x8, addend: 0x0, symName: __ZN13llama_hparams15set_swa_patternEjb, symObjAddr: 0x0, symBinAddr: 0x4AB08, symSize: 0x1DC }
  - { offset: 0x21DB4E, size: 0x8, addend: 0x0, symName: __ZN13llama_hparams15set_swa_patternEjb, symObjAddr: 0x0, symBinAddr: 0x4AB08, symSize: 0x1DC }
  - { offset: 0x21DBC1, size: 0x8, addend: 0x0, symName: __ZNK13llama_hparams10is_swa_anyEv, symObjAddr: 0x1DC, symBinAddr: 0x4ACE4, symSize: 0x3C }
  - { offset: 0x21DC09, size: 0x8, addend: 0x0, symName: __ZNK13llama_hparams6n_headEj, symObjAddr: 0x218, symBinAddr: 0x4AD20, symSize: 0x38 }
  - { offset: 0x21DC36, size: 0x8, addend: 0x0, symName: __ZNK13llama_hparams9n_head_kvEj, symObjAddr: 0x250, symBinAddr: 0x4AD58, symSize: 0x38 }
  - { offset: 0x21DC68, size: 0x8, addend: 0x0, symName: __ZNK13llama_hparams9n_head_kvEj, symObjAddr: 0x250, symBinAddr: 0x4AD58, symSize: 0x38 }
  - { offset: 0x21DC95, size: 0x8, addend: 0x0, symName: __ZNK13llama_hparams4n_ffEj, symObjAddr: 0x288, symBinAddr: 0x4AD90, symSize: 0x38 }
  - { offset: 0x21DCA7, size: 0x8, addend: 0x0, symName: __ZNK13llama_hparams4n_ffEj, symObjAddr: 0x288, symBinAddr: 0x4AD90, symSize: 0x38 }
  - { offset: 0x21DCE1, size: 0x8, addend: 0x0, symName: __ZNK13llama_hparams5n_gqaEj, symObjAddr: 0x2C0, symBinAddr: 0x4ADC8, symSize: 0x54 }
  - { offset: 0x21DD3F, size: 0x8, addend: 0x0, symName: __ZNK13llama_hparams5n_gqaEj, symObjAddr: 0x2C0, symBinAddr: 0x4ADC8, symSize: 0x54 }
  - { offset: 0x21DDDC, size: 0x8, addend: 0x0, symName: __ZNK13llama_hparams5n_rotEj, symObjAddr: 0x314, symBinAddr: 0x4AE1C, symSize: 0x4C }
  - { offset: 0x21DE11, size: 0x8, addend: 0x0, symName: __ZNK13llama_hparams5n_rotEj, symObjAddr: 0x314, symBinAddr: 0x4AE1C, symSize: 0x4C }
  - { offset: 0x21DE6E, size: 0x8, addend: 0x0, symName: __ZNK13llama_hparams6is_swaEj, symObjAddr: 0x360, symBinAddr: 0x4AE68, symSize: 0x40 }
  - { offset: 0x21DE80, size: 0x8, addend: 0x0, symName: __ZNK13llama_hparams6is_swaEj, symObjAddr: 0x360, symBinAddr: 0x4AE68, symSize: 0x40 }
  - { offset: 0x21DEAD, size: 0x8, addend: 0x0, symName: __ZNK13llama_hparams10n_embd_inpEv, symObjAddr: 0x3A0, symBinAddr: 0x4AEA8, symSize: 0x14 }
  - { offset: 0x21DEC0, size: 0x8, addend: 0x0, symName: __ZNK13llama_hparams10n_embd_inpEv, symObjAddr: 0x3A0, symBinAddr: 0x4AEA8, symSize: 0x14 }
  - { offset: 0x21DEF9, size: 0x8, addend: 0x0, symName: __ZNK13llama_hparams10n_embd_outEv, symObjAddr: 0x3B4, symBinAddr: 0x4AEBC, symSize: 0x18 }
  - { offset: 0x21DF22, size: 0x8, addend: 0x0, symName: __ZNK13llama_hparams13n_embd_head_kEj, symObjAddr: 0x3CC, symBinAddr: 0x4AED4, symSize: 0x4C }
  - { offset: 0x21DF72, size: 0x8, addend: 0x0, symName: __ZNK13llama_hparams13n_embd_head_vEj, symObjAddr: 0x418, symBinAddr: 0x4AF20, symSize: 0x4C }
  - { offset: 0x21DF84, size: 0x8, addend: 0x0, symName: __ZNK13llama_hparams13n_embd_head_vEj, symObjAddr: 0x418, symBinAddr: 0x4AF20, symSize: 0x4C }
  - { offset: 0x21DFD4, size: 0x8, addend: 0x0, symName: __ZNK13llama_hparams12n_embd_k_gqaEj, symObjAddr: 0x464, symBinAddr: 0x4AF6C, symSize: 0x54 }
  - { offset: 0x21E009, size: 0x8, addend: 0x0, symName: __ZNK13llama_hparams12n_embd_k_gqaEj, symObjAddr: 0x464, symBinAddr: 0x4AF6C, symSize: 0x54 }
  - { offset: 0x21E0A5, size: 0x8, addend: 0x0, symName: __ZNK13llama_hparams12n_embd_v_gqaEj, symObjAddr: 0x4B8, symBinAddr: 0x4AFC0, symSize: 0x54 }
  - { offset: 0x21E0DA, size: 0x8, addend: 0x0, symName: __ZNK13llama_hparams12n_embd_v_gqaEj, symObjAddr: 0x4B8, symBinAddr: 0x4AFC0, symSize: 0x54 }
  - { offset: 0x21E176, size: 0x8, addend: 0x0, symName: __ZNK13llama_hparams24is_n_embd_k_gqa_variableEv, symObjAddr: 0x50C, symBinAddr: 0x4B014, symSize: 0x8C }
  - { offset: 0x21E1BB, size: 0x8, addend: 0x0, symName: __ZNK13llama_hparams24is_n_embd_k_gqa_variableEv, symObjAddr: 0x50C, symBinAddr: 0x4B014, symSize: 0x8C }
  - { offset: 0x21E31D, size: 0x8, addend: 0x0, symName: __ZNK13llama_hparams24is_n_embd_v_gqa_variableEv, symObjAddr: 0x598, symBinAddr: 0x4B0A0, symSize: 0x8C }
  - { offset: 0x21E35D, size: 0x8, addend: 0x0, symName: __ZNK13llama_hparams24is_n_embd_v_gqa_variableEv, symObjAddr: 0x598, symBinAddr: 0x4B0A0, symSize: 0x8C }
  - { offset: 0x21E4BF, size: 0x8, addend: 0x0, symName: __ZNK13llama_hparams16n_embd_k_gqa_maxEv, symObjAddr: 0x624, symBinAddr: 0x4B12C, symSize: 0x114 }
  - { offset: 0x21E4D1, size: 0x8, addend: 0x0, symName: __ZNK13llama_hparams16n_embd_k_gqa_maxEv, symObjAddr: 0x624, symBinAddr: 0x4B12C, symSize: 0x114 }
  - { offset: 0x21E60C, size: 0x8, addend: 0x0, symName: __ZNK13llama_hparams16n_embd_v_gqa_maxEv, symObjAddr: 0x738, symBinAddr: 0x4B240, symSize: 0x114 }
  - { offset: 0x21E61E, size: 0x8, addend: 0x0, symName: __ZNK13llama_hparams16n_embd_v_gqa_maxEv, symObjAddr: 0x738, symBinAddr: 0x4B240, symSize: 0x114 }
  - { offset: 0x21E759, size: 0x8, addend: 0x0, symName: __ZNK13llama_hparams8n_embd_rEv, symObjAddr: 0x84C, symBinAddr: 0x4B354, symSize: 0xB0 }
  - { offset: 0x21E76B, size: 0x8, addend: 0x0, symName: __ZNK13llama_hparams8n_embd_rEv, symObjAddr: 0x84C, symBinAddr: 0x4B354, symSize: 0xB0 }
  - { offset: 0x21E7CC, size: 0x8, addend: 0x0, symName: __ZNK13llama_hparams8n_embd_sEv, symObjAddr: 0x8FC, symBinAddr: 0x4B404, symSize: 0x64 }
  - { offset: 0x21E7DE, size: 0x8, addend: 0x0, symName: __ZNK13llama_hparams8n_embd_sEv, symObjAddr: 0x8FC, symBinAddr: 0x4B404, symSize: 0x64 }
  - { offset: 0x21E829, size: 0x8, addend: 0x0, symName: __ZNK13llama_hparams12is_recurrentEj, symObjAddr: 0x960, symBinAddr: 0x4B468, symSize: 0x50 }
  - { offset: 0x21E83B, size: 0x8, addend: 0x0, symName: __ZNK13llama_hparams12is_recurrentEj, symObjAddr: 0x960, symBinAddr: 0x4B468, symSize: 0x50 }
  - { offset: 0x21E875, size: 0x8, addend: 0x0, symName: __ZNK13llama_hparams14n_pos_per_embdEv, symObjAddr: 0x9B0, symBinAddr: 0x4B4B8, symSize: 0x1C }
  - { offset: 0x21E888, size: 0x8, addend: 0x0, symName: __ZNK13llama_hparams14n_pos_per_embdEv, symObjAddr: 0x9B0, symBinAddr: 0x4B4B8, symSize: 0x1C }
  - { offset: 0x21E8B1, size: 0x8, addend: 0x0, symName: __ZNK13llama_hparams6is_mlaEv, symObjAddr: 0x9CC, symBinAddr: 0x4B4D4, symSize: 0x20 }
  - { offset: 0x21E8EB, size: 0x8, addend: 0x0, symName: __ZNK13llama_hparams17n_embd_head_k_mlaEv, symObjAddr: 0x9EC, symBinAddr: 0x4B4F4, symSize: 0x60 }
  - { offset: 0x21E916, size: 0x8, addend: 0x0, symName: __ZNK13llama_hparams17n_embd_head_k_mlaEv, symObjAddr: 0x9EC, symBinAddr: 0x4B4F4, symSize: 0x60 }
  - { offset: 0x21E973, size: 0x8, addend: 0x0, symName: __ZNK13llama_hparams17n_embd_head_v_mlaEv, symObjAddr: 0xA4C, symBinAddr: 0x4B554, symSize: 0x60 }
  - { offset: 0x21E985, size: 0x8, addend: 0x0, symName: __ZNK13llama_hparams17n_embd_head_v_mlaEv, symObjAddr: 0xA4C, symBinAddr: 0x4B554, symSize: 0x60 }
  - { offset: 0x21E9B0, size: 0x8, addend: 0x0, symName: __ZNK13llama_hparams17n_embd_head_v_mlaEv, symObjAddr: 0xA4C, symBinAddr: 0x4B554, symSize: 0x60 }
  - { offset: 0x21EA0D, size: 0x8, addend: 0x0, symName: __ZNK13llama_hparams6has_kvEj, symObjAddr: 0xAAC, symBinAddr: 0x4B5B4, symSize: 0x14 }
  - { offset: 0x21EA1F, size: 0x8, addend: 0x0, symName: __ZNK13llama_hparams6has_kvEj, symObjAddr: 0xAAC, symBinAddr: 0x4B5B4, symSize: 0x14 }
  - { offset: 0x21EA6B, size: 0x8, addend: 0x0, symName: __ZNK13llama_hparams10n_layer_kvEv, symObjAddr: 0xAC0, symBinAddr: 0x4B5C8, symSize: 0xCC }
  - { offset: 0x21EAD1, size: 0x8, addend: 0x0, symName: __ZNK13llama_hparams9use_mropeEv, symObjAddr: 0xB8C, symBinAddr: 0x4B694, symSize: 0x24 }
  - { offset: 0x220A15, size: 0x8, addend: 0x0, symName: __ZL14g_logger_state.0, symObjAddr: 0x17A8, symBinAddr: 0x31C2C0, symSize: 0x0 }
  - { offset: 0x220A20, size: 0x8, addend: 0x0, symName: __ZL14g_logger_state.1, symObjAddr: 0x2FA88, symBinAddr: 0x3AFE60, symSize: 0x0 }
  - { offset: 0x227C1F, size: 0x8, addend: 0x0, symName: __ZN9time_measC2ERxb, symObjAddr: 0x0, symBinAddr: 0x4B6B8, symSize: 0x48 }
  - { offset: 0x227CA6, size: 0x8, addend: 0x0, symName: __ZN9time_measC1ERxb, symObjAddr: 0x48, symBinAddr: 0x4B700, symSize: 0x48 }
  - { offset: 0x227D28, size: 0x8, addend: 0x0, symName: __ZN9time_measD2Ev, symObjAddr: 0x90, symBinAddr: 0x4B748, symSize: 0x44 }
  - { offset: 0x227D78, size: 0x8, addend: 0x0, symName: __ZN9time_measD1Ev, symObjAddr: 0xE4, symBinAddr: 0x4B78C, symSize: 0x44 }
  - { offset: 0x227DCE, size: 0x8, addend: 0x0, symName: _llama_log_get, symObjAddr: 0x128, symBinAddr: 0x4B7D0, symSize: 0x4 }
  - { offset: 0x227E04, size: 0x8, addend: 0x0, symName: _llama_log_get, symObjAddr: 0x128, symBinAddr: 0x4B7D0, symSize: 0x4 }
  - { offset: 0x227E38, size: 0x8, addend: 0x0, symName: _llama_log_set, symObjAddr: 0x12C, symBinAddr: 0x4B7D4, symSize: 0x44 }
  - { offset: 0x227E9D, size: 0x8, addend: 0x0, symName: __Z26llama_log_callback_default14ggml_log_levelPKcPv, symObjAddr: 0x170, symBinAddr: 0x4B818, symSize: 0x30 }
  - { offset: 0x228136, size: 0x8, addend: 0x0, symName: __Z18llama_log_internal14ggml_log_levelPKcz, symObjAddr: 0x1A0, symBinAddr: 0x4B848, symSize: 0xF8 }
  - { offset: 0x2284F8, size: 0x8, addend: 0x0, symName: __Z11replace_allRNSt3__112basic_stringIcNS_11char_traitsIcEENS_9allocatorIcEEEERKS5_S8_, symObjAddr: 0x298, symBinAddr: 0x4B940, symSize: 0x1F4 }
  - { offset: 0x228E4C, size: 0x8, addend: 0x0, symName: __Z6formatPKcz, symObjAddr: 0x48C, symBinAddr: 0x4BB34, symSize: 0x154 }
  - { offset: 0x2294A1, size: 0x8, addend: 0x0, symName: __Z25llama_format_tensor_shapeRKNSt3__16vectorIxNS_9allocatorIxEEEE, symObjAddr: 0x5E0, symBinAddr: 0x4BC88, symSize: 0x160 }
  - { offset: 0x229830, size: 0x8, addend: 0x0, symName: __ZNSt3__16vectorIxNS_9allocatorIxEEE20__throw_out_of_rangeB9nqe210106Ev, symObjAddr: 0x12AC, symBinAddr: 0x4C6B0, symSize: 0x14 }
  - { offset: 0x229868, size: 0x8, addend: 0x0, symName: __Z25llama_format_tensor_shapePK11ggml_tensor, symObjAddr: 0x740, symBinAddr: 0x4BDE8, symSize: 0x160 }
  - { offset: 0x229D43, size: 0x8, addend: 0x0, symName: __Z14gguf_kv_to_strPK12gguf_contexti, symObjAddr: 0x8A0, symBinAddr: 0x4BF48, symSize: 0x5B4 }
  - { offset: 0x22B208, size: 0x8, addend: 0x0, symName: __ZL16gguf_data_to_str9gguf_typePKvi, symObjAddr: 0xFE8, symBinAddr: 0x4C4FC, symSize: 0x1B4 }
  - { offset: 0x22DC63, size: 0x8, addend: 0x0, symName: __ZN16llama_io_write_i12write_stringERKNSt3__112basic_stringIcNS0_11char_traitsIcEENS0_9allocatorIcEEEE, symObjAddr: 0x0, symBinAddr: 0x4C6C4, symSize: 0x78 }
  - { offset: 0x2306AC, size: 0x8, addend: 0x0, symName: __ZN16llama_io_write_i12write_stringERKNSt3__112basic_stringIcNS0_11char_traitsIcEENS0_9allocatorIcEEEE, symObjAddr: 0x0, symBinAddr: 0x4C6C4, symSize: 0x78 }
  - { offset: 0x2307BD, size: 0x8, addend: 0x0, symName: __ZN15llama_io_read_i11read_stringERNSt3__112basic_stringIcNS0_11char_traitsIcEENS0_9allocatorIcEEEE, symObjAddr: 0x78, symBinAddr: 0x4C73C, symSize: 0x60 }
  - { offset: 0x232722, size: 0x8, addend: 0x0, symName: __ZN19llama_kv_cache_iswaC2ERK11llama_model9ggml_typeS3_bbbbjjjjRKNSt3__18functionIFbiEEERKNS5_IFiiEEE, symObjAddr: 0x0, symBinAddr: 0x4C79C, symSize: 0x348 }
  - { offset: 0x23274A, size: 0x8, addend: 0x0, symName: __ZTV19llama_kv_cache_iswa, symObjAddr: 0x2A58, symBinAddr: 0x313D08, symSize: 0x0 }
  - { offset: 0x255ACB, size: 0x8, addend: 0x0, symName: __ZNSt3__111make_uniqueB9nqe210106I27llama_kv_cache_iswa_contextJP19llama_kv_cache_iswaNS_6vectorIN14llama_kv_cache9slot_infoENS_9allocatorIS6_EEEES9_NS4_I12llama_ubatchNS7_ISA_EEEEELi0EEENS_10unique_ptrIT_NS_14default_deleteISE_EEEEDpOT0_, symObjAddr: 0xEF4, symBinAddr: 0x4D62C, symSize: 0x264 }
  - { offset: 0x25DD48, size: 0x8, addend: 0x0, symName: __ZTV27llama_kv_cache_iswa_context, symObjAddr: 0x2AF0, symBinAddr: 0x313DA0, symSize: 0x0 }
  - { offset: 0x25E2FF, size: 0x8, addend: 0x0, symName: '__ZTVNSt3__110__function6__funcIZN19llama_kv_cache_iswaC1ERK11llama_model9ggml_typeS6_bbbbjjjjRKNS_8functionIFbiEEERKNS7_IFiiEEEE3$_0S8_EE', symObjAddr: 0x2B80, symBinAddr: 0x313E30, symSize: 0x0 }
  - { offset: 0x25E30D, size: 0x8, addend: 0x0, symName: __ZN19llama_kv_cache_iswaC1ERK11llama_model9ggml_typeS3_bbbbjjjjRKNSt3__18functionIFbiEEERKNS5_IFiiEEE, symObjAddr: 0x348, symBinAddr: 0x4CAE4, symSize: 0x4 }
  - { offset: 0x25E479, size: 0x8, addend: 0x0, symName: __ZN19llama_kv_cache_iswaC1ERK11llama_model9ggml_typeS3_bbbbjjjjRKNSt3__18functionIFbiEEERKNS5_IFiiEEE, symObjAddr: 0x348, symBinAddr: 0x4CAE4, symSize: 0x4 }
  - { offset: 0x25E4E6, size: 0x8, addend: 0x0, symName: '__ZTVNSt3__110__function6__funcIZN19llama_kv_cache_iswaC1ERK11llama_model9ggml_typeS6_bbbbjjjjRKNS_8functionIFbiEEERKNS7_IFiiEEEE3$_1S8_EE', symObjAddr: 0x2C10, symBinAddr: 0x313EC0, symSize: 0x0 }
  - { offset: 0x25E9B8, size: 0x8, addend: 0x0, symName: __ZN19llama_kv_cache_iswaC2ERK11llama_model9ggml_typeS3_bbbbjjjjRKNSt3__18functionIFbiEEERKNS5_IFiiEEE, symObjAddr: 0x0, symBinAddr: 0x4C79C, symSize: 0x348 }
  - { offset: 0x25F166, size: 0x8, addend: 0x0, symName: __ZN19llama_kv_cache_iswa5clearEb, symObjAddr: 0x34C, symBinAddr: 0x4CAE8, symSize: 0x40 }
  - { offset: 0x25F1FA, size: 0x8, addend: 0x0, symName: __ZN19llama_kv_cache_iswa6seq_rmEiii, symObjAddr: 0x38C, symBinAddr: 0x4CB28, symSize: 0x6C }
  - { offset: 0x25F2DD, size: 0x8, addend: 0x0, symName: __ZN19llama_kv_cache_iswa6seq_cpEiiii, symObjAddr: 0x3F8, symBinAddr: 0x4CB94, symSize: 0x68 }
  - { offset: 0x25F3B3, size: 0x8, addend: 0x0, symName: __ZN19llama_kv_cache_iswa8seq_keepEi, symObjAddr: 0x460, symBinAddr: 0x4CBFC, symSize: 0x40 }
  - { offset: 0x25F447, size: 0x8, addend: 0x0, symName: __ZN19llama_kv_cache_iswa7seq_addEiiii, symObjAddr: 0x4A0, symBinAddr: 0x4CC3C, symSize: 0x68 }
  - { offset: 0x25F51D, size: 0x8, addend: 0x0, symName: __ZN19llama_kv_cache_iswa7seq_divEiiii, symObjAddr: 0x508, symBinAddr: 0x4CCA4, symSize: 0x68 }
  - { offset: 0x25F5F3, size: 0x8, addend: 0x0, symName: __ZNK19llama_kv_cache_iswa11seq_pos_minEi, symObjAddr: 0x570, symBinAddr: 0x4CD0C, symSize: 0x10 }
  - { offset: 0x25F62C, size: 0x8, addend: 0x0, symName: __ZNK19llama_kv_cache_iswa11seq_pos_minEi, symObjAddr: 0x570, symBinAddr: 0x4CD0C, symSize: 0x10 }
  - { offset: 0x25F65C, size: 0x8, addend: 0x0, symName: __ZNK19llama_kv_cache_iswa11seq_pos_maxEi, symObjAddr: 0x580, symBinAddr: 0x4CD1C, symSize: 0x10 }
  - { offset: 0x25F695, size: 0x8, addend: 0x0, symName: __ZNK19llama_kv_cache_iswa11seq_pos_maxEi, symObjAddr: 0x580, symBinAddr: 0x4CD1C, symSize: 0x10 }
  - { offset: 0x25FC78, size: 0x8, addend: 0x0, symName: __ZNK19llama_kv_cache_iswa16memory_breakdownEv, symObjAddr: 0x590, symBinAddr: 0x4CD2C, symSize: 0x1C0 }
  - { offset: 0x260E49, size: 0x8, addend: 0x0, symName: __ZN19llama_kv_cache_iswa10init_batchER18llama_batch_allocrjb, symObjAddr: 0x750, symBinAddr: 0x4CEEC, symSize: 0x740 }
  - { offset: 0x262FCB, size: 0x8, addend: 0x0, symName: __ZNSt3__16vectorI12llama_ubatchNS_9allocatorIS1_EEE24__emplace_back_slow_pathIJS1_EEEPS1_DpOT_, symObjAddr: 0x25E0, symBinAddr: 0x4EAD8, symSize: 0x1BC }
  - { offset: 0x2635C9, size: 0x8, addend: 0x0, symName: __ZNSt3__16vectorI12llama_ubatchNS_9allocatorIS1_EEE20__throw_length_errorB9nqe210106Ev, symObjAddr: 0x279C, symBinAddr: 0x4EC94, symSize: 0x14 }
  - { offset: 0x2635DF, size: 0x8, addend: 0x0, symName: __ZNSt3__16vectorIN14llama_kv_cache9slot_infoENS_9allocatorIS2_EEED1B9nqe210106Ev, symObjAddr: 0x1158, symBinAddr: 0x4D890, symSize: 0xC4 }
  - { offset: 0x263AB4, size: 0x8, addend: 0x0, symName: __ZNSt3__16vectorI12llama_ubatchNS_9allocatorIS1_EEED1B9nqe210106Ev, symObjAddr: 0x121C, symBinAddr: 0x4D954, symSize: 0x98 }
  - { offset: 0x263E98, size: 0x8, addend: 0x0, symName: __ZN27llama_kv_cache_iswa_contextC2EP19llama_kv_cache_iswaNSt3__16vectorIN14llama_kv_cache9slot_infoENS2_9allocatorIS5_EEEES8_NS3_I12llama_ubatchNS6_IS9_EEEE, symObjAddr: 0x174C, symBinAddr: 0x4DE84, symSize: 0x5CC }
  - { offset: 0x265918, size: 0x8, addend: 0x0, symName: __ZN19llama_kv_cache_iswa9init_fullEv, symObjAddr: 0x12B4, symBinAddr: 0x4D9EC, symSize: 0x54 }
  - { offset: 0x2659BF, size: 0x8, addend: 0x0, symName: __ZN27llama_kv_cache_iswa_contextC2EP19llama_kv_cache_iswa, symObjAddr: 0x14E4, symBinAddr: 0x4DC1C, symSize: 0x120 }
  - { offset: 0x265C79, size: 0x8, addend: 0x0, symName: __ZN19llama_kv_cache_iswa11init_updateEP13llama_contextb, symObjAddr: 0x1308, symBinAddr: 0x4DA40, symSize: 0x6C }
  - { offset: 0x265D5D, size: 0x8, addend: 0x0, symName: __ZN27llama_kv_cache_iswa_contextC2EP19llama_kv_cache_iswaP13llama_contextb, symObjAddr: 0x1608, symBinAddr: 0x4DD40, symSize: 0x140 }
  - { offset: 0x26600A, size: 0x8, addend: 0x0, symName: __ZNK19llama_kv_cache_iswa13get_can_shiftEv, symObjAddr: 0x1374, symBinAddr: 0x4DAAC, symSize: 0x60 }
  - { offset: 0x2660C3, size: 0x8, addend: 0x0, symName: __ZNK19llama_kv_cache_iswa11state_writeER16llama_io_write_iij, symObjAddr: 0x13D4, symBinAddr: 0x4DB0C, symSize: 0x5C }
  - { offset: 0x26616D, size: 0x8, addend: 0x0, symName: __ZN19llama_kv_cache_iswa10state_readER15llama_io_read_iij, symObjAddr: 0x1430, symBinAddr: 0x4DB68, symSize: 0x5C }
  - { offset: 0x26622D, size: 0x8, addend: 0x0, symName: __ZNK19llama_kv_cache_iswa8get_baseEv, symObjAddr: 0x148C, symBinAddr: 0x4DBC4, symSize: 0x8 }
  - { offset: 0x266251, size: 0x8, addend: 0x0, symName: __ZNK19llama_kv_cache_iswa8get_baseEv, symObjAddr: 0x148C, symBinAddr: 0x4DBC4, symSize: 0x8 }
  - { offset: 0x26626D, size: 0x8, addend: 0x0, symName: __ZNK19llama_kv_cache_iswa7get_swaEv, symObjAddr: 0x1494, symBinAddr: 0x4DBCC, symSize: 0x8 }
  - { offset: 0x266291, size: 0x8, addend: 0x0, symName: __ZNK19llama_kv_cache_iswa7get_swaEv, symObjAddr: 0x1494, symBinAddr: 0x4DBCC, symSize: 0x8 }
  - { offset: 0x2662AD, size: 0x8, addend: 0x0, symName: __ZN27llama_kv_cache_iswa_contextC2E19llama_memory_status, symObjAddr: 0x149C, symBinAddr: 0x4DBD4, symSize: 0x24 }
  - { offset: 0x266310, size: 0x8, addend: 0x0, symName: __ZN27llama_kv_cache_iswa_contextC1E19llama_memory_status, symObjAddr: 0x14C0, symBinAddr: 0x4DBF8, symSize: 0x24 }
  - { offset: 0x266339, size: 0x8, addend: 0x0, symName: __ZN27llama_kv_cache_iswa_contextC1E19llama_memory_status, symObjAddr: 0x14C0, symBinAddr: 0x4DBF8, symSize: 0x24 }
  - { offset: 0x266493, size: 0x8, addend: 0x0, symName: __ZN27llama_kv_cache_iswa_contextC1EP19llama_kv_cache_iswa, symObjAddr: 0x1604, symBinAddr: 0x4DD3C, symSize: 0x4 }
  - { offset: 0x2664BD, size: 0x8, addend: 0x0, symName: __ZN27llama_kv_cache_iswa_contextC1EP19llama_kv_cache_iswa, symObjAddr: 0x1604, symBinAddr: 0x4DD3C, symSize: 0x4 }
  - { offset: 0x2664D7, size: 0x8, addend: 0x0, symName: __ZN27llama_kv_cache_iswa_contextC1EP19llama_kv_cache_iswaP13llama_contextb, symObjAddr: 0x1748, symBinAddr: 0x4DE80, symSize: 0x4 }
  - { offset: 0x266514, size: 0x8, addend: 0x0, symName: __ZN27llama_kv_cache_iswa_contextC1EP19llama_kv_cache_iswaP13llama_contextb, symObjAddr: 0x1748, symBinAddr: 0x4DE80, symSize: 0x4 }
  - { offset: 0x2668D6, size: 0x8, addend: 0x0, symName: __ZNSt3__16vectorI12llama_ubatchNS_9allocatorIS1_EEE20__throw_length_errorB9nqe210106Ev, symObjAddr: 0x279C, symBinAddr: 0x4EC94, symSize: 0x14 }
  - { offset: 0x2668F9, size: 0x8, addend: 0x0, symName: __ZNSt3__128__exception_guard_exceptionsINS_6vectorI12llama_ubatchNS_9allocatorIS2_EEE16__destroy_vectorEED1B9nqe210106Ev, symObjAddr: 0x2824, symBinAddr: 0x4ECA8, symSize: 0xB0 }
  - { offset: 0x266B1D, size: 0x8, addend: 0x0, symName: __ZN27llama_kv_cache_iswa_contextC1EP19llama_kv_cache_iswaNSt3__16vectorIN14llama_kv_cache9slot_infoENS2_9allocatorIS5_EEEES8_NS3_I12llama_ubatchNS6_IS9_EEEE, symObjAddr: 0x1D18, symBinAddr: 0x4E450, symSize: 0x4 }
  - { offset: 0x266B5F, size: 0x8, addend: 0x0, symName: __ZN27llama_kv_cache_iswa_contextC1EP19llama_kv_cache_iswaNSt3__16vectorIN14llama_kv_cache9slot_infoENS2_9allocatorIS5_EEEES8_NS3_I12llama_ubatchNS6_IS9_EEEE, symObjAddr: 0x1D18, symBinAddr: 0x4E450, symSize: 0x4 }
  - { offset: 0x266B8E, size: 0x8, addend: 0x0, symName: __ZN27llama_kv_cache_iswa_contextD2Ev, symObjAddr: 0x1D1C, symBinAddr: 0x4E454, symSize: 0xD4 }
  - { offset: 0x266F26, size: 0x8, addend: 0x0, symName: __ZN27llama_kv_cache_iswa_contextD1Ev, symObjAddr: 0x1DF0, symBinAddr: 0x4E528, symSize: 0xD4 }
  - { offset: 0x2672DB, size: 0x8, addend: 0x0, symName: __ZN27llama_kv_cache_iswa_contextD0Ev, symObjAddr: 0x1EC4, symBinAddr: 0x4E5FC, symSize: 0xD4 }
  - { offset: 0x267698, size: 0x8, addend: 0x0, symName: __ZN27llama_kv_cache_iswa_context4nextEv, symObjAddr: 0x1F98, symBinAddr: 0x4E6D0, symSize: 0x70 }
  - { offset: 0x267737, size: 0x8, addend: 0x0, symName: __ZN27llama_kv_cache_iswa_context5applyEv, symObjAddr: 0x2008, symBinAddr: 0x4E740, symSize: 0x44 }
  - { offset: 0x2677C7, size: 0x8, addend: 0x0, symName: __ZNK27llama_kv_cache_iswa_context10get_statusEv, symObjAddr: 0x204C, symBinAddr: 0x4E784, symSize: 0x8 }
  - { offset: 0x267813, size: 0x8, addend: 0x0, symName: __ZNK27llama_kv_cache_iswa_context10get_ubatchEv, symObjAddr: 0x2054, symBinAddr: 0x4E78C, symSize: 0x10 }
  - { offset: 0x267879, size: 0x8, addend: 0x0, symName: __ZNK27llama_kv_cache_iswa_context8get_baseEv, symObjAddr: 0x2064, symBinAddr: 0x4E79C, symSize: 0x8 }
  - { offset: 0x2678A5, size: 0x8, addend: 0x0, symName: __ZNK27llama_kv_cache_iswa_context8get_baseEv, symObjAddr: 0x2064, symBinAddr: 0x4E79C, symSize: 0x8 }
  - { offset: 0x2678C2, size: 0x8, addend: 0x0, symName: __ZNK27llama_kv_cache_iswa_context7get_swaEv, symObjAddr: 0x206C, symBinAddr: 0x4E7A4, symSize: 0x8 }
  - { offset: 0x2678EE, size: 0x8, addend: 0x0, symName: __ZNK27llama_kv_cache_iswa_context7get_swaEv, symObjAddr: 0x206C, symBinAddr: 0x4E7A4, symSize: 0x8 }
  - { offset: 0x267929, size: 0x8, addend: 0x0, symName: __ZN19llama_kv_cache_iswaD1Ev, symObjAddr: 0x2074, symBinAddr: 0x4E7AC, symSize: 0x5C }
  - { offset: 0x267AC1, size: 0x8, addend: 0x0, symName: __ZN19llama_kv_cache_iswaD0Ev, symObjAddr: 0x20D0, symBinAddr: 0x4E808, symSize: 0x5C }
  - { offset: 0x267C60, size: 0x8, addend: 0x0, symName: '__ZNSt3__110__function6__funcIZN19llama_kv_cache_iswaC1ERK11llama_model9ggml_typeS6_bbbbjjjjRKNS_8functionIFbiEEERKNS7_IFiiEEEE3$_0S8_ED1Ev', symObjAddr: 0x212C, symBinAddr: 0x4E864, symSize: 0x4 }
  - { offset: 0x267C8F, size: 0x8, addend: 0x0, symName: '__ZNSt3__110__function6__funcIZN19llama_kv_cache_iswaC1ERK11llama_model9ggml_typeS6_bbbbjjjjRKNS_8functionIFbiEEERKNS7_IFiiEEEE3$_0S8_ED0Ev', symObjAddr: 0x2130, symBinAddr: 0x4E868, symSize: 0x4 }
  - { offset: 0x267D04, size: 0x8, addend: 0x0, symName: '__ZNKSt3__110__function6__funcIZN19llama_kv_cache_iswaC1ERK11llama_model9ggml_typeS6_bbbbjjjjRKNS_8functionIFbiEEERKNS7_IFiiEEEE3$_0S8_E7__cloneEv', symObjAddr: 0x2134, symBinAddr: 0x4E86C, symSize: 0x38 }
  - { offset: 0x267D75, size: 0x8, addend: 0x0, symName: '__ZNKSt3__110__function6__funcIZN19llama_kv_cache_iswaC1ERK11llama_model9ggml_typeS6_bbbbjjjjRKNS_8functionIFbiEEERKNS7_IFiiEEEE3$_0S8_E7__cloneEPNS0_6__baseIS8_EE', symObjAddr: 0x216C, symBinAddr: 0x4E8A4, symSize: 0x18 }
  - { offset: 0x267DAA, size: 0x8, addend: 0x0, symName: '__ZNKSt3__110__function6__funcIZN19llama_kv_cache_iswaC1ERK11llama_model9ggml_typeS6_bbbbjjjjRKNS_8functionIFbiEEERKNS7_IFiiEEEE3$_0S8_E7__cloneEPNS0_6__baseIS8_EE', symObjAddr: 0x216C, symBinAddr: 0x4E8A4, symSize: 0x18 }
  - { offset: 0x267DCE, size: 0x8, addend: 0x0, symName: '__ZNKSt3__110__function6__funcIZN19llama_kv_cache_iswaC1ERK11llama_model9ggml_typeS6_bbbbjjjjRKNS_8functionIFbiEEERKNS7_IFiiEEEE3$_0S8_E7__cloneEPNS0_6__baseIS8_EE', symObjAddr: 0x216C, symBinAddr: 0x4E8A4, symSize: 0x18 }
  - { offset: 0x267DF2, size: 0x8, addend: 0x0, symName: '__ZNSt3__110__function6__funcIZN19llama_kv_cache_iswaC1ERK11llama_model9ggml_typeS6_bbbbjjjjRKNS_8functionIFbiEEERKNS7_IFiiEEEE3$_0S8_E7destroyEv', symObjAddr: 0x2184, symBinAddr: 0x4E8BC, symSize: 0x4 }
  - { offset: 0x267E15, size: 0x8, addend: 0x0, symName: '__ZNSt3__110__function6__funcIZN19llama_kv_cache_iswaC1ERK11llama_model9ggml_typeS6_bbbbjjjjRKNS_8functionIFbiEEERKNS7_IFiiEEEE3$_0S8_E18destroy_deallocateEv', symObjAddr: 0x2188, symBinAddr: 0x4E8C0, symSize: 0x14 }
  - { offset: 0x267F2B, size: 0x8, addend: 0x0, symName: '__ZNSt3__110__function6__funcIZN19llama_kv_cache_iswaC1ERK11llama_model9ggml_typeS6_bbbbjjjjRKNS_8functionIFbiEEERKNS7_IFiiEEEE3$_0S8_EclEOi', symObjAddr: 0x219C, symBinAddr: 0x4E8D4, symSize: 0x60 }
  - { offset: 0x2680C3, size: 0x8, addend: 0x0, symName: '__ZNKSt3__110__function6__funcIZN19llama_kv_cache_iswaC1ERK11llama_model9ggml_typeS6_bbbbjjjjRKNS_8functionIFbiEEERKNS7_IFiiEEEE3$_0S8_E6targetERKSt9type_info', symObjAddr: 0x21FC, symBinAddr: 0x4E934, symSize: 0x60 }
  - { offset: 0x26818D, size: 0x8, addend: 0x0, symName: '__ZNKSt3__110__function6__funcIZN19llama_kv_cache_iswaC1ERK11llama_model9ggml_typeS6_bbbbjjjjRKNS_8functionIFbiEEERKNS7_IFiiEEEE3$_0S8_E11target_typeEv', symObjAddr: 0x225C, symBinAddr: 0x4E994, symSize: 0xC }
  - { offset: 0x2681B0, size: 0x8, addend: 0x0, symName: '__ZNSt3__110__function6__funcIZN19llama_kv_cache_iswaC1ERK11llama_model9ggml_typeS6_bbbbjjjjRKNS_8functionIFbiEEERKNS7_IFiiEEEE3$_1S8_ED1Ev', symObjAddr: 0x2268, symBinAddr: 0x4E9A0, symSize: 0x4 }
  - { offset: 0x2681DF, size: 0x8, addend: 0x0, symName: '__ZNSt3__110__function6__funcIZN19llama_kv_cache_iswaC1ERK11llama_model9ggml_typeS6_bbbbjjjjRKNS_8functionIFbiEEERKNS7_IFiiEEEE3$_1S8_ED0Ev', symObjAddr: 0x226C, symBinAddr: 0x4E9A4, symSize: 0x4 }
  - { offset: 0x268254, size: 0x8, addend: 0x0, symName: '__ZNKSt3__110__function6__funcIZN19llama_kv_cache_iswaC1ERK11llama_model9ggml_typeS6_bbbbjjjjRKNS_8functionIFbiEEERKNS7_IFiiEEEE3$_1S8_E7__cloneEv', symObjAddr: 0x2270, symBinAddr: 0x4E9A8, symSize: 0x38 }
  - { offset: 0x2682C5, size: 0x8, addend: 0x0, symName: '__ZNKSt3__110__function6__funcIZN19llama_kv_cache_iswaC1ERK11llama_model9ggml_typeS6_bbbbjjjjRKNS_8functionIFbiEEERKNS7_IFiiEEEE3$_1S8_E7__cloneEPNS0_6__baseIS8_EE', symObjAddr: 0x22A8, symBinAddr: 0x4E9E0, symSize: 0x18 }
  - { offset: 0x2682FA, size: 0x8, addend: 0x0, symName: '__ZNKSt3__110__function6__funcIZN19llama_kv_cache_iswaC1ERK11llama_model9ggml_typeS6_bbbbjjjjRKNS_8functionIFbiEEERKNS7_IFiiEEEE3$_1S8_E7__cloneEPNS0_6__baseIS8_EE', symObjAddr: 0x22A8, symBinAddr: 0x4E9E0, symSize: 0x18 }
  - { offset: 0x26831E, size: 0x8, addend: 0x0, symName: '__ZNKSt3__110__function6__funcIZN19llama_kv_cache_iswaC1ERK11llama_model9ggml_typeS6_bbbbjjjjRKNS_8functionIFbiEEERKNS7_IFiiEEEE3$_1S8_E7__cloneEPNS0_6__baseIS8_EE', symObjAddr: 0x22A8, symBinAddr: 0x4E9E0, symSize: 0x18 }
  - { offset: 0x268342, size: 0x8, addend: 0x0, symName: '__ZNSt3__110__function6__funcIZN19llama_kv_cache_iswaC1ERK11llama_model9ggml_typeS6_bbbbjjjjRKNS_8functionIFbiEEERKNS7_IFiiEEEE3$_1S8_E7destroyEv', symObjAddr: 0x22C0, symBinAddr: 0x4E9F8, symSize: 0x4 }
  - { offset: 0x268365, size: 0x8, addend: 0x0, symName: '__ZNSt3__110__function6__funcIZN19llama_kv_cache_iswaC1ERK11llama_model9ggml_typeS6_bbbbjjjjRKNS_8functionIFbiEEERKNS7_IFiiEEEE3$_1S8_E18destroy_deallocateEv', symObjAddr: 0x22C4, symBinAddr: 0x4E9FC, symSize: 0x14 }
  - { offset: 0x2683FD, size: 0x8, addend: 0x0, symName: '__ZNSt3__110__function6__funcIZN19llama_kv_cache_iswaC1ERK11llama_model9ggml_typeS6_bbbbjjjjRKNS_8functionIFbiEEERKNS7_IFiiEEEE3$_1S8_EclEOi', symObjAddr: 0x22D8, symBinAddr: 0x4EA10, symSize: 0x5C }
  - { offset: 0x26853C, size: 0x8, addend: 0x0, symName: '__ZNKSt3__110__function6__funcIZN19llama_kv_cache_iswaC1ERK11llama_model9ggml_typeS6_bbbbjjjjRKNS_8functionIFbiEEERKNS7_IFiiEEEE3$_1S8_E6targetERKSt9type_info', symObjAddr: 0x2334, symBinAddr: 0x4EA6C, symSize: 0x60 }
  - { offset: 0x2685EF, size: 0x8, addend: 0x0, symName: '__ZNKSt3__110__function6__funcIZN19llama_kv_cache_iswaC1ERK11llama_model9ggml_typeS6_bbbbjjjjRKNS_8functionIFbiEEERKNS7_IFiiEEEE3$_1S8_E11target_typeEv', symObjAddr: 0x2394, symBinAddr: 0x4EACC, symSize: 0xC }
  - { offset: 0x26A790, size: 0x8, addend: 0x0, symName: __ZTV14llama_kv_cache, symObjAddr: 0x141F0, symBinAddr: 0x313F40, symSize: 0x0 }
  - { offset: 0x2A507A, size: 0x8, addend: 0x0, symName: __ZNSt3__135__uninitialized_allocator_copy_implB9nqe210106INS_9allocatorINS_6vectorIjNS1_IjEEEEEEPS4_S6_S6_EET2_RT_T0_T1_S7_, symObjAddr: 0x10ABC, symBinAddr: 0x5ED6C, symSize: 0xF8 }
  - { offset: 0x2A6088, size: 0x8, addend: 0x0, symName: __ZNSt3__134__uninitialized_allocator_relocateB9nqe210106INS_9allocatorIN14llama_kv_cache9slot_infoEEEPS3_EEvRT_T0_S8_S8_, symObjAddr: 0x12AF8, symBinAddr: 0x60850, symSize: 0xF8 }
  - { offset: 0x2A60E3, size: 0x8, addend: 0x0, symName: __ZNSt3__134__uninitialized_allocator_relocateB9nqe210106INS_9allocatorIN14llama_kv_cache9slot_infoEEEPS3_EEvRT_T0_S8_S8_, symObjAddr: 0x12AF8, symBinAddr: 0x60850, symSize: 0xF8 }
  - { offset: 0x2AE3CD, size: 0x8, addend: 0x0, symName: __ZTV23llm_graph_input_k_shift, symObjAddr: 0x142F0, symBinAddr: 0x314030, symSize: 0x0 }
  - { offset: 0x2AE48A, size: 0x8, addend: 0x0, symName: __ZTV22llama_kv_cache_context, symObjAddr: 0x14288, symBinAddr: 0x313FD8, symSize: 0x0 }
  - { offset: 0x2AE8B6, size: 0x8, addend: 0x0, symName: __ZN14llama_kv_cacheC2ERK11llama_model9ggml_typeS3_bbbjjjj14llama_swa_typeRKNSt3__18functionIFbiEEERKNS6_IFiiEEE, symObjAddr: 0x0, symBinAddr: 0x4ED58, symSize: 0x1810 }
  - { offset: 0x2B2739, size: 0x8, addend: 0x0, symName: __ZN14llama_kv_cache7prepareERKNSt3__16vectorI12llama_ubatchNS0_9allocatorIS2_EEEE, symObjAddr: 0x3BA4, symBinAddr: 0x52864, symSize: 0xF24 }
  - { offset: 0x2B9247, size: 0x8, addend: 0x0, symName: __ZNSt3__16vectorI14llama_kv_cellsNS_9allocatorIS1_EEE8__appendEm, symObjAddr: 0x11334, symBinAddr: 0x5F300, symSize: 0x25C }
  - { offset: 0x2B9983, size: 0x8, addend: 0x0, symName: __ZNSt3__16vectorI14llama_kv_cellsNS_9allocatorIS1_EEE20__throw_length_errorB9nqe210106Ev, symObjAddr: 0x11590, symBinAddr: 0x5F55C, symSize: 0x14 }
  - { offset: 0x2B998E, size: 0x8, addend: 0x0, symName: __ZNSt3__19allocatorI14llama_kv_cellsE7destroyB9nqe210106EPS1_, symObjAddr: 0x11124, symBinAddr: 0x5F21C, symSize: 0x90 }
  - { offset: 0x2B9F83, size: 0x8, addend: 0x0, symName: __ZN14llama_kv_cells6resizeEj, symObjAddr: 0x1810, symBinAddr: 0x50568, symSize: 0x178 }
  - { offset: 0x2BA406, size: 0x8, addend: 0x0, symName: __ZNSt3__16vectorIjNS_9allocatorIjEEE8__appendEmRKj, symObjAddr: 0x116C8, symBinAddr: 0x5F694, symSize: 0x1C0 }
  - { offset: 0x2BA944, size: 0x8, addend: 0x0, symName: __ZNSt3__112__hash_tableINS_17__hash_value_typeIiiEENS_22__unordered_map_hasherIiNS_4pairIKiiEENS_4hashIiEENS_8equal_toIiEELb1EEENS_21__unordered_map_equalIiS6_SA_S8_Lb1EEENS_9allocatorIS6_EEE25__emplace_unique_key_argsIiJRKNS_21piecewise_construct_tENS_5tupleIJOiEEENSL_IJEEEEEENS4_INS_15__hash_iteratorIPNS_11__hash_nodeIS2_PvEEEEbEERKT_DpOT0_, symObjAddr: 0x118E8, symBinAddr: 0x5F854, symSize: 0x310 }
  - { offset: 0x2BB031, size: 0x8, addend: 0x0, symName: __ZNSt3__16vectorIN14llama_kv_cache8kv_layerENS_9allocatorIS2_EEE24__emplace_back_slow_pathIJS2_EEEPS2_DpOT_, symObjAddr: 0x11D84, symBinAddr: 0x5FCF0, symSize: 0x1C8 }
  - { offset: 0x2BB80A, size: 0x8, addend: 0x0, symName: __ZNSt3__16vectorIN14llama_kv_cache8kv_layerENS_9allocatorIS2_EEE20__throw_length_errorB9nqe210106Ev, symObjAddr: 0x11F4C, symBinAddr: 0x5FEB8, symSize: 0x14 }
  - { offset: 0x2BB820, size: 0x8, addend: 0x0, symName: __ZNSt3__112__hash_tableINS_17__hash_value_typeIiiEENS_22__unordered_map_hasherIiNS_4pairIKiiEENS_4hashIiEENS_8equal_toIiEELb1EEENS_21__unordered_map_equalIiS6_SA_S8_Lb1EEENS_9allocatorIS6_EEE25__emplace_unique_key_argsIiJRKNS_21piecewise_construct_tENS_5tupleIJRS5_EEENSL_IJEEEEEENS4_INS_15__hash_iteratorIPNS_11__hash_nodeIS2_PvEEEEbEERKT_DpOT0_, symObjAddr: 0x11F60, symBinAddr: 0x5FECC, symSize: 0x310 }
  - { offset: 0x2BC010, size: 0x8, addend: 0x0, symName: __ZNSt3__16__treeINS_12__value_typeIP24ggml_backend_buffer_typeNS_10unique_ptrI12ggml_context20ggml_context_deleterEEEENS_19__map_value_compareIS3_NS_4pairIKS3_S7_EEZN14llama_kv_cacheC1ERK11llama_model9ggml_typeSH_bbbjjjj14llama_swa_typeRKNS_8functionIFbiEEERKNSJ_IFiiEEEE28ggml_backend_buft_comparatorLb1EEENS_9allocatorISC_EEE7destroyEPNS_11__tree_nodeIS8_PvEE, symObjAddr: 0x111B4, symBinAddr: 0x5F2AC, symSize: 0x54 }
  - { offset: 0x2BC1DE, size: 0x8, addend: 0x0, symName: __ZNSt3__112__hash_tableINS_17__hash_value_typeIxNS_6vectorIfNS_9allocatorIfEEEEEENS_22__unordered_map_hasherIxNS_4pairIKxS5_EENS_4hashIxEENS_8equal_toIxEELb1EEENS_21__unordered_map_equalIxSA_SE_SC_Lb1EEENS3_ISA_EEE25__emplace_unique_key_argsIxJRKNS_21piecewise_construct_tENS_5tupleIJRS9_EEENSO_IJEEEEEENS8_INS_15__hash_iteratorIPNS_11__hash_nodeIS6_PvEEEEbEERKT_DpOT0_, symObjAddr: 0x12284, symBinAddr: 0x601F0, symSize: 0x31C }
  - { offset: 0x2BC956, size: 0x8, addend: 0x0, symName: __ZNSt3__112__hash_tableINS_17__hash_value_typeIiiEENS_22__unordered_map_hasherIiNS_4pairIKiiEENS_4hashIiEENS_8equal_toIiEELb1EEENS_21__unordered_map_equalIiS6_SA_S8_Lb1EEENS_9allocatorIS6_EEE25__emplace_unique_key_argsIiJRKNS_21piecewise_construct_tENS_5tupleIJOiEEENSL_IJEEEEEENS4_INS_15__hash_iteratorIPNS_11__hash_nodeIS2_PvEEEEbEERKT_DpOT0_, symObjAddr: 0x118E8, symBinAddr: 0x5F854, symSize: 0x310 }
  - { offset: 0x2BC961, size: 0x8, addend: 0x0, symName: __ZNSt3__16vectorINS_4pairINS_10unique_ptrI12ggml_context20ggml_context_deleterEENS2_I19ggml_backend_buffer27ggml_backend_buffer_deleterEEEENS_9allocatorIS9_EEE20__throw_length_errorB9nqe210106Ev, symObjAddr: 0x12270, symBinAddr: 0x601DC, symSize: 0x14 }
  - { offset: 0x2BC979, size: 0x8, addend: 0x0, symName: __ZNSt3__112__hash_tableINS_17__hash_value_typeIxNS_6vectorIfNS_9allocatorIfEEEEEENS_22__unordered_map_hasherIxNS_4pairIKxS5_EENS_4hashIxEENS_8equal_toIxEELb1EEENS_21__unordered_map_equalIxSA_SE_SC_Lb1EEENS3_ISA_EEE25__emplace_unique_key_argsIxJRKNS_21piecewise_construct_tENS_5tupleIJRS9_EEENSO_IJEEEEEENS8_INS_15__hash_iteratorIPNS_11__hash_nodeIS6_PvEEEEbEERKT_DpOT0_, symObjAddr: 0x12284, symBinAddr: 0x601F0, symSize: 0x31C }
  - { offset: 0x2BC98E, size: 0x8, addend: 0x0, symName: __ZNSt3__16__treeIjNS_4lessIjEENS_9allocatorIjEEE7destroyEPNS_11__tree_nodeIjPvEE, symObjAddr: 0x10178, symBinAddr: 0x5E900, symSize: 0x44 }
  - { offset: 0x2BC999, size: 0x8, addend: 0x0, symName: __ZN14llama_kv_cache8kv_layerD1Ev, symObjAddr: 0x1988, symBinAddr: 0x506E0, symSize: 0x40 }
  - { offset: 0x2BCC4D, size: 0x8, addend: 0x0, symName: __ZNSt3__113unordered_mapIiiNS_4hashIiEENS_8equal_toIiEENS_9allocatorINS_4pairIKiiEEEEED1B9nqe210106Ev, symObjAddr: 0x1ABC, symBinAddr: 0x507E0, symSize: 0x48 }
  - { offset: 0x2BCEAC, size: 0x8, addend: 0x0, symName: __ZNSt3__16vectorIN14llama_kv_cache8kv_layerENS_9allocatorIS2_EEED1B9nqe210106Ev, symObjAddr: 0x1B04, symBinAddr: 0x50828, symSize: 0x80 }
  - { offset: 0x2BD249, size: 0x8, addend: 0x0, symName: __ZN14llama_kv_cache16stream_copy_infoD1Ev, symObjAddr: 0x1B84, symBinAddr: 0x508A8, symSize: 0x40 }
  - { offset: 0x2BD48D, size: 0x8, addend: 0x0, symName: __ZNSt3__16vectorI14llama_kv_cellsNS_9allocatorIS1_EEED1B9nqe210106Ev, symObjAddr: 0x1BC4, symBinAddr: 0x508E8, symSize: 0x68 }
  - { offset: 0x2BD5DB, size: 0x8, addend: 0x0, symName: __ZNSt3__16vectorINS_4pairINS_10unique_ptrI12ggml_context20ggml_context_deleterEENS2_I19ggml_backend_buffer27ggml_backend_buffer_deleterEEEENS_9allocatorIS9_EEED1B9nqe210106Ev, symObjAddr: 0x1C2C, symBinAddr: 0x50950, symSize: 0x84 }
  - { offset: 0x2BD868, size: 0x8, addend: 0x0, symName: __ZNSt3__113unordered_mapIxNS_6vectorIfNS_9allocatorIfEEEENS_4hashIxEENS_8equal_toIxEENS2_INS_4pairIKxS4_EEEEED1B9nqe210106Ev, symObjAddr: 0x1CB0, symBinAddr: 0x509D4, symSize: 0x68 }
  - { offset: 0x2BE250, size: 0x8, addend: 0x0, symName: __ZNSt3__16vectorI17llama_kv_cell_extNS_9allocatorIS1_EEE8__appendEm, symObjAddr: 0xFD38, symBinAddr: 0x5E6BC, symSize: 0x118 }
  - { offset: 0x2BE6F6, size: 0x8, addend: 0x0, symName: __ZNSt3__16vectorI17llama_kv_cell_extNS_9allocatorIS1_EEE20__throw_length_errorB9nqe210106Ev, symObjAddr: 0xFE50, symBinAddr: 0x5E7D4, symSize: 0x14 }
  - { offset: 0x2BE701, size: 0x8, addend: 0x0, symName: __ZNSt3__16vectorINS_6bitsetILm256EEENS_9allocatorIS2_EEE8__appendEm, symObjAddr: 0xFE64, symBinAddr: 0x5E7E8, symSize: 0x118 }
  - { offset: 0x2BEBE0, size: 0x8, addend: 0x0, symName: __ZNSt3__16__treeIjNS_4lessIjEENS_9allocatorIjEEE7destroyEPNS_11__tree_nodeIjPvEE, symObjAddr: 0x10178, symBinAddr: 0x5E900, symSize: 0x44 }
  - { offset: 0x2BED81, size: 0x8, addend: 0x0, symName: __ZNK14llama_kv_cache12size_k_bytesEv, symObjAddr: 0x19C8, symBinAddr: 0x50720, symSize: 0x64 }
  - { offset: 0x2BEE38, size: 0x8, addend: 0x0, symName: __ZNK14llama_kv_cache12size_v_bytesEv, symObjAddr: 0x1A2C, symBinAddr: 0x50784, symSize: 0x5C }
  - { offset: 0x2BF737, size: 0x8, addend: 0x0, symName: __ZN14llama_kv_cacheC1ERK11llama_model9ggml_typeS3_bbbjjjj14llama_swa_typeRKNSt3__18functionIFbiEEERKNS6_IFiiEEE, symObjAddr: 0x1D18, symBinAddr: 0x50A3C, symSize: 0x4 }
  - { offset: 0x2BF830, size: 0x8, addend: 0x0, symName: __ZN14llama_kv_cacheC1ERK11llama_model9ggml_typeS3_bbbjjjj14llama_swa_typeRKNSt3__18functionIFbiEEERKNS6_IFiiEEE, symObjAddr: 0x1D18, symBinAddr: 0x50A3C, symSize: 0x4 }
  - { offset: 0x2BF8DE, size: 0x8, addend: 0x0, symName: __ZN14llama_kv_cache5clearEb, symObjAddr: 0x1D1C, symBinAddr: 0x50A40, symSize: 0x148 }
  - { offset: 0x2C026C, size: 0x8, addend: 0x0, symName: __ZN14llama_kv_cache6seq_rmEiii, symObjAddr: 0x1E64, symBinAddr: 0x50B88, symSize: 0x450 }
  - { offset: 0x2C0DB0, size: 0x8, addend: 0x0, symName: __ZN14llama_kv_cells6seq_rmEji, symObjAddr: 0x22B4, symBinAddr: 0x50FD8, symSize: 0x294 }
  - { offset: 0x2C0DC3, size: 0x8, addend: 0x0, symName: __ZN14llama_kv_cells6seq_rmEji, symObjAddr: 0x22B4, symBinAddr: 0x50FD8, symSize: 0x294 }
  - { offset: 0x2C1474, size: 0x8, addend: 0x0, symName: __ZN14llama_kv_cache6seq_cpEiiii, symObjAddr: 0x2548, symBinAddr: 0x5126C, symSize: 0x60C }
  - { offset: 0x2C1C79, size: 0x8, addend: 0x0, symName: __ZN14llama_kv_cache6seq_cpEiiii, symObjAddr: 0x2548, symBinAddr: 0x5126C, symSize: 0x60C }
  - { offset: 0x2C3003, size: 0x8, addend: 0x0, symName: __ZN14llama_kv_cells7seq_addEji, symObjAddr: 0x2B54, symBinAddr: 0x51878, symSize: 0x114 }
  - { offset: 0x2C3016, size: 0x8, addend: 0x0, symName: __ZN14llama_kv_cells7seq_addEji, symObjAddr: 0x2B54, symBinAddr: 0x51878, symSize: 0x114 }
  - { offset: 0x2C33BC, size: 0x8, addend: 0x0, symName: __ZNK14llama_kv_cache8get_sizeEv, symObjAddr: 0x2C68, symBinAddr: 0x5198C, symSize: 0x24 }
  - { offset: 0x2C33C7, size: 0x8, addend: 0x0, symName: __ZN14llama_kv_cells7pos_addEji, symObjAddr: 0x2C8C, symBinAddr: 0x519B0, symSize: 0x148 }
  - { offset: 0x2C3785, size: 0x8, addend: 0x0, symName: __ZNSt3__16vectorI14llama_kv_cellsNS_9allocatorIS1_EEE8__appendEm, symObjAddr: 0x11334, symBinAddr: 0x5F300, symSize: 0x25C }
  - { offset: 0x2C3BF9, size: 0x8, addend: 0x0, symName: __ZNK14llama_kv_cache8get_sizeEv, symObjAddr: 0x2C68, symBinAddr: 0x5198C, symSize: 0x24 }
  - { offset: 0x2C3C26, size: 0x8, addend: 0x0, symName: __ZNK14llama_kv_cache8get_sizeEv, symObjAddr: 0x2C68, symBinAddr: 0x5198C, symSize: 0x24 }
  - { offset: 0x2C3CAF, size: 0x8, addend: 0x0, symName: __ZN14llama_kv_cells10seq_pos_rmEj, symObjAddr: 0x10694, symBinAddr: 0x5E944, symSize: 0x12C }
  - { offset: 0x2C406F, size: 0x8, addend: 0x0, symName: __ZN14llama_kv_cells11seq_pos_addEj, symObjAddr: 0x107C0, symBinAddr: 0x5EA70, symSize: 0x11C }
  - { offset: 0x2C444B, size: 0x8, addend: 0x0, symName: __ZN14llama_kv_cache8seq_keepEi, symObjAddr: 0x2DD4, symBinAddr: 0x51AF8, symSize: 0xE8 }
  - { offset: 0x2C45DC, size: 0x8, addend: 0x0, symName: __ZN14llama_kv_cells8seq_keepEji, symObjAddr: 0x2EBC, symBinAddr: 0x51BE0, symSize: 0x264 }
  - { offset: 0x2C45EF, size: 0x8, addend: 0x0, symName: __ZN14llama_kv_cells8seq_keepEji, symObjAddr: 0x2EBC, symBinAddr: 0x51BE0, symSize: 0x264 }
  - { offset: 0x2C4EAA, size: 0x8, addend: 0x0, symName: __ZN14llama_kv_cache7seq_addEiiii, symObjAddr: 0x3120, symBinAddr: 0x51E44, symSize: 0x1F0 }
  - { offset: 0x2C4EB5, size: 0x8, addend: 0x0, symName: __ZN14llama_kv_cache7seq_addEiiii, symObjAddr: 0x3120, symBinAddr: 0x51E44, symSize: 0x1F0 }
  - { offset: 0x2C50DA, size: 0x8, addend: 0x0, symName: __ZN14llama_kv_cache7seq_divEiiii, symObjAddr: 0x3310, symBinAddr: 0x52034, symSize: 0x1F0 }
  - { offset: 0x2C512C, size: 0x8, addend: 0x0, symName: __ZN14llama_kv_cache7seq_divEiiii, symObjAddr: 0x3310, symBinAddr: 0x52034, symSize: 0x1F0 }
  - { offset: 0x2C538A, size: 0x8, addend: 0x0, symName: __ZNK14llama_kv_cache11seq_pos_minEi, symObjAddr: 0x3500, symBinAddr: 0x52224, symSize: 0x7C }
  - { offset: 0x2C5407, size: 0x8, addend: 0x0, symName: __ZNK14llama_kv_cache11seq_pos_minEi, symObjAddr: 0x3500, symBinAddr: 0x52224, symSize: 0x7C }
  - { offset: 0x2C54F9, size: 0x8, addend: 0x0, symName: __ZNK14llama_kv_cache11seq_pos_maxEi, symObjAddr: 0x357C, symBinAddr: 0x522A0, symSize: 0xB8 }
  - { offset: 0x2C55A3, size: 0x8, addend: 0x0, symName: __ZNK14llama_kv_cache11seq_pos_maxEi, symObjAddr: 0x357C, symBinAddr: 0x522A0, symSize: 0xB8 }
  - { offset: 0x2C5729, size: 0x8, addend: 0x0, symName: __ZNK14llama_kv_cache16memory_breakdownEv, symObjAddr: 0x3634, symBinAddr: 0x52358, symSize: 0x1F8 }
  - { offset: 0x2C5CED, size: 0x8, addend: 0x0, symName: __ZNK14llama_kv_cache16memory_breakdownEv, symObjAddr: 0x3634, symBinAddr: 0x52358, symSize: 0x1F8 }
  - { offset: 0x2C6B66, size: 0x8, addend: 0x0, symName: __ZN14llama_kv_cache10init_batchER18llama_batch_allocrjb, symObjAddr: 0x382C, symBinAddr: 0x52550, symSize: 0x314 }
  - { offset: 0x2C9688, size: 0x8, addend: 0x0, symName: __ZNK14llama_kv_cache9find_slotERK12llama_ubatchb, symObjAddr: 0x4E48, symBinAddr: 0x539AC, symSize: 0xBD8 }
  - { offset: 0x2CBAC6, size: 0x8, addend: 0x0, symName: __ZN14llama_kv_cache9slot_infoC2ERKS0_, symObjAddr: 0x108DC, symBinAddr: 0x5EB8C, symSize: 0x148 }
  - { offset: 0x2CC0D8, size: 0x8, addend: 0x0, symName: __ZNSt3__16vectorIN14llama_kv_cache9slot_infoENS_9allocatorIS2_EEE24__emplace_back_slow_pathIJRKS2_EEEPS2_DpOT_, symObjAddr: 0x129A0, symBinAddr: 0x606F8, symSize: 0x144 }
  - { offset: 0x2CC485, size: 0x8, addend: 0x0, symName: __ZZN14llama_kv_cache7prepareERKNSt3__16vectorI12llama_ubatchNS0_9allocatorIS2_EEEEEN7state_tD1Ev, symObjAddr: 0x5B3C, symBinAddr: 0x546A0, symSize: 0xD4 }
  - { offset: 0x2CCAAA, size: 0x8, addend: 0x0, symName: __ZN14llama_kv_cache12apply_ubatchERKNS_9slot_infoERK12llama_ubatch, symObjAddr: 0x5C10, symBinAddr: 0x54774, symSize: 0xAF0 }
  - { offset: 0x2CE3DC, size: 0x8, addend: 0x0, symName: __ZN14llama_kv_cells3setERKNSt3__16vectorIjNS0_9allocatorIjEEEERKS_, symObjAddr: 0x6700, symBinAddr: 0x55264, symSize: 0x254 }
  - { offset: 0x2CE420, size: 0x8, addend: 0x0, symName: __ZN14llama_kv_cells3setERKNSt3__16vectorIjNS0_9allocatorIjEEEERKS_, symObjAddr: 0x6700, symBinAddr: 0x55264, symSize: 0x254 }
  - { offset: 0x2CEAC4, size: 0x8, addend: 0x0, symName: __ZNSt3__16vectorI14llama_kv_cellsNS_9allocatorIS1_EEE20__throw_length_errorB9nqe210106Ev, symObjAddr: 0x11590, symBinAddr: 0x5F55C, symSize: 0x14 }
  - { offset: 0x2CEADC, size: 0x8, addend: 0x0, symName: __ZNSt3__19allocatorI14llama_kv_cellsE9constructB9nqe210106IS1_JS1_EEEvPT_DpOT0_, symObjAddr: 0x115A4, symBinAddr: 0x5F570, symSize: 0x124 }
  - { offset: 0x2CEAE7, size: 0x8, addend: 0x0, symName: __ZNSt3__16vectorIZN14llama_kv_cache7prepareERKNS0_I12llama_ubatchNS_9allocatorIS2_EEEEE7state_tNS3_IS8_EEE20__throw_length_errorB9nqe210106Ev, symObjAddr: 0x12CA8, symBinAddr: 0x60A00, symSize: 0x14 }
  - { offset: 0x2CEAFF, size: 0x8, addend: 0x0, symName: __ZNSt3__113unordered_mapIiNS_6vectorIjNS_9allocatorIjEEEENS_4hashIiEENS_8equal_toIiEENS2_INS_4pairIKiS4_EEEEED1B9nqe210106Ev, symObjAddr: 0x12CBC, symBinAddr: 0x60A14, symSize: 0x68 }
  - { offset: 0x2CEB0A, size: 0x8, addend: 0x0, symName: __ZN14llama_kv_cache9slot_infoD1Ev, symObjAddr: 0x5A20, symBinAddr: 0x54584, symSize: 0x84 }
  - { offset: 0x2CEE98, size: 0x8, addend: 0x0, symName: __ZN14llama_kv_cellsD1Ev, symObjAddr: 0x5AA4, symBinAddr: 0x54608, symSize: 0x98 }
  - { offset: 0x2CF46A, size: 0x8, addend: 0x0, symName: __ZNSt3__16vectorIZN14llama_kv_cache7prepareERKNS0_I12llama_ubatchNS_9allocatorIS2_EEEEE7state_tNS3_IS8_EEED1B9nqe210106Ev, symObjAddr: 0x6954, symBinAddr: 0x554B8, symSize: 0x58 }
  - { offset: 0x2CF5D5, size: 0x8, addend: 0x0, symName: __ZN14llama_kv_cache9init_fullEv, symObjAddr: 0x4C24, symBinAddr: 0x53788, symSize: 0x54 }
  - { offset: 0x2CF67E, size: 0x8, addend: 0x0, symName: __ZN22llama_kv_cache_contextC2EP14llama_kv_cache, symObjAddr: 0xEFA8, symBinAddr: 0x5DB0C, symSize: 0x284 }
  - { offset: 0x2CFFE0, size: 0x8, addend: 0x0, symName: __ZN14llama_kv_cache11init_updateEP13llama_contextb, symObjAddr: 0x4C78, symBinAddr: 0x537DC, symSize: 0x138 }
  - { offset: 0x2D02D6, size: 0x8, addend: 0x0, symName: __ZNK14llama_kv_cache13get_has_shiftEv, symObjAddr: 0x4DB0, symBinAddr: 0x53914, symSize: 0x98 }
  - { offset: 0x2D0A34, size: 0x8, addend: 0x0, symName: __ZNSt3__16vectorINS0_IjNS_9allocatorIjEEEENS1_IS3_EEE8__appendEm, symObjAddr: 0x10FA8, symBinAddr: 0x5F0A0, symSize: 0x17C }
  - { offset: 0x2D0E43, size: 0x8, addend: 0x0, symName: __ZNSt3__19allocatorI14llama_kv_cellsE7destroyB9nqe210106EPS1_, symObjAddr: 0x11124, symBinAddr: 0x5F21C, symSize: 0x90 }
  - { offset: 0x2D0FAC, size: 0x8, addend: 0x0, symName: __ZN14llama_kv_cache6updateEP13llama_contextbRKNS_16stream_copy_infoE, symObjAddr: 0x69AC, symBinAddr: 0x55510, symSize: 0x2E8 }
  - { offset: 0x2D137E, size: 0x8, addend: 0x0, symName: __ZNK14llama_kv_cache17build_graph_shiftEP16llm_graph_resultP13llama_context, symObjAddr: 0x6C94, symBinAddr: 0x557F8, symSize: 0x350 }
  - { offset: 0x2D13C2, size: 0x8, addend: 0x0, symName: __ZNK14llama_kv_cache17build_graph_shiftEP16llm_graph_resultP13llama_context, symObjAddr: 0x6C94, symBinAddr: 0x557F8, symSize: 0x350 }
  - { offset: 0x2D1D46, size: 0x8, addend: 0x0, symName: __ZNK14llama_kv_cache16build_rope_shiftERK13llama_cparamsP12ggml_contextP11ggml_tensorS6_S6_S6_ffj, symObjAddr: 0xCE64, symBinAddr: 0x5B9C8, symSize: 0x1BC }
  - { offset: 0x2D2033, size: 0x8, addend: 0x0, symName: __ZNK14llama_kv_cache13get_can_shiftEv, symObjAddr: 0x6FE4, symBinAddr: 0x55B48, symSize: 0x38 }
  - { offset: 0x2D205D, size: 0x8, addend: 0x0, symName: __ZNK14llama_kv_cache12get_n_streamEv, symObjAddr: 0x701C, symBinAddr: 0x55B80, symSize: 0x8 }
  - { offset: 0x2D20A1, size: 0x8, addend: 0x0, symName: __ZNK14llama_kv_cache6type_kEv, symObjAddr: 0x7024, symBinAddr: 0x55B88, symSize: 0x10 }
  - { offset: 0x2D20C5, size: 0x8, addend: 0x0, symName: __ZNK14llama_kv_cache6type_kEv, symObjAddr: 0x7024, symBinAddr: 0x55B88, symSize: 0x10 }
  - { offset: 0x2D20EA, size: 0x8, addend: 0x0, symName: __ZNK14llama_kv_cache6type_vEv, symObjAddr: 0x7034, symBinAddr: 0x55B98, symSize: 0x10 }
  - { offset: 0x2D210E, size: 0x8, addend: 0x0, symName: __ZNK14llama_kv_cache6type_vEv, symObjAddr: 0x7034, symBinAddr: 0x55B98, symSize: 0x10 }
  - { offset: 0x2D2133, size: 0x8, addend: 0x0, symName: __ZNK14llama_kv_cache8get_n_kvERKNS_9slot_infoE, symObjAddr: 0x7044, symBinAddr: 0x55BA8, symSize: 0xCC }
  - { offset: 0x2D2172, size: 0x8, addend: 0x0, symName: __ZNK14llama_kv_cache8get_n_kvERKNS_9slot_infoE, symObjAddr: 0x7044, symBinAddr: 0x55BA8, symSize: 0xCC }
  - { offset: 0x2D2190, size: 0x8, addend: 0x0, symName: __ZNK14llama_kv_cache8get_n_kvERKNS_9slot_infoE, symObjAddr: 0x7044, symBinAddr: 0x55BA8, symSize: 0xCC }
  - { offset: 0x2D21AD, size: 0x8, addend: 0x0, symName: __ZNK14llama_kv_cache8get_n_kvERKNS_9slot_infoE, symObjAddr: 0x7044, symBinAddr: 0x55BA8, symSize: 0xCC }
  - { offset: 0x2D244A, size: 0x8, addend: 0x0, symName: __ZNK14llama_kv_cache5get_kEP12ggml_contextijRKNS_9slot_infoE, symObjAddr: 0x7110, symBinAddr: 0x55C74, symSize: 0x210 }
  - { offset: 0x2D285F, size: 0x8, addend: 0x0, symName: __ZNK14llama_kv_cache5get_vEP12ggml_contextijRKNS_9slot_infoE, symObjAddr: 0x7320, symBinAddr: 0x55E84, symSize: 0x2B4 }
  - { offset: 0x2D28AA, size: 0x8, addend: 0x0, symName: __ZNK14llama_kv_cache5get_vEP12ggml_contextijRKNS_9slot_infoE, symObjAddr: 0x7320, symBinAddr: 0x55E84, symSize: 0x2B4 }
  - { offset: 0x2D2CFF, size: 0x8, addend: 0x0, symName: __ZNK14llama_kv_cache5cpy_kEP12ggml_contextP11ggml_tensorS3_iRKNS_9slot_infoE, symObjAddr: 0x75D4, symBinAddr: 0x56138, symSize: 0x1EC }
  - { offset: 0x2D2D0A, size: 0x8, addend: 0x0, symName: __ZNK14llama_kv_cache5cpy_kEP12ggml_contextP11ggml_tensorS3_iRKNS_9slot_infoE, symObjAddr: 0x75D4, symBinAddr: 0x56138, symSize: 0x1EC }
  - { offset: 0x2D3162, size: 0x8, addend: 0x0, symName: __ZNK14llama_kv_cache5cpy_vEP12ggml_contextP11ggml_tensorS3_iRKNS_9slot_infoE, symObjAddr: 0x77C0, symBinAddr: 0x56324, symSize: 0x2C4 }
  - { offset: 0x2D31B9, size: 0x8, addend: 0x0, symName: __ZNK14llama_kv_cache5cpy_vEP12ggml_contextP11ggml_tensorS3_iRKNS_9slot_infoE, symObjAddr: 0x77C0, symBinAddr: 0x56324, symSize: 0x2C4 }
  - { offset: 0x2D3710, size: 0x8, addend: 0x0, symName: __ZNK14llama_kv_cache18build_input_k_idxsEP12ggml_contextRK12llama_ubatch, symObjAddr: 0x7A84, symBinAddr: 0x565E8, symSize: 0x34 }
  - { offset: 0x2D3784, size: 0x8, addend: 0x0, symName: __ZNK14llama_kv_cache18build_input_k_idxsEP12ggml_contextRK12llama_ubatch, symObjAddr: 0x7A84, symBinAddr: 0x565E8, symSize: 0x34 }
  - { offset: 0x2D37EF, size: 0x8, addend: 0x0, symName: __ZNK14llama_kv_cache18build_input_v_idxsEP12ggml_contextRK12llama_ubatch, symObjAddr: 0x7AB8, symBinAddr: 0x5661C, symSize: 0x54 }
  - { offset: 0x2D3862, size: 0x8, addend: 0x0, symName: __ZNK14llama_kv_cache17build_input_k_rotEP12ggml_context, symObjAddr: 0x7B0C, symBinAddr: 0x56670, symSize: 0x78 }
  - { offset: 0x2D38E7, size: 0x8, addend: 0x0, symName: __ZNK14llama_kv_cache17build_input_v_rotEP12ggml_context, symObjAddr: 0x7B84, symBinAddr: 0x566E8, symSize: 0x5C }
  - { offset: 0x2D3977, size: 0x8, addend: 0x0, symName: __ZNK14llama_kv_cache16set_input_k_idxsEP11ggml_tensorPK12llama_ubatchRKNS_9slot_infoE, symObjAddr: 0x7BE0, symBinAddr: 0x56744, symSize: 0x33C }
  - { offset: 0x2D3B1D, size: 0x8, addend: 0x0, symName: __ZNK14llama_kv_cache16set_input_v_idxsEP11ggml_tensorPK12llama_ubatchRKNS_9slot_infoE, symObjAddr: 0x7F1C, symBinAddr: 0x56A80, symSize: 0x538 }
  - { offset: 0x2D3B42, size: 0x8, addend: 0x0, symName: __ZNK14llama_kv_cache16set_input_v_idxsEP11ggml_tensorPK12llama_ubatchRKNS_9slot_infoE, symObjAddr: 0x7F1C, symBinAddr: 0x56A80, symSize: 0x538 }
  - { offset: 0x2D3E21, size: 0x8, addend: 0x0, symName: __ZNK14llama_kv_cache17set_input_k_shiftEP11ggml_tensor, symObjAddr: 0x8454, symBinAddr: 0x56FB8, symSize: 0xF0 }
  - { offset: 0x2D3E34, size: 0x8, addend: 0x0, symName: __ZNK14llama_kv_cache17set_input_k_shiftEP11ggml_tensor, symObjAddr: 0x8454, symBinAddr: 0x56FB8, symSize: 0xF0 }
  - { offset: 0x2D3F62, size: 0x8, addend: 0x0, symName: __ZNK14llama_kv_cache17set_input_kq_maskEP11ggml_tensorPK12llama_ubatchb, symObjAddr: 0x8544, symBinAddr: 0x570A8, symSize: 0x4338 }
  - { offset: 0x2D6A16, size: 0x8, addend: 0x0, symName: __ZNK14llama_kv_cache17set_input_kq_maskEP11ggml_tensorPK12llama_ubatchb, symObjAddr: 0x8544, symBinAddr: 0x570A8, symSize: 0x4338 }
  - { offset: 0x2E63B3, size: 0x8, addend: 0x0, symName: __ZNSt3__112__hash_tableINS_17__hash_value_typeIiNS_6vectorIjNS_9allocatorIjEEEEEENS_22__unordered_map_hasherIiNS_4pairIKiS5_EENS_4hashIiEENS_8equal_toIiEELb1EEENS_21__unordered_map_equalIiSA_SE_SC_Lb1EEENS3_ISA_EEE25__emplace_unique_key_argsIiJRKNS_21piecewise_construct_tENS_5tupleIJRS9_EEENSO_IJEEEEEENS8_INS_15__hash_iteratorIPNS_11__hash_nodeIS6_PvEEEEbEERKT_DpOT0_, symObjAddr: 0x12D80, symBinAddr: 0x60AD8, symSize: 0x320 }
  - { offset: 0x2E6AA5, size: 0x8, addend: 0x0, symName: __ZNSt3__112__hash_tableINS_17__hash_value_typeIijEENS_22__unordered_map_hasherIiNS_4pairIKijEENS_4hashIiEENS_8equal_toIiEELb1EEENS_21__unordered_map_equalIiS6_SA_S8_Lb1EEENS_9allocatorIS6_EEE25__emplace_unique_key_argsIiJRKNS_21piecewise_construct_tENS_5tupleIJRS5_EEENSL_IJEEEEEENS4_INS_15__hash_iteratorIPNS_11__hash_nodeIS2_PvEEEEbEERKT_DpOT0_, symObjAddr: 0x1328C, symBinAddr: 0x60FE4, symSize: 0x310 }
  - { offset: 0x2E7192, size: 0x8, addend: 0x0, symName: __ZNSt3__16vectorI14llama_kv_cellsNS_9allocatorIS1_EEE20__throw_out_of_rangeB9nqe210106Ev, symObjAddr: 0x12D6C, symBinAddr: 0x60AC4, symSize: 0x14 }
  - { offset: 0x2E71AA, size: 0x8, addend: 0x0, symName: __ZNSt3__112__hash_tableINS_17__hash_value_typeIiNS_6vectorIjNS_9allocatorIjEEEEEENS_22__unordered_map_hasherIiNS_4pairIKiS5_EENS_4hashIiEENS_8equal_toIiEELb1EEENS_21__unordered_map_equalIiSA_SE_SC_Lb1EEENS3_ISA_EEE25__emplace_unique_key_argsIiJRKNS_21piecewise_construct_tENS_5tupleIJRS9_EEENSO_IJEEEEEENS8_INS_15__hash_iteratorIPNS_11__hash_nodeIS6_PvEEEEbEERKT_DpOT0_, symObjAddr: 0x12D80, symBinAddr: 0x60AD8, symSize: 0x320 }
  - { offset: 0x2E71B5, size: 0x8, addend: 0x0, symName: __ZNSt3__113unordered_mapIiNS_6vectorIjNS_9allocatorIjEEEENS_4hashIiEENS_8equal_toIiEENS2_INS_4pairIKiS4_EEEEED1B9nqe210106Ev, symObjAddr: 0x12CBC, symBinAddr: 0x60A14, symSize: 0x68 }
  - { offset: 0x2E7580, size: 0x8, addend: 0x0, symName: __ZNSt3__113unordered_mapIijNS_4hashIiEENS_8equal_toIiEENS_9allocatorINS_4pairIKijEEEEED1B9nqe210106Ev, symObjAddr: 0x12D24, symBinAddr: 0x60A7C, symSize: 0x48 }
  - { offset: 0x2E77F5, size: 0x8, addend: 0x0, symName: __ZNK14llama_kv_cache20set_input_pos_bucketEP11ggml_tensorPK12llama_ubatch, symObjAddr: 0xC87C, symBinAddr: 0x5B3E0, symSize: 0x144 }
  - { offset: 0x2E79BA, size: 0x8, addend: 0x0, symName: __ZNK14llama_kv_cache15set_input_k_rotEP11ggml_tensor, symObjAddr: 0xC9C0, symBinAddr: 0x5B524, symSize: 0x220 }
  - { offset: 0x2E7C0B, size: 0x8, addend: 0x0, symName: __ZNK14llama_kv_cache15set_input_k_rotEP11ggml_tensor, symObjAddr: 0xC9C0, symBinAddr: 0x5B524, symSize: 0x220 }
  - { offset: 0x2E7F5E, size: 0x8, addend: 0x0, symName: __ZNK14llama_kv_cache15set_input_v_rotEP11ggml_tensor, symObjAddr: 0xCBE0, symBinAddr: 0x5B744, symSize: 0x220 }
  - { offset: 0x2E7F71, size: 0x8, addend: 0x0, symName: __ZNK14llama_kv_cache15set_input_v_rotEP11ggml_tensor, symObjAddr: 0xCBE0, symBinAddr: 0x5B744, symSize: 0x220 }
  - { offset: 0x2E82C4, size: 0x8, addend: 0x0, symName: __ZNK14llama_kv_cache10total_sizeEv, symObjAddr: 0xCE00, symBinAddr: 0x5B964, symSize: 0x64 }
  - { offset: 0x2E82D7, size: 0x8, addend: 0x0, symName: __ZNK14llama_kv_cache10total_sizeEv, symObjAddr: 0xCE00, symBinAddr: 0x5B964, symSize: 0x64 }
  - { offset: 0x2E859B, size: 0x8, addend: 0x0, symName: __ZN23llm_graph_input_k_shift9set_inputEPK12llama_ubatch, symObjAddr: 0xD020, symBinAddr: 0x5BB84, symSize: 0x120 }
  - { offset: 0x2E86EC, size: 0x8, addend: 0x0, symName: __ZNK14llama_kv_cache11state_writeER16llama_io_write_iij, symObjAddr: 0xD140, symBinAddr: 0x5BCA4, symSize: 0x4A4 }
  - { offset: 0x2E8E8E, size: 0x8, addend: 0x0, symName: __ZNK14llama_kv_cache11state_writeER16llama_io_write_iij, symObjAddr: 0xD140, symBinAddr: 0x5BCA4, symSize: 0x4A4 }
  - { offset: 0x2E9AC9, size: 0x8, addend: 0x0, symName: __ZNK14llama_kv_cache16state_write_metaER16llama_io_write_iRKNS_13cell_ranges_tEi, symObjAddr: 0xD5E4, symBinAddr: 0x5C148, symSize: 0x2D8 }
  - { offset: 0x2EA280, size: 0x8, addend: 0x0, symName: __ZNK14llama_kv_cache16state_write_dataER16llama_io_write_iRKNS_13cell_ranges_tE, symObjAddr: 0xD8BC, symBinAddr: 0x5C420, symSize: 0x348 }
  - { offset: 0x2EAA2A, size: 0x8, addend: 0x0, symName: __ZNSt3__16vectorINS_4pairIjjEENS_9allocatorIS2_EEE20__throw_length_errorB9nqe210106Ev, symObjAddr: 0x13728, symBinAddr: 0x61480, symSize: 0x14 }
  - { offset: 0x2EAA42, size: 0x8, addend: 0x0, symName: __ZNSt3__16vectorIN14llama_kv_cache9slot_infoENS_9allocatorIS2_EEE8__appendEm, symObjAddr: 0x1373C, symBinAddr: 0x61494, symSize: 0x1D0 }
  - { offset: 0x2EAD35, size: 0x8, addend: 0x0, symName: __ZN14llama_kv_cache10state_readER15llama_io_read_iij, symObjAddr: 0xDC04, symBinAddr: 0x5C768, symSize: 0x290 }
  - { offset: 0x2EB339, size: 0x8, addend: 0x0, symName: __ZN14llama_kv_cache15state_read_metaER15llama_io_read_ijjRNS_9slot_infoEi, symObjAddr: 0xDE94, symBinAddr: 0x5C9F8, symSize: 0x808 }
  - { offset: 0x2EC5E1, size: 0x8, addend: 0x0, symName: __ZN14llama_kv_cache15state_read_dataER15llama_io_read_ijjRKNS_9slot_infoE, symObjAddr: 0xE69C, symBinAddr: 0x5D200, symSize: 0x89C }
  - { offset: 0x2ED25A, size: 0x8, addend: 0x0, symName: __ZN22llama_kv_cache_contextC2E19llama_memory_status, symObjAddr: 0xEF38, symBinAddr: 0x5DA9C, symSize: 0x38 }
  - { offset: 0x2ED26C, size: 0x8, addend: 0x0, symName: __ZN14llama_kv_cache10state_readER15llama_io_read_iij.cold.1, symObjAddr: 0x1390C, symBinAddr: 0x291E8C, symSize: 0x1C }
  - { offset: 0x2EDE9D, size: 0x8, addend: 0x0, symName: __ZN22llama_kv_cache_contextC2E19llama_memory_status, symObjAddr: 0xEF38, symBinAddr: 0x5DA9C, symSize: 0x38 }
  - { offset: 0x2EDF41, size: 0x8, addend: 0x0, symName: __ZN22llama_kv_cache_contextC1E19llama_memory_status, symObjAddr: 0xEF70, symBinAddr: 0x5DAD4, symSize: 0x38 }
  - { offset: 0x2EDF6A, size: 0x8, addend: 0x0, symName: __ZN22llama_kv_cache_contextC1E19llama_memory_status, symObjAddr: 0xEF70, symBinAddr: 0x5DAD4, symSize: 0x38 }
  - { offset: 0x2EE197, size: 0x8, addend: 0x0, symName: __ZNSt3__16vectorIN14llama_kv_cache9slot_infoENS_9allocatorIS2_EEE6resizeEm, symObjAddr: 0xF22C, symBinAddr: 0x5DD90, symSize: 0xF0 }
  - { offset: 0x2EE648, size: 0x8, addend: 0x0, symName: __ZNSt3__16vectorIN14llama_kv_cache9slot_infoENS_9allocatorIS2_EEE8__appendEm, symObjAddr: 0x1373C, symBinAddr: 0x61494, symSize: 0x1D0 }
  - { offset: 0x2EEB4C, size: 0x8, addend: 0x0, symName: __ZN22llama_kv_cache_contextC1EP14llama_kv_cache, symObjAddr: 0xF31C, symBinAddr: 0x5DE80, symSize: 0x4 }
  - { offset: 0x2EEB76, size: 0x8, addend: 0x0, symName: __ZN22llama_kv_cache_contextC1EP14llama_kv_cache, symObjAddr: 0xF31C, symBinAddr: 0x5DE80, symSize: 0x4 }
  - { offset: 0x2EEB90, size: 0x8, addend: 0x0, symName: __ZN22llama_kv_cache_contextC2EP14llama_kv_cacheP13llama_contextbNS0_16stream_copy_infoE, symObjAddr: 0xF320, symBinAddr: 0x5DE84, symSize: 0x8C }
  - { offset: 0x2EED2F, size: 0x8, addend: 0x0, symName: __ZN22llama_kv_cache_contextC1EP14llama_kv_cacheP13llama_contextbNS0_16stream_copy_infoE, symObjAddr: 0xF3AC, symBinAddr: 0x5DF10, symSize: 0x8C }
  - { offset: 0x2EEF06, size: 0x8, addend: 0x0, symName: __ZN22llama_kv_cache_contextC2EP14llama_kv_cacheNSt3__16vectorINS0_9slot_infoENS2_9allocatorIS4_EEEENS3_I12llama_ubatchNS5_IS8_EEEE, symObjAddr: 0xF438, symBinAddr: 0x5DF9C, symSize: 0x6C }
  - { offset: 0x2EF056, size: 0x8, addend: 0x0, symName: __ZN22llama_kv_cache_contextC1EP14llama_kv_cacheNSt3__16vectorINS0_9slot_infoENS2_9allocatorIS4_EEEENS3_I12llama_ubatchNS5_IS8_EEEE, symObjAddr: 0xF4A4, symBinAddr: 0x5E008, symSize: 0x6C }
  - { offset: 0x2EF08F, size: 0x8, addend: 0x0, symName: __ZN22llama_kv_cache_contextC1EP14llama_kv_cacheNSt3__16vectorINS0_9slot_infoENS2_9allocatorIS4_EEEENS3_I12llama_ubatchNS5_IS8_EEEE, symObjAddr: 0xF4A4, symBinAddr: 0x5E008, symSize: 0x6C }
  - { offset: 0x2EF1FA, size: 0x8, addend: 0x0, symName: __ZN22llama_kv_cache_contextD2Ev, symObjAddr: 0xF510, symBinAddr: 0x5E074, symSize: 0x160 }
  - { offset: 0x2EFB78, size: 0x8, addend: 0x0, symName: __ZN22llama_kv_cache_contextD1Ev, symObjAddr: 0xF670, symBinAddr: 0x5E1D4, symSize: 0x4 }
  - { offset: 0x2EFB9B, size: 0x8, addend: 0x0, symName: __ZN22llama_kv_cache_contextD1Ev, symObjAddr: 0xF670, symBinAddr: 0x5E1D4, symSize: 0x4 }
  - { offset: 0x2EFBCF, size: 0x8, addend: 0x0, symName: __ZN22llama_kv_cache_contextD0Ev, symObjAddr: 0xF674, symBinAddr: 0x5E1D8, symSize: 0x14 }
  - { offset: 0x2EFC2D, size: 0x8, addend: 0x0, symName: __ZN22llama_kv_cache_context4nextEv, symObjAddr: 0xF688, symBinAddr: 0x5E1EC, symSize: 0x38 }
  - { offset: 0x2EFD0A, size: 0x8, addend: 0x0, symName: __ZN22llama_kv_cache_context5applyEv, symObjAddr: 0xF6C0, symBinAddr: 0x5E224, symSize: 0x13C }
  - { offset: 0x2F000B, size: 0x8, addend: 0x0, symName: __ZNK22llama_kv_cache_context10get_statusEv, symObjAddr: 0xF7FC, symBinAddr: 0x5E360, symSize: 0x8 }
  - { offset: 0x2F0057, size: 0x8, addend: 0x0, symName: __ZNK22llama_kv_cache_context10get_ubatchEv, symObjAddr: 0xF804, symBinAddr: 0x5E368, symSize: 0x14 }
  - { offset: 0x2F00A8, size: 0x8, addend: 0x0, symName: __ZNK22llama_kv_cache_context8get_n_kvEv, symObjAddr: 0xF818, symBinAddr: 0x5E37C, symSize: 0x8 }
  - { offset: 0x2F00EB, size: 0x8, addend: 0x0, symName: __ZNK22llama_kv_cache_context6type_kEv, symObjAddr: 0xF820, symBinAddr: 0x5E384, symSize: 0x14 }
  - { offset: 0x2F0174, size: 0x8, addend: 0x0, symName: __ZNK22llama_kv_cache_context6type_vEv, symObjAddr: 0xF834, symBinAddr: 0x5E398, symSize: 0x14 }
  - { offset: 0x2F0206, size: 0x8, addend: 0x0, symName: __ZNK22llama_kv_cache_context5get_kEP12ggml_contexti, symObjAddr: 0xF848, symBinAddr: 0x5E3AC, symSize: 0x1C }
  - { offset: 0x2F0290, size: 0x8, addend: 0x0, symName: __ZNK22llama_kv_cache_context5get_vEP12ggml_contexti, symObjAddr: 0xF864, symBinAddr: 0x5E3C8, symSize: 0x1C }
  - { offset: 0x2F031A, size: 0x8, addend: 0x0, symName: __ZNK22llama_kv_cache_context5cpy_kEP12ggml_contextP11ggml_tensorS3_i, symObjAddr: 0xF880, symBinAddr: 0x5E3E4, symSize: 0x8 }
  - { offset: 0x2F03A7, size: 0x8, addend: 0x0, symName: __ZNK22llama_kv_cache_context5cpy_vEP12ggml_contextP11ggml_tensorS3_i, symObjAddr: 0xF888, symBinAddr: 0x5E3EC, symSize: 0x8 }
  - { offset: 0x2F047D, size: 0x8, addend: 0x0, symName: __ZNK22llama_kv_cache_context18build_input_k_idxsEP12ggml_contextRK12llama_ubatch, symObjAddr: 0xF890, symBinAddr: 0x5E3F4, symSize: 0x34 }
  - { offset: 0x2F0569, size: 0x8, addend: 0x0, symName: __ZNK22llama_kv_cache_context18build_input_v_idxsEP12ggml_contextRK12llama_ubatch, symObjAddr: 0xF8C4, symBinAddr: 0x5E428, symSize: 0x58 }
  - { offset: 0x2F061A, size: 0x8, addend: 0x0, symName: __ZNK22llama_kv_cache_context17build_input_k_rotEP12ggml_context, symObjAddr: 0xF91C, symBinAddr: 0x5E480, symSize: 0x7C }
  - { offset: 0x2F070D, size: 0x8, addend: 0x0, symName: __ZNK22llama_kv_cache_context17build_input_v_rotEP12ggml_context, symObjAddr: 0xF998, symBinAddr: 0x5E4FC, symSize: 0x60 }
  - { offset: 0x2F07CB, size: 0x8, addend: 0x0, symName: __ZNK22llama_kv_cache_context17set_input_k_shiftEP11ggml_tensor, symObjAddr: 0xF9F8, symBinAddr: 0x5E55C, symSize: 0xF0 }
  - { offset: 0x2F0913, size: 0x8, addend: 0x0, symName: __ZNK22llama_kv_cache_context16set_input_k_idxsEP11ggml_tensorPK12llama_ubatch, symObjAddr: 0xFAE8, symBinAddr: 0x5E64C, symSize: 0x18 }
  - { offset: 0x2F0926, size: 0x8, addend: 0x0, symName: __ZNK22llama_kv_cache_context16set_input_k_idxsEP11ggml_tensorPK12llama_ubatch, symObjAddr: 0xFAE8, symBinAddr: 0x5E64C, symSize: 0x18 }
  - { offset: 0x2F09B0, size: 0x8, addend: 0x0, symName: __ZNK22llama_kv_cache_context16set_input_v_idxsEP11ggml_tensorPK12llama_ubatch, symObjAddr: 0xFB00, symBinAddr: 0x5E664, symSize: 0x18 }
  - { offset: 0x2F0A3A, size: 0x8, addend: 0x0, symName: __ZNK22llama_kv_cache_context17set_input_kq_maskEP11ggml_tensorPK12llama_ubatchb, symObjAddr: 0xFB18, symBinAddr: 0x5E67C, symSize: 0x8 }
  - { offset: 0x2F0AB7, size: 0x8, addend: 0x0, symName: __ZNK22llama_kv_cache_context20set_input_pos_bucketEP11ggml_tensorPK12llama_ubatch, symObjAddr: 0xFB20, symBinAddr: 0x5E684, symSize: 0x8 }
  - { offset: 0x2F0B1A, size: 0x8, addend: 0x0, symName: __ZNK22llama_kv_cache_context15set_input_k_rotEP11ggml_tensor, symObjAddr: 0xFB28, symBinAddr: 0x5E68C, symSize: 0x8 }
  - { offset: 0x2F0B68, size: 0x8, addend: 0x0, symName: __ZNK22llama_kv_cache_context15set_input_v_rotEP11ggml_tensor, symObjAddr: 0xFB30, symBinAddr: 0x5E694, symSize: 0x8 }
  - { offset: 0x2F0BB6, size: 0x8, addend: 0x0, symName: __ZN14llama_kv_cacheD1Ev, symObjAddr: 0xFB38, symBinAddr: 0x5E69C, symSize: 0x4 }
  - { offset: 0x2F0BD9, size: 0x8, addend: 0x0, symName: __ZN14llama_kv_cacheD1Ev, symObjAddr: 0xFB38, symBinAddr: 0x5E69C, symSize: 0x4 }
  - { offset: 0x2F0BEC, size: 0x8, addend: 0x0, symName: __ZN14llama_kv_cacheD2Ev, symObjAddr: 0x10DD8, symBinAddr: 0x5EED0, symSize: 0x1D0 }
  - { offset: 0x2F1E69, size: 0x8, addend: 0x0, symName: __ZN14llama_kv_cacheD0Ev, symObjAddr: 0xFB3C, symBinAddr: 0x5E6A0, symSize: 0x14 }
  - { offset: 0x2F1EC3, size: 0x8, addend: 0x0, symName: __ZN23llm_graph_input_k_shiftD1Ev, symObjAddr: 0xFB50, symBinAddr: 0x5E6B4, symSize: 0x4 }
  - { offset: 0x2F1EF0, size: 0x8, addend: 0x0, symName: __ZN23llm_graph_input_k_shiftD0Ev, symObjAddr: 0xFB54, symBinAddr: 0x5E6B8, symSize: 0x4 }
  - { offset: 0x2F2400, size: 0x8, addend: 0x0, symName: __ZNSt3__16vectorI17llama_kv_cell_extNS_9allocatorIS1_EEE20__throw_length_errorB9nqe210106Ev, symObjAddr: 0xFE50, symBinAddr: 0x5E7D4, symSize: 0x14 }
  - { offset: 0x2F2418, size: 0x8, addend: 0x0, symName: __ZNSt3__16vectorINS_6bitsetILm256EEENS_9allocatorIS2_EEE8__appendEm, symObjAddr: 0xFE64, symBinAddr: 0x5E7E8, symSize: 0x118 }
  - { offset: 0x2F2C0D, size: 0x8, addend: 0x0, symName: __ZNSt3__16vectorINS0_IjNS_9allocatorIjEEEENS1_IS3_EEE20__throw_length_errorB9nqe210106Ev, symObjAddr: 0x10AA8, symBinAddr: 0x5ED58, symSize: 0x14 }
  - { offset: 0x2F2C25, size: 0x8, addend: 0x0, symName: __ZNSt3__135__uninitialized_allocator_copy_implB9nqe210106INS_9allocatorINS_6vectorIjNS1_IjEEEEEEPS4_S6_S6_EET2_RT_T0_T1_S7_, symObjAddr: 0x10ABC, symBinAddr: 0x5ED6C, symSize: 0xF8 }
  - { offset: 0x2F2C30, size: 0x8, addend: 0x0, symName: __ZNSt3__128__exception_guard_exceptionsINS_6vectorINS1_IjNS_9allocatorIjEEEENS2_IS4_EEE16__destroy_vectorEED1B9nqe210106Ev, symObjAddr: 0x10A24, symBinAddr: 0x5ECD4, symSize: 0x84 }
  - { offset: 0x2F2F7D, size: 0x8, addend: 0x0, symName: __ZNSt3__128__exception_guard_exceptionsINS_29_AllocatorDestroyRangeReverseINS_9allocatorINS_6vectorIjNS2_IjEEEEEEPS5_EEED1B9nqe210106Ev, symObjAddr: 0x10BB4, symBinAddr: 0x5EE64, symSize: 0x6C }
  - { offset: 0x2F4254, size: 0x8, addend: 0x0, symName: __ZNSt3__19allocatorI14llama_kv_cellsE9constructB9nqe210106IS1_JS1_EEEvPT_DpOT0_, symObjAddr: 0x115A4, symBinAddr: 0x5F570, symSize: 0x124 }
  - { offset: 0x2F4284, size: 0x8, addend: 0x0, symName: __ZNSt3__19allocatorI14llama_kv_cellsE9constructB9nqe210106IS1_JS1_EEEvPT_DpOT0_, symObjAddr: 0x115A4, symBinAddr: 0x5F570, symSize: 0x124 }
  - { offset: 0x2F42A6, size: 0x8, addend: 0x0, symName: __ZNSt3__19allocatorI14llama_kv_cellsE9constructB9nqe210106IS1_JS1_EEEvPT_DpOT0_, symObjAddr: 0x115A4, symBinAddr: 0x5F570, symSize: 0x124 }
  - { offset: 0x2F4A19, size: 0x8, addend: 0x0, symName: __ZNSt3__112__hash_tableINS_17__hash_value_typeIiiEENS_22__unordered_map_hasherIiNS_4pairIKiiEENS_4hashIiEENS_8equal_toIiEELb1EEENS_21__unordered_map_equalIiS6_SA_S8_Lb1EEENS_9allocatorIS6_EEE11__do_rehashILb1EEEvm, symObjAddr: 0x11BF8, symBinAddr: 0x5FB64, symSize: 0x18C }
  - { offset: 0x2F4D50, size: 0x8, addend: 0x0, symName: __ZNSt3__16vectorIN14llama_kv_cache8kv_layerENS_9allocatorIS2_EEE24__emplace_back_slow_pathIJS2_EEEPS2_DpOT_, symObjAddr: 0x11D84, symBinAddr: 0x5FCF0, symSize: 0x1C8 }
  - { offset: 0x2F4F5A, size: 0x8, addend: 0x0, symName: __ZNSt3__16vectorIN14llama_kv_cache8kv_layerENS_9allocatorIS2_EEE20__throw_length_errorB9nqe210106Ev, symObjAddr: 0x11F4C, symBinAddr: 0x5FEB8, symSize: 0x14 }
  - { offset: 0x2F4F72, size: 0x8, addend: 0x0, symName: __ZNSt3__112__hash_tableINS_17__hash_value_typeIiiEENS_22__unordered_map_hasherIiNS_4pairIKiiEENS_4hashIiEENS_8equal_toIiEELb1EEENS_21__unordered_map_equalIiS6_SA_S8_Lb1EEENS_9allocatorIS6_EEE25__emplace_unique_key_argsIiJRKNS_21piecewise_construct_tENS_5tupleIJRS5_EEENSL_IJEEEEEENS4_INS_15__hash_iteratorIPNS_11__hash_nodeIS2_PvEEEEbEERKT_DpOT0_, symObjAddr: 0x11F60, symBinAddr: 0x5FECC, symSize: 0x310 }
  - { offset: 0x2F557A, size: 0x8, addend: 0x0, symName: __ZNSt3__112__hash_tableINS_17__hash_value_typeIxNS_6vectorIfNS_9allocatorIfEEEEEENS_22__unordered_map_hasherIxNS_4pairIKxS5_EENS_4hashIxEENS_8equal_toIxEELb1EEENS_21__unordered_map_equalIxSA_SE_SC_Lb1EEENS3_ISA_EEE11__do_rehashILb1EEEvm, symObjAddr: 0x12600, symBinAddr: 0x6056C, symSize: 0x18C }
  - { offset: 0x2F58C6, size: 0x8, addend: 0x0, symName: __ZNSt3__110unique_ptrINS_11__hash_nodeINS_17__hash_value_typeIxNS_6vectorIfNS_9allocatorIfEEEEEEPvEENS_22__hash_node_destructorINS4_IS9_EEEEED1B9nqe210106Ev, symObjAddr: 0x125A0, symBinAddr: 0x6050C, symSize: 0x60 }
  - { offset: 0x2F5E49, size: 0x8, addend: 0x0, symName: __ZNSt3__16vectorIN14llama_kv_cache9slot_infoENS_9allocatorIS2_EEE24__emplace_back_slow_pathIJRKS2_EEEPS2_DpOT_, symObjAddr: 0x129A0, symBinAddr: 0x606F8, symSize: 0x144 }
  - { offset: 0x2F5FCB, size: 0x8, addend: 0x0, symName: __ZNSt3__16vectorIN14llama_kv_cache9slot_infoENS_9allocatorIS2_EEE20__throw_length_errorB9nqe210106Ev, symObjAddr: 0x12AE4, symBinAddr: 0x6083C, symSize: 0x14 }
  - { offset: 0x2F5FE3, size: 0x8, addend: 0x0, symName: __ZNSt3__134__uninitialized_allocator_relocateB9nqe210106INS_9allocatorIN14llama_kv_cache9slot_infoEEEPS3_EEvRT_T0_S8_S8_, symObjAddr: 0x12AF8, symBinAddr: 0x60850, symSize: 0xF8 }
  - { offset: 0x2F5FEE, size: 0x8, addend: 0x0, symName: __ZNSt3__114__split_bufferIN14llama_kv_cache9slot_infoERNS_9allocatorIS2_EEED2Ev, symObjAddr: 0x12BF0, symBinAddr: 0x60948, symSize: 0xB8 }
  - { offset: 0x2F6A87, size: 0x8, addend: 0x0, symName: __ZNSt3__112__hash_tableINS_17__hash_value_typeIiNS_6vectorIjNS_9allocatorIjEEEEEENS_22__unordered_map_hasherIiNS_4pairIKiS5_EENS_4hashIiEENS_8equal_toIiEELb1EEENS_21__unordered_map_equalIiSA_SE_SC_Lb1EEENS3_ISA_EEE11__do_rehashILb1EEEvm, symObjAddr: 0x13100, symBinAddr: 0x60E58, symSize: 0x18C }
  - { offset: 0x2F6DBE, size: 0x8, addend: 0x0, symName: __ZNSt3__112__hash_tableINS_17__hash_value_typeIijEENS_22__unordered_map_hasherIiNS_4pairIKijEENS_4hashIiEENS_8equal_toIiEELb1EEENS_21__unordered_map_equalIiS6_SA_S8_Lb1EEENS_9allocatorIS6_EEE25__emplace_unique_key_argsIiJRKNS_21piecewise_construct_tENS_5tupleIJRS5_EEENSL_IJEEEEEENS4_INS_15__hash_iteratorIPNS_11__hash_nodeIS2_PvEEEEbEERKT_DpOT0_, symObjAddr: 0x1328C, symBinAddr: 0x60FE4, symSize: 0x310 }
  - { offset: 0x2F6DD3, size: 0x8, addend: 0x0, symName: __ZNSt3__110unique_ptrINS_11__hash_nodeINS_17__hash_value_typeIiNS_6vectorIjNS_9allocatorIjEEEEEEPvEENS_22__hash_node_destructorINS4_IS9_EEEEED1B9nqe210106Ev, symObjAddr: 0x130A0, symBinAddr: 0x60DF8, symSize: 0x60 }
  - { offset: 0x2F7595, size: 0x8, addend: 0x0, symName: __ZNSt3__112__hash_tableINS_17__hash_value_typeIijEENS_22__unordered_map_hasherIiNS_4pairIKijEENS_4hashIiEENS_8equal_toIiEELb1EEENS_21__unordered_map_equalIiS6_SA_S8_Lb1EEENS_9allocatorIS6_EEE11__do_rehashILb1EEEvm, symObjAddr: 0x1359C, symBinAddr: 0x612F4, symSize: 0x18C }
  - { offset: 0x2F78CC, size: 0x8, addend: 0x0, symName: __ZNSt3__16vectorINS_4pairIjjEENS_9allocatorIS2_EEE20__throw_length_errorB9nqe210106Ev, symObjAddr: 0x13728, symBinAddr: 0x61480, symSize: 0x14 }
  - { offset: 0x2F9954, size: 0x8, addend: 0x0, symName: __ZN24llama_memory_hybrid_iswaC2ERK11llama_model9ggml_typeS3_bbjjjS3_S3_jjbbRKNSt3__18functionIFbiEEES9_, symObjAddr: 0x0, symBinAddr: 0x61664, symSize: 0x340 }
  - { offset: 0x2F997C, size: 0x8, addend: 0x0, symName: __ZTV24llama_memory_hybrid_iswa, symObjAddr: 0x2880, symBinAddr: 0x314090, symSize: 0x0 }
  - { offset: 0x3216CD, size: 0x8, addend: 0x0, symName: __ZNSt3__111make_uniqueB9nqe210106I32llama_memory_hybrid_iswa_contextJP24llama_memory_hybrid_iswaNS_6vectorIN14llama_kv_cache9slot_infoENS_9allocatorIS6_EEEES9_NS4_I12llama_ubatchNS7_ISA_EEEEELi0EEENS_10unique_ptrIT_NS_14default_deleteISE_EEEEDpOT0_, symObjAddr: 0xA54, symBinAddr: 0x62054, symSize: 0x264 }
  - { offset: 0x32B145, size: 0x8, addend: 0x0, symName: __ZTV32llama_memory_hybrid_iswa_context, symObjAddr: 0x2918, symBinAddr: 0x314128, symSize: 0x0 }
  - { offset: 0x32BA90, size: 0x8, addend: 0x0, symName: '__ZTVNSt3__110__function6__funcIZN24llama_memory_hybrid_iswaC1ERK11llama_model9ggml_typeS6_bbjjjS6_S6_jjbbRKNS_8functionIFbiEEESB_E3$_0S8_EE', symObjAddr: 0x29A8, symBinAddr: 0x314198, symSize: 0x0 }
  - { offset: 0x32BA9E, size: 0x8, addend: 0x0, symName: __ZN24llama_memory_hybrid_iswaC1ERK11llama_model9ggml_typeS3_bbjjjS3_S3_jjbbRKNSt3__18functionIFbiEEES9_, symObjAddr: 0x340, symBinAddr: 0x619A4, symSize: 0x14 }
  - { offset: 0x32BC82, size: 0x8, addend: 0x0, symName: '__ZTVNSt3__110__function6__funcIZN24llama_memory_hybrid_iswaC1ERK11llama_model9ggml_typeS6_bbjjjS6_S6_jjbbRKNS_8functionIFbiEEESB_E3$_1S8_EE', symObjAddr: 0x2A38, symBinAddr: 0x314218, symSize: 0x0 }
  - { offset: 0x32C366, size: 0x8, addend: 0x0, symName: __ZN24llama_memory_hybrid_iswaC2ERK11llama_model9ggml_typeS3_bbjjjS3_S3_jjbbRKNSt3__18functionIFbiEEES9_, symObjAddr: 0x0, symBinAddr: 0x61664, symSize: 0x340 }
  - { offset: 0x32D889, size: 0x8, addend: 0x0, symName: __ZN24llama_memory_hybrid_iswa10init_batchER18llama_batch_allocrjb, symObjAddr: 0x354, symBinAddr: 0x619B8, symSize: 0x69C }
  - { offset: 0x32FBB4, size: 0x8, addend: 0x0, symName: __ZN32llama_memory_hybrid_iswa_contextC2EP24llama_memory_hybrid_iswaNSt3__16vectorIN14llama_kv_cache9slot_infoENS2_9allocatorIS5_EEEES8_NS3_I12llama_ubatchNS6_IS9_EEEE, symObjAddr: 0x16E8, symBinAddr: 0x62B8C, symSize: 0x5BC }
  - { offset: 0x331603, size: 0x8, addend: 0x0, symName: __ZN24llama_memory_hybrid_iswa9init_fullEv, symObjAddr: 0xE14, symBinAddr: 0x622B8, symSize: 0x54 }
  - { offset: 0x3316AA, size: 0x8, addend: 0x0, symName: __ZN32llama_memory_hybrid_iswa_contextC2EP24llama_memory_hybrid_iswa, symObjAddr: 0x1480, symBinAddr: 0x62924, symSize: 0x120 }
  - { offset: 0x331959, size: 0x8, addend: 0x0, symName: __ZN24llama_memory_hybrid_iswa11init_updateEP13llama_contextb, symObjAddr: 0xE68, symBinAddr: 0x6230C, symSize: 0x6C }
  - { offset: 0x331A3D, size: 0x8, addend: 0x0, symName: __ZN32llama_memory_hybrid_iswa_contextC2EP24llama_memory_hybrid_iswaP13llama_contextb, symObjAddr: 0x15A4, symBinAddr: 0x62A48, symSize: 0x140 }
  - { offset: 0x331CE1, size: 0x8, addend: 0x0, symName: __ZNK24llama_memory_hybrid_iswa13get_can_shiftEv, symObjAddr: 0xED4, symBinAddr: 0x62378, symSize: 0x10 }
  - { offset: 0x331D0C, size: 0x8, addend: 0x0, symName: __ZNK24llama_memory_hybrid_iswa13get_can_shiftEv, symObjAddr: 0xED4, symBinAddr: 0x62378, symSize: 0x10 }
  - { offset: 0x331D34, size: 0x8, addend: 0x0, symName: __ZN24llama_memory_hybrid_iswa5clearEb, symObjAddr: 0xEE4, symBinAddr: 0x62388, symSize: 0x40 }
  - { offset: 0x331DC8, size: 0x8, addend: 0x0, symName: __ZN24llama_memory_hybrid_iswa6seq_rmEiii, symObjAddr: 0xF24, symBinAddr: 0x623C8, symSize: 0x6C }
  - { offset: 0x331E88, size: 0x8, addend: 0x0, symName: __ZN24llama_memory_hybrid_iswa6seq_cpEiiii, symObjAddr: 0xF90, symBinAddr: 0x62434, symSize: 0x68 }
  - { offset: 0x331F5E, size: 0x8, addend: 0x0, symName: __ZN24llama_memory_hybrid_iswa8seq_keepEi, symObjAddr: 0xFF8, symBinAddr: 0x6249C, symSize: 0x40 }
  - { offset: 0x331FF2, size: 0x8, addend: 0x0, symName: __ZN24llama_memory_hybrid_iswa7seq_addEiiii, symObjAddr: 0x1038, symBinAddr: 0x624DC, symSize: 0x68 }
  - { offset: 0x3320C8, size: 0x8, addend: 0x0, symName: __ZN24llama_memory_hybrid_iswa7seq_divEiiii, symObjAddr: 0x10A0, symBinAddr: 0x62544, symSize: 0x68 }
  - { offset: 0x33219E, size: 0x8, addend: 0x0, symName: __ZNK24llama_memory_hybrid_iswa11seq_pos_minEi, symObjAddr: 0x1108, symBinAddr: 0x625AC, symSize: 0x58 }
  - { offset: 0x332239, size: 0x8, addend: 0x0, symName: __ZNK24llama_memory_hybrid_iswa11seq_pos_maxEi, symObjAddr: 0x1160, symBinAddr: 0x62604, symSize: 0x58 }
  - { offset: 0x332887, size: 0x8, addend: 0x0, symName: __ZNK24llama_memory_hybrid_iswa16memory_breakdownEv, symObjAddr: 0x11B8, symBinAddr: 0x6265C, symSize: 0x1C0 }
  - { offset: 0x332FB8, size: 0x8, addend: 0x0, symName: __ZNK24llama_memory_hybrid_iswa11state_writeER16llama_io_write_iij, symObjAddr: 0x1378, symBinAddr: 0x6281C, symSize: 0x58 }
  - { offset: 0x333078, size: 0x8, addend: 0x0, symName: __ZN24llama_memory_hybrid_iswa10state_readER15llama_io_read_iij, symObjAddr: 0x13D0, symBinAddr: 0x62874, symSize: 0x58 }
  - { offset: 0x33314E, size: 0x8, addend: 0x0, symName: __ZNK24llama_memory_hybrid_iswa12get_mem_attnEv, symObjAddr: 0x1428, symBinAddr: 0x628CC, symSize: 0x8 }
  - { offset: 0x333172, size: 0x8, addend: 0x0, symName: __ZNK24llama_memory_hybrid_iswa12get_mem_attnEv, symObjAddr: 0x1428, symBinAddr: 0x628CC, symSize: 0x8 }
  - { offset: 0x3331A4, size: 0x8, addend: 0x0, symName: __ZNK24llama_memory_hybrid_iswa12get_mem_recrEv, symObjAddr: 0x1430, symBinAddr: 0x628D4, symSize: 0x8 }
  - { offset: 0x3331C8, size: 0x8, addend: 0x0, symName: __ZNK24llama_memory_hybrid_iswa12get_mem_recrEv, symObjAddr: 0x1430, symBinAddr: 0x628D4, symSize: 0x8 }
  - { offset: 0x3331E4, size: 0x8, addend: 0x0, symName: __ZN32llama_memory_hybrid_iswa_contextC2E19llama_memory_status, symObjAddr: 0x1438, symBinAddr: 0x628DC, symSize: 0x24 }
  - { offset: 0x333247, size: 0x8, addend: 0x0, symName: __ZN32llama_memory_hybrid_iswa_contextC1E19llama_memory_status, symObjAddr: 0x145C, symBinAddr: 0x62900, symSize: 0x24 }
  - { offset: 0x333270, size: 0x8, addend: 0x0, symName: __ZN32llama_memory_hybrid_iswa_contextC1E19llama_memory_status, symObjAddr: 0x145C, symBinAddr: 0x62900, symSize: 0x24 }
  - { offset: 0x3333CA, size: 0x8, addend: 0x0, symName: __ZN32llama_memory_hybrid_iswa_contextC1EP24llama_memory_hybrid_iswa, symObjAddr: 0x15A0, symBinAddr: 0x62A44, symSize: 0x4 }
  - { offset: 0x3333F4, size: 0x8, addend: 0x0, symName: __ZN32llama_memory_hybrid_iswa_contextC1EP24llama_memory_hybrid_iswa, symObjAddr: 0x15A0, symBinAddr: 0x62A44, symSize: 0x4 }
  - { offset: 0x33340E, size: 0x8, addend: 0x0, symName: __ZN32llama_memory_hybrid_iswa_contextC1EP24llama_memory_hybrid_iswaP13llama_contextb, symObjAddr: 0x16E4, symBinAddr: 0x62B88, symSize: 0x4 }
  - { offset: 0x33344B, size: 0x8, addend: 0x0, symName: __ZN32llama_memory_hybrid_iswa_contextC1EP24llama_memory_hybrid_iswaP13llama_contextb, symObjAddr: 0x16E4, symBinAddr: 0x62B88, symSize: 0x4 }
  - { offset: 0x333969, size: 0x8, addend: 0x0, symName: __ZN32llama_memory_hybrid_iswa_contextC1EP24llama_memory_hybrid_iswaNSt3__16vectorIN14llama_kv_cache9slot_infoENS2_9allocatorIS5_EEEES8_NS3_I12llama_ubatchNS6_IS9_EEEE, symObjAddr: 0x1CA4, symBinAddr: 0x63148, symSize: 0x4 }
  - { offset: 0x3339AB, size: 0x8, addend: 0x0, symName: __ZN32llama_memory_hybrid_iswa_contextC1EP24llama_memory_hybrid_iswaNSt3__16vectorIN14llama_kv_cache9slot_infoENS2_9allocatorIS5_EEEES8_NS3_I12llama_ubatchNS6_IS9_EEEE, symObjAddr: 0x1CA4, symBinAddr: 0x63148, symSize: 0x4 }
  - { offset: 0x3339DA, size: 0x8, addend: 0x0, symName: __ZN32llama_memory_hybrid_iswa_context4nextEv, symObjAddr: 0x1CA8, symBinAddr: 0x6314C, symSize: 0x70 }
  - { offset: 0x333A75, size: 0x8, addend: 0x0, symName: __ZN32llama_memory_hybrid_iswa_context5applyEv, symObjAddr: 0x1D18, symBinAddr: 0x631BC, symSize: 0x44 }
  - { offset: 0x333B02, size: 0x8, addend: 0x0, symName: __ZNK32llama_memory_hybrid_iswa_context10get_statusEv, symObjAddr: 0x1D5C, symBinAddr: 0x63200, symSize: 0x8 }
  - { offset: 0x333B4E, size: 0x8, addend: 0x0, symName: __ZNK32llama_memory_hybrid_iswa_context10get_ubatchEv, symObjAddr: 0x1D64, symBinAddr: 0x63208, symSize: 0x10 }
  - { offset: 0x333BB4, size: 0x8, addend: 0x0, symName: __ZNK32llama_memory_hybrid_iswa_context8get_attnEv, symObjAddr: 0x1D74, symBinAddr: 0x63218, symSize: 0x8 }
  - { offset: 0x333BE0, size: 0x8, addend: 0x0, symName: __ZNK32llama_memory_hybrid_iswa_context8get_attnEv, symObjAddr: 0x1D74, symBinAddr: 0x63218, symSize: 0x8 }
  - { offset: 0x333BFD, size: 0x8, addend: 0x0, symName: __ZNK32llama_memory_hybrid_iswa_context8get_recrEv, symObjAddr: 0x1D7C, symBinAddr: 0x63220, symSize: 0x8 }
  - { offset: 0x333C29, size: 0x8, addend: 0x0, symName: __ZNK32llama_memory_hybrid_iswa_context8get_recrEv, symObjAddr: 0x1D7C, symBinAddr: 0x63220, symSize: 0x8 }
  - { offset: 0x333CF5, size: 0x8, addend: 0x0, symName: __ZN24llama_memory_hybrid_iswaD1Ev, symObjAddr: 0x1D84, symBinAddr: 0x63228, symSize: 0x5C }
  - { offset: 0x333E8D, size: 0x8, addend: 0x0, symName: __ZN24llama_memory_hybrid_iswaD0Ev, symObjAddr: 0x1DE0, symBinAddr: 0x63284, symSize: 0x5C }
  - { offset: 0x33404A, size: 0x8, addend: 0x0, symName: __ZN32llama_memory_hybrid_iswa_contextD1Ev, symObjAddr: 0x1E3C, symBinAddr: 0x632E0, symSize: 0xD4 }
  - { offset: 0x3343F8, size: 0x8, addend: 0x0, symName: __ZN32llama_memory_hybrid_iswa_contextD0Ev, symObjAddr: 0x1F10, symBinAddr: 0x633B4, symSize: 0xD4 }
  - { offset: 0x3347AD, size: 0x8, addend: 0x0, symName: '__ZNSt3__110__function6__funcIZN24llama_memory_hybrid_iswaC1ERK11llama_model9ggml_typeS6_bbjjjS6_S6_jjbbRKNS_8functionIFbiEEESB_E3$_0S8_ED1Ev', symObjAddr: 0x1FE4, symBinAddr: 0x63488, symSize: 0x4 }
  - { offset: 0x3347DC, size: 0x8, addend: 0x0, symName: '__ZNSt3__110__function6__funcIZN24llama_memory_hybrid_iswaC1ERK11llama_model9ggml_typeS6_bbjjjS6_S6_jjbbRKNS_8functionIFbiEEESB_E3$_0S8_ED0Ev', symObjAddr: 0x1FE8, symBinAddr: 0x6348C, symSize: 0x4 }
  - { offset: 0x334851, size: 0x8, addend: 0x0, symName: '__ZNKSt3__110__function6__funcIZN24llama_memory_hybrid_iswaC1ERK11llama_model9ggml_typeS6_bbjjjS6_S6_jjbbRKNS_8functionIFbiEEESB_E3$_0S8_E7__cloneEv', symObjAddr: 0x1FEC, symBinAddr: 0x63490, symSize: 0x34 }
  - { offset: 0x3348B0, size: 0x8, addend: 0x0, symName: '__ZNKSt3__110__function6__funcIZN24llama_memory_hybrid_iswaC1ERK11llama_model9ggml_typeS6_bbjjjS6_S6_jjbbRKNS_8functionIFbiEEESB_E3$_0S8_E7__cloneEPNS0_6__baseIS8_EE', symObjAddr: 0x2020, symBinAddr: 0x634C4, symSize: 0x14 }
  - { offset: 0x33491B, size: 0x8, addend: 0x0, symName: '__ZNSt3__110__function6__funcIZN24llama_memory_hybrid_iswaC1ERK11llama_model9ggml_typeS6_bbjjjS6_S6_jjbbRKNS_8functionIFbiEEESB_E3$_0S8_E7destroyEv', symObjAddr: 0x2034, symBinAddr: 0x634D8, symSize: 0x4 }
  - { offset: 0x33493E, size: 0x8, addend: 0x0, symName: '__ZNSt3__110__function6__funcIZN24llama_memory_hybrid_iswaC1ERK11llama_model9ggml_typeS6_bbjjjS6_S6_jjbbRKNS_8functionIFbiEEESB_E3$_0S8_E18destroy_deallocateEv', symObjAddr: 0x2038, symBinAddr: 0x634DC, symSize: 0x14 }
  - { offset: 0x3349D6, size: 0x8, addend: 0x0, symName: '__ZNSt3__110__function6__funcIZN24llama_memory_hybrid_iswaC1ERK11llama_model9ggml_typeS6_bbjjjS6_S6_jjbbRKNS_8functionIFbiEEESB_E3$_0S8_EclEOi', symObjAddr: 0x204C, symBinAddr: 0x634F0, symSize: 0x24 }
  - { offset: 0x334AC4, size: 0x8, addend: 0x0, symName: '__ZNKSt3__110__function6__funcIZN24llama_memory_hybrid_iswaC1ERK11llama_model9ggml_typeS6_bbjjjS6_S6_jjbbRKNS_8functionIFbiEEESB_E3$_0S8_E6targetERKSt9type_info', symObjAddr: 0x2070, symBinAddr: 0x63514, symSize: 0x60 }
  - { offset: 0x334B8E, size: 0x8, addend: 0x0, symName: '__ZNKSt3__110__function6__funcIZN24llama_memory_hybrid_iswaC1ERK11llama_model9ggml_typeS6_bbjjjS6_S6_jjbbRKNS_8functionIFbiEEESB_E3$_0S8_E11target_typeEv', symObjAddr: 0x20D0, symBinAddr: 0x63574, symSize: 0xC }
  - { offset: 0x334BB1, size: 0x8, addend: 0x0, symName: '__ZNSt3__110__function6__funcIZN24llama_memory_hybrid_iswaC1ERK11llama_model9ggml_typeS6_bbjjjS6_S6_jjbbRKNS_8functionIFbiEEESB_E3$_1S8_ED1Ev', symObjAddr: 0x20DC, symBinAddr: 0x63580, symSize: 0x4 }
  - { offset: 0x334BE0, size: 0x8, addend: 0x0, symName: '__ZNSt3__110__function6__funcIZN24llama_memory_hybrid_iswaC1ERK11llama_model9ggml_typeS6_bbjjjS6_S6_jjbbRKNS_8functionIFbiEEESB_E3$_1S8_ED0Ev', symObjAddr: 0x20E0, symBinAddr: 0x63584, symSize: 0x4 }
  - { offset: 0x334C55, size: 0x8, addend: 0x0, symName: '__ZNKSt3__110__function6__funcIZN24llama_memory_hybrid_iswaC1ERK11llama_model9ggml_typeS6_bbjjjS6_S6_jjbbRKNS_8functionIFbiEEESB_E3$_1S8_E7__cloneEv', symObjAddr: 0x20E4, symBinAddr: 0x63588, symSize: 0x34 }
  - { offset: 0x334CB4, size: 0x8, addend: 0x0, symName: '__ZNKSt3__110__function6__funcIZN24llama_memory_hybrid_iswaC1ERK11llama_model9ggml_typeS6_bbjjjS6_S6_jjbbRKNS_8functionIFbiEEESB_E3$_1S8_E7__cloneEPNS0_6__baseIS8_EE', symObjAddr: 0x2118, symBinAddr: 0x635BC, symSize: 0x14 }
  - { offset: 0x334D1F, size: 0x8, addend: 0x0, symName: '__ZNSt3__110__function6__funcIZN24llama_memory_hybrid_iswaC1ERK11llama_model9ggml_typeS6_bbjjjS6_S6_jjbbRKNS_8functionIFbiEEESB_E3$_1S8_E7destroyEv', symObjAddr: 0x212C, symBinAddr: 0x635D0, symSize: 0x4 }
  - { offset: 0x334D42, size: 0x8, addend: 0x0, symName: '__ZNSt3__110__function6__funcIZN24llama_memory_hybrid_iswaC1ERK11llama_model9ggml_typeS6_bbjjjS6_S6_jjbbRKNS_8functionIFbiEEESB_E3$_1S8_E18destroy_deallocateEv', symObjAddr: 0x2130, symBinAddr: 0x635D4, symSize: 0x14 }
  - { offset: 0x334DDA, size: 0x8, addend: 0x0, symName: '__ZNSt3__110__function6__funcIZN24llama_memory_hybrid_iswaC1ERK11llama_model9ggml_typeS6_bbjjjS6_S6_jjbbRKNS_8functionIFbiEEESB_E3$_1S8_EclEOi', symObjAddr: 0x2144, symBinAddr: 0x635E8, symSize: 0x10 }
  - { offset: 0x334E6D, size: 0x8, addend: 0x0, symName: '__ZNKSt3__110__function6__funcIZN24llama_memory_hybrid_iswaC1ERK11llama_model9ggml_typeS6_bbjjjS6_S6_jjbbRKNS_8functionIFbiEEESB_E3$_1S8_E6targetERKSt9type_info', symObjAddr: 0x2154, symBinAddr: 0x635F8, symSize: 0x60 }
  - { offset: 0x334F20, size: 0x8, addend: 0x0, symName: '__ZNKSt3__110__function6__funcIZN24llama_memory_hybrid_iswaC1ERK11llama_model9ggml_typeS6_bbjjjS6_S6_jjbbRKNS_8functionIFbiEEESB_E3$_1S8_E11target_typeEv', symObjAddr: 0x21B4, symBinAddr: 0x63658, symSize: 0xC }
  - { offset: 0x33709A, size: 0x8, addend: 0x0, symName: __ZN19llama_memory_hybridC2ERK11llama_model9ggml_typeS3_bjjj14llama_swa_typeS3_S3_jjbbRKNSt3__18functionIFbiEEESA_, symObjAddr: 0x0, symBinAddr: 0x63664, symSize: 0x340 }
  - { offset: 0x3370C2, size: 0x8, addend: 0x0, symName: __ZTV19llama_memory_hybrid, symObjAddr: 0x2678, symBinAddr: 0x314298, symSize: 0x0 }
  - { offset: 0x35EC7A, size: 0x8, addend: 0x0, symName: __ZNSt3__111make_uniqueB9nqe210106I27llama_memory_hybrid_contextJP19llama_memory_hybridNS_6vectorIN14llama_kv_cache9slot_infoENS_9allocatorIS6_EEEENS4_I12llama_ubatchNS7_ISA_EEEEELi0EEENS_10unique_ptrIT_NS_14default_deleteISE_EEEEDpOT0_, symObjAddr: 0x9B0, symBinAddr: 0x63FB0, symSize: 0x1B8 }
  - { offset: 0x367E19, size: 0x8, addend: 0x0, symName: __ZTV27llama_memory_hybrid_context, symObjAddr: 0x2710, symBinAddr: 0x314330, symSize: 0x0 }
  - { offset: 0x3685B8, size: 0x8, addend: 0x0, symName: '__ZTVNSt3__110__function6__funcIZN19llama_memory_hybridC1ERK11llama_model9ggml_typeS6_bjjj14llama_swa_typeS6_S6_jjbbRKNS_8functionIFbiEEESC_E3$_0S9_EE', symObjAddr: 0x27A0, symBinAddr: 0x3143A0, symSize: 0x0 }
  - { offset: 0x3685C6, size: 0x8, addend: 0x0, symName: __ZN19llama_memory_hybridC1ERK11llama_model9ggml_typeS3_bjjj14llama_swa_typeS3_S3_jjbbRKNSt3__18functionIFbiEEESA_, symObjAddr: 0x340, symBinAddr: 0x639A4, symSize: 0x14 }
  - { offset: 0x3687A5, size: 0x8, addend: 0x0, symName: '__ZTVNSt3__110__function6__funcIZN19llama_memory_hybridC1ERK11llama_model9ggml_typeS6_bjjj14llama_swa_typeS6_S6_jjbbRKNS_8functionIFbiEEESC_E3$_1S9_EE', symObjAddr: 0x2830, symBinAddr: 0x314420, symSize: 0x0 }
  - { offset: 0x368E89, size: 0x8, addend: 0x0, symName: __ZN19llama_memory_hybridC2ERK11llama_model9ggml_typeS3_bjjj14llama_swa_typeS3_S3_jjbbRKNSt3__18functionIFbiEEESA_, symObjAddr: 0x0, symBinAddr: 0x63664, symSize: 0x340 }
  - { offset: 0x36A3AC, size: 0x8, addend: 0x0, symName: __ZN19llama_memory_hybrid10init_batchER18llama_batch_allocrjb, symObjAddr: 0x354, symBinAddr: 0x639B8, symSize: 0x5F8 }
  - { offset: 0x36BF80, size: 0x8, addend: 0x0, symName: __ZN27llama_memory_hybrid_contextC2EP19llama_memory_hybridNSt3__16vectorIN14llama_kv_cache9slot_infoENS2_9allocatorIS5_EEEENS3_I12llama_ubatchNS6_IS9_EEEE, symObjAddr: 0x15A0, symBinAddr: 0x64A44, symSize: 0x500 }
  - { offset: 0x36D48B, size: 0x8, addend: 0x0, symName: __ZN19llama_memory_hybrid9init_fullEv, symObjAddr: 0xCC4, symBinAddr: 0x64168, symSize: 0x54 }
  - { offset: 0x36D532, size: 0x8, addend: 0x0, symName: __ZN27llama_memory_hybrid_contextC2EP19llama_memory_hybrid, symObjAddr: 0x1338, symBinAddr: 0x647DC, symSize: 0x120 }
  - { offset: 0x36D7E1, size: 0x8, addend: 0x0, symName: __ZN19llama_memory_hybrid11init_updateEP13llama_contextb, symObjAddr: 0xD18, symBinAddr: 0x641BC, symSize: 0x6C }
  - { offset: 0x36D8C5, size: 0x8, addend: 0x0, symName: __ZN27llama_memory_hybrid_contextC2EP19llama_memory_hybridP13llama_contextb, symObjAddr: 0x145C, symBinAddr: 0x64900, symSize: 0x140 }
  - { offset: 0x36DB69, size: 0x8, addend: 0x0, symName: __ZNK19llama_memory_hybrid13get_can_shiftEv, symObjAddr: 0xD84, symBinAddr: 0x64228, symSize: 0x10 }
  - { offset: 0x36DB94, size: 0x8, addend: 0x0, symName: __ZNK19llama_memory_hybrid13get_can_shiftEv, symObjAddr: 0xD84, symBinAddr: 0x64228, symSize: 0x10 }
  - { offset: 0x36DBBC, size: 0x8, addend: 0x0, symName: __ZN19llama_memory_hybrid5clearEb, symObjAddr: 0xD94, symBinAddr: 0x64238, symSize: 0x40 }
  - { offset: 0x36DC50, size: 0x8, addend: 0x0, symName: __ZN19llama_memory_hybrid6seq_rmEiii, symObjAddr: 0xDD4, symBinAddr: 0x64278, symSize: 0x6C }
  - { offset: 0x36DD10, size: 0x8, addend: 0x0, symName: __ZN19llama_memory_hybrid6seq_cpEiiii, symObjAddr: 0xE40, symBinAddr: 0x642E4, symSize: 0x68 }
  - { offset: 0x36DDE6, size: 0x8, addend: 0x0, symName: __ZN19llama_memory_hybrid8seq_keepEi, symObjAddr: 0xEA8, symBinAddr: 0x6434C, symSize: 0x40 }
  - { offset: 0x36DE7A, size: 0x8, addend: 0x0, symName: __ZN19llama_memory_hybrid7seq_addEiiii, symObjAddr: 0xEE8, symBinAddr: 0x6438C, symSize: 0x68 }
  - { offset: 0x36DF50, size: 0x8, addend: 0x0, symName: __ZN19llama_memory_hybrid7seq_divEiiii, symObjAddr: 0xF50, symBinAddr: 0x643F4, symSize: 0x68 }
  - { offset: 0x36E026, size: 0x8, addend: 0x0, symName: __ZNK19llama_memory_hybrid11seq_pos_minEi, symObjAddr: 0xFB8, symBinAddr: 0x6445C, symSize: 0x58 }
  - { offset: 0x36E0C1, size: 0x8, addend: 0x0, symName: __ZNK19llama_memory_hybrid11seq_pos_maxEi, symObjAddr: 0x1010, symBinAddr: 0x644B4, symSize: 0x58 }
  - { offset: 0x36E70F, size: 0x8, addend: 0x0, symName: __ZNK19llama_memory_hybrid16memory_breakdownEv, symObjAddr: 0x1068, symBinAddr: 0x6450C, symSize: 0x1C0 }
  - { offset: 0x36EE40, size: 0x8, addend: 0x0, symName: __ZNK19llama_memory_hybrid11state_writeER16llama_io_write_iij, symObjAddr: 0x1228, symBinAddr: 0x646CC, symSize: 0x5C }
  - { offset: 0x36EEEA, size: 0x8, addend: 0x0, symName: __ZN19llama_memory_hybrid10state_readER15llama_io_read_iij, symObjAddr: 0x1284, symBinAddr: 0x64728, symSize: 0x5C }
  - { offset: 0x36EFAA, size: 0x8, addend: 0x0, symName: __ZNK19llama_memory_hybrid12get_mem_attnEv, symObjAddr: 0x12E0, symBinAddr: 0x64784, symSize: 0x8 }
  - { offset: 0x36EFCE, size: 0x8, addend: 0x0, symName: __ZNK19llama_memory_hybrid12get_mem_attnEv, symObjAddr: 0x12E0, symBinAddr: 0x64784, symSize: 0x8 }
  - { offset: 0x36F000, size: 0x8, addend: 0x0, symName: __ZNK19llama_memory_hybrid12get_mem_recrEv, symObjAddr: 0x12E8, symBinAddr: 0x6478C, symSize: 0x8 }
  - { offset: 0x36F024, size: 0x8, addend: 0x0, symName: __ZNK19llama_memory_hybrid12get_mem_recrEv, symObjAddr: 0x12E8, symBinAddr: 0x6478C, symSize: 0x8 }
  - { offset: 0x36F040, size: 0x8, addend: 0x0, symName: __ZN27llama_memory_hybrid_contextC2E19llama_memory_status, symObjAddr: 0x12F0, symBinAddr: 0x64794, symSize: 0x24 }
  - { offset: 0x36F0A3, size: 0x8, addend: 0x0, symName: __ZN27llama_memory_hybrid_contextC1E19llama_memory_status, symObjAddr: 0x1314, symBinAddr: 0x647B8, symSize: 0x24 }
  - { offset: 0x36F0CC, size: 0x8, addend: 0x0, symName: __ZN27llama_memory_hybrid_contextC1E19llama_memory_status, symObjAddr: 0x1314, symBinAddr: 0x647B8, symSize: 0x24 }
  - { offset: 0x36F226, size: 0x8, addend: 0x0, symName: __ZN27llama_memory_hybrid_contextC1EP19llama_memory_hybrid, symObjAddr: 0x1458, symBinAddr: 0x648FC, symSize: 0x4 }
  - { offset: 0x36F250, size: 0x8, addend: 0x0, symName: __ZN27llama_memory_hybrid_contextC1EP19llama_memory_hybrid, symObjAddr: 0x1458, symBinAddr: 0x648FC, symSize: 0x4 }
  - { offset: 0x36F26A, size: 0x8, addend: 0x0, symName: __ZN27llama_memory_hybrid_contextC1EP19llama_memory_hybridP13llama_contextb, symObjAddr: 0x159C, symBinAddr: 0x64A40, symSize: 0x4 }
  - { offset: 0x36F2A7, size: 0x8, addend: 0x0, symName: __ZN27llama_memory_hybrid_contextC1EP19llama_memory_hybridP13llama_contextb, symObjAddr: 0x159C, symBinAddr: 0x64A40, symSize: 0x4 }
  - { offset: 0x36F7C5, size: 0x8, addend: 0x0, symName: __ZN27llama_memory_hybrid_contextC1EP19llama_memory_hybridNSt3__16vectorIN14llama_kv_cache9slot_infoENS2_9allocatorIS5_EEEENS3_I12llama_ubatchNS6_IS9_EEEE, symObjAddr: 0x1AA0, symBinAddr: 0x64F44, symSize: 0x4 }
  - { offset: 0x36F7FF, size: 0x8, addend: 0x0, symName: __ZN27llama_memory_hybrid_contextC1EP19llama_memory_hybridNSt3__16vectorIN14llama_kv_cache9slot_infoENS2_9allocatorIS5_EEEENS3_I12llama_ubatchNS6_IS9_EEEE, symObjAddr: 0x1AA0, symBinAddr: 0x64F44, symSize: 0x4 }
  - { offset: 0x36F827, size: 0x8, addend: 0x0, symName: __ZN27llama_memory_hybrid_context4nextEv, symObjAddr: 0x1AA4, symBinAddr: 0x64F48, symSize: 0x70 }
  - { offset: 0x36F8C2, size: 0x8, addend: 0x0, symName: __ZN27llama_memory_hybrid_context5applyEv, symObjAddr: 0x1B14, symBinAddr: 0x64FB8, symSize: 0x44 }
  - { offset: 0x36F94F, size: 0x8, addend: 0x0, symName: __ZNK27llama_memory_hybrid_context10get_statusEv, symObjAddr: 0x1B58, symBinAddr: 0x64FFC, symSize: 0x8 }
  - { offset: 0x36F99A, size: 0x8, addend: 0x0, symName: __ZNK27llama_memory_hybrid_context10get_ubatchEv, symObjAddr: 0x1B60, symBinAddr: 0x65004, symSize: 0x10 }
  - { offset: 0x36FA00, size: 0x8, addend: 0x0, symName: __ZNK27llama_memory_hybrid_context8get_attnEv, symObjAddr: 0x1B70, symBinAddr: 0x65014, symSize: 0x8 }
  - { offset: 0x36FA2C, size: 0x8, addend: 0x0, symName: __ZNK27llama_memory_hybrid_context8get_attnEv, symObjAddr: 0x1B70, symBinAddr: 0x65014, symSize: 0x8 }
  - { offset: 0x36FA49, size: 0x8, addend: 0x0, symName: __ZNK27llama_memory_hybrid_context8get_recrEv, symObjAddr: 0x1B78, symBinAddr: 0x6501C, symSize: 0x8 }
  - { offset: 0x36FA75, size: 0x8, addend: 0x0, symName: __ZNK27llama_memory_hybrid_context8get_recrEv, symObjAddr: 0x1B78, symBinAddr: 0x6501C, symSize: 0x8 }
  - { offset: 0x36FB41, size: 0x8, addend: 0x0, symName: __ZN19llama_memory_hybridD1Ev, symObjAddr: 0x1B80, symBinAddr: 0x65024, symSize: 0x5C }
  - { offset: 0x36FCD9, size: 0x8, addend: 0x0, symName: __ZN19llama_memory_hybridD0Ev, symObjAddr: 0x1BDC, symBinAddr: 0x65080, symSize: 0x5C }
  - { offset: 0x36FE96, size: 0x8, addend: 0x0, symName: __ZN27llama_memory_hybrid_contextD1Ev, symObjAddr: 0x1C38, symBinAddr: 0x650DC, symSize: 0xD4 }
  - { offset: 0x370244, size: 0x8, addend: 0x0, symName: __ZN27llama_memory_hybrid_contextD0Ev, symObjAddr: 0x1D0C, symBinAddr: 0x651B0, symSize: 0xD4 }
  - { offset: 0x3705F9, size: 0x8, addend: 0x0, symName: '__ZNSt3__110__function6__funcIZN19llama_memory_hybridC1ERK11llama_model9ggml_typeS6_bjjj14llama_swa_typeS6_S6_jjbbRKNS_8functionIFbiEEESC_E3$_0S9_ED1Ev', symObjAddr: 0x1DE0, symBinAddr: 0x65284, symSize: 0x4 }
  - { offset: 0x370628, size: 0x8, addend: 0x0, symName: '__ZNSt3__110__function6__funcIZN19llama_memory_hybridC1ERK11llama_model9ggml_typeS6_bjjj14llama_swa_typeS6_S6_jjbbRKNS_8functionIFbiEEESC_E3$_0S9_ED0Ev', symObjAddr: 0x1DE4, symBinAddr: 0x65288, symSize: 0x4 }
  - { offset: 0x37069D, size: 0x8, addend: 0x0, symName: '__ZNKSt3__110__function6__funcIZN19llama_memory_hybridC1ERK11llama_model9ggml_typeS6_bjjj14llama_swa_typeS6_S6_jjbbRKNS_8functionIFbiEEESC_E3$_0S9_E7__cloneEv', symObjAddr: 0x1DE8, symBinAddr: 0x6528C, symSize: 0x34 }
  - { offset: 0x3706FC, size: 0x8, addend: 0x0, symName: '__ZNKSt3__110__function6__funcIZN19llama_memory_hybridC1ERK11llama_model9ggml_typeS6_bjjj14llama_swa_typeS6_S6_jjbbRKNS_8functionIFbiEEESC_E3$_0S9_E7__cloneEPNS0_6__baseIS9_EE', symObjAddr: 0x1E1C, symBinAddr: 0x652C0, symSize: 0x14 }
  - { offset: 0x370767, size: 0x8, addend: 0x0, symName: '__ZNSt3__110__function6__funcIZN19llama_memory_hybridC1ERK11llama_model9ggml_typeS6_bjjj14llama_swa_typeS6_S6_jjbbRKNS_8functionIFbiEEESC_E3$_0S9_E7destroyEv', symObjAddr: 0x1E30, symBinAddr: 0x652D4, symSize: 0x4 }
  - { offset: 0x37078A, size: 0x8, addend: 0x0, symName: '__ZNSt3__110__function6__funcIZN19llama_memory_hybridC1ERK11llama_model9ggml_typeS6_bjjj14llama_swa_typeS6_S6_jjbbRKNS_8functionIFbiEEESC_E3$_0S9_E18destroy_deallocateEv', symObjAddr: 0x1E34, symBinAddr: 0x652D8, symSize: 0x14 }
  - { offset: 0x370822, size: 0x8, addend: 0x0, symName: '__ZNSt3__110__function6__funcIZN19llama_memory_hybridC1ERK11llama_model9ggml_typeS6_bjjj14llama_swa_typeS6_S6_jjbbRKNS_8functionIFbiEEESC_E3$_0S9_EclEOi', symObjAddr: 0x1E48, symBinAddr: 0x652EC, symSize: 0x24 }
  - { offset: 0x370910, size: 0x8, addend: 0x0, symName: '__ZNKSt3__110__function6__funcIZN19llama_memory_hybridC1ERK11llama_model9ggml_typeS6_bjjj14llama_swa_typeS6_S6_jjbbRKNS_8functionIFbiEEESC_E3$_0S9_E6targetERKSt9type_info', symObjAddr: 0x1E6C, symBinAddr: 0x65310, symSize: 0x60 }
  - { offset: 0x3709DA, size: 0x8, addend: 0x0, symName: '__ZNKSt3__110__function6__funcIZN19llama_memory_hybridC1ERK11llama_model9ggml_typeS6_bjjj14llama_swa_typeS6_S6_jjbbRKNS_8functionIFbiEEESC_E3$_0S9_E11target_typeEv', symObjAddr: 0x1ECC, symBinAddr: 0x65370, symSize: 0xC }
  - { offset: 0x3709FD, size: 0x8, addend: 0x0, symName: '__ZNSt3__110__function6__funcIZN19llama_memory_hybridC1ERK11llama_model9ggml_typeS6_bjjj14llama_swa_typeS6_S6_jjbbRKNS_8functionIFbiEEESC_E3$_1S9_ED1Ev', symObjAddr: 0x1ED8, symBinAddr: 0x6537C, symSize: 0x4 }
  - { offset: 0x370A2C, size: 0x8, addend: 0x0, symName: '__ZNSt3__110__function6__funcIZN19llama_memory_hybridC1ERK11llama_model9ggml_typeS6_bjjj14llama_swa_typeS6_S6_jjbbRKNS_8functionIFbiEEESC_E3$_1S9_ED0Ev', symObjAddr: 0x1EDC, symBinAddr: 0x65380, symSize: 0x4 }
  - { offset: 0x370AA1, size: 0x8, addend: 0x0, symName: '__ZNKSt3__110__function6__funcIZN19llama_memory_hybridC1ERK11llama_model9ggml_typeS6_bjjj14llama_swa_typeS6_S6_jjbbRKNS_8functionIFbiEEESC_E3$_1S9_E7__cloneEv', symObjAddr: 0x1EE0, symBinAddr: 0x65384, symSize: 0x34 }
  - { offset: 0x370B00, size: 0x8, addend: 0x0, symName: '__ZNKSt3__110__function6__funcIZN19llama_memory_hybridC1ERK11llama_model9ggml_typeS6_bjjj14llama_swa_typeS6_S6_jjbbRKNS_8functionIFbiEEESC_E3$_1S9_E7__cloneEPNS0_6__baseIS9_EE', symObjAddr: 0x1F14, symBinAddr: 0x653B8, symSize: 0x14 }
  - { offset: 0x370B6B, size: 0x8, addend: 0x0, symName: '__ZNSt3__110__function6__funcIZN19llama_memory_hybridC1ERK11llama_model9ggml_typeS6_bjjj14llama_swa_typeS6_S6_jjbbRKNS_8functionIFbiEEESC_E3$_1S9_E7destroyEv', symObjAddr: 0x1F28, symBinAddr: 0x653CC, symSize: 0x4 }
  - { offset: 0x370B8E, size: 0x8, addend: 0x0, symName: '__ZNSt3__110__function6__funcIZN19llama_memory_hybridC1ERK11llama_model9ggml_typeS6_bjjj14llama_swa_typeS6_S6_jjbbRKNS_8functionIFbiEEESC_E3$_1S9_E18destroy_deallocateEv', symObjAddr: 0x1F2C, symBinAddr: 0x653D0, symSize: 0x14 }
  - { offset: 0x370C26, size: 0x8, addend: 0x0, symName: '__ZNSt3__110__function6__funcIZN19llama_memory_hybridC1ERK11llama_model9ggml_typeS6_bjjj14llama_swa_typeS6_S6_jjbbRKNS_8functionIFbiEEESC_E3$_1S9_EclEOi', symObjAddr: 0x1F40, symBinAddr: 0x653E4, symSize: 0x10 }
  - { offset: 0x370CB9, size: 0x8, addend: 0x0, symName: '__ZNKSt3__110__function6__funcIZN19llama_memory_hybridC1ERK11llama_model9ggml_typeS6_bjjj14llama_swa_typeS6_S6_jjbbRKNS_8functionIFbiEEESC_E3$_1S9_E6targetERKSt9type_info', symObjAddr: 0x1F50, symBinAddr: 0x653F4, symSize: 0x60 }
  - { offset: 0x370D6C, size: 0x8, addend: 0x0, symName: '__ZNKSt3__110__function6__funcIZN19llama_memory_hybridC1ERK11llama_model9ggml_typeS6_bjjj14llama_swa_typeS6_S6_jjbbRKNS_8functionIFbiEEESC_E3$_1S9_E11target_typeEv', symObjAddr: 0x1FB0, symBinAddr: 0x65454, symSize: 0xC }
  - { offset: 0x372F0D, size: 0x8, addend: 0x0, symName: __ZTV22llama_memory_recurrent, symObjAddr: 0x5670, symBinAddr: 0x3144A0, symSize: 0x0 }
  - { offset: 0x398E34, size: 0x8, addend: 0x0, symName: __ZTV30llama_memory_recurrent_context, symObjAddr: 0x5708, symBinAddr: 0x314538, symSize: 0x0 }
  - { offset: 0x39905F, size: 0x8, addend: 0x0, symName: __ZN22llama_memory_recurrentC2ERK11llama_model9ggml_typeS3_bjjRKNSt3__18functionIFbiEEE, symObjAddr: 0x0, symBinAddr: 0x65460, symSize: 0x7CC }
  - { offset: 0x39B912, size: 0x8, addend: 0x0, symName: __ZNSt3__16vectorIN22llama_memory_recurrent8mem_cellENS_9allocatorIS2_EEE8__appendEm, symObjAddr: 0x4538, symBinAddr: 0x69454, symSize: 0x1FC }
  - { offset: 0x39C0E6, size: 0x8, addend: 0x0, symName: __ZNSt3__16vectorIN22llama_memory_recurrent8mem_cellENS_9allocatorIS2_EEE20__throw_length_errorB9nqe210106Ev, symObjAddr: 0x4734, symBinAddr: 0x69650, symSize: 0x14 }
  - { offset: 0x39C0F1, size: 0x8, addend: 0x0, symName: __ZNSt3__16vectorIP11ggml_tensorNS_9allocatorIS2_EEE8__appendEm, symObjAddr: 0x4870, symBinAddr: 0x69718, symSize: 0x118 }
  - { offset: 0x39C69A, size: 0x8, addend: 0x0, symName: __ZNSt3__16__treeINS_12__value_typeIP24ggml_backend_buffer_typeNS_10unique_ptrI12ggml_context20ggml_context_deleterEEEENS_19__map_value_compareIS3_NS_4pairIKS3_S7_EEZN22llama_memory_recurrentC1ERK11llama_model9ggml_typeSH_bjjRKNS_8functionIFbiEEEE28ggml_backend_buft_comparatorLb1EEENS_9allocatorISC_EEE7destroyEPNS_11__tree_nodeIS8_PvEE, symObjAddr: 0x481C, symBinAddr: 0x696C4, symSize: 0x54 }
  - { offset: 0x39CA3A, size: 0x8, addend: 0x0, symName: __ZNSt3__16vectorIN22llama_memory_recurrent8mem_cellENS_9allocatorIS2_EEED1B9nqe210106Ev, symObjAddr: 0x908, symBinAddr: 0x65CE4, symSize: 0x68 }
  - { offset: 0x39CC83, size: 0x8, addend: 0x0, symName: __ZNK22llama_memory_recurrent12size_r_bytesEv, symObjAddr: 0x7CC, symBinAddr: 0x65C2C, symSize: 0x5C }
  - { offset: 0x39CD39, size: 0x8, addend: 0x0, symName: __ZNK22llama_memory_recurrent12size_s_bytesEv, symObjAddr: 0x828, symBinAddr: 0x65C88, symSize: 0x5C }
  - { offset: 0x39D2DE, size: 0x8, addend: 0x0, symName: __ZN22llama_memory_recurrentC1ERK11llama_model9ggml_typeS3_bjjRKNSt3__18functionIFbiEEE, symObjAddr: 0x970, symBinAddr: 0x65D4C, symSize: 0x4 }
  - { offset: 0x39D373, size: 0x8, addend: 0x0, symName: __ZN22llama_memory_recurrentC1ERK11llama_model9ggml_typeS3_bjjRKNSt3__18functionIFbiEEE, symObjAddr: 0x970, symBinAddr: 0x65D4C, symSize: 0x4 }
  - { offset: 0x39D465, size: 0x8, addend: 0x0, symName: __ZN22llama_memory_recurrent5clearEb, symObjAddr: 0x974, symBinAddr: 0x65D50, symSize: 0xCC }
  - { offset: 0x39D921, size: 0x8, addend: 0x0, symName: __ZN22llama_memory_recurrent6seq_rmEiii, symObjAddr: 0xA40, symBinAddr: 0x65E1C, symSize: 0x2E4 }
  - { offset: 0x39E0CA, size: 0x8, addend: 0x0, symName: __ZN22llama_memory_recurrent6seq_cpEiiii, symObjAddr: 0xD24, symBinAddr: 0x66100, symSize: 0x1F0 }
  - { offset: 0x39E676, size: 0x8, addend: 0x0, symName: __ZN22llama_memory_recurrent8seq_keepEi, symObjAddr: 0xF14, symBinAddr: 0x662F0, symSize: 0x1D0 }
  - { offset: 0x39EABF, size: 0x8, addend: 0x0, symName: __ZN22llama_memory_recurrent7seq_addEiiii, symObjAddr: 0x10E4, symBinAddr: 0x664C0, symSize: 0xA4 }
  - { offset: 0x39EC9A, size: 0x8, addend: 0x0, symName: __ZN22llama_memory_recurrent7seq_divEiiii, symObjAddr: 0x1188, symBinAddr: 0x66564, symSize: 0xAC }
  - { offset: 0x39EEE0, size: 0x8, addend: 0x0, symName: __ZNK22llama_memory_recurrent11seq_pos_minEi, symObjAddr: 0x1234, symBinAddr: 0x66610, symSize: 0x90 }
  - { offset: 0x39F0B8, size: 0x8, addend: 0x0, symName: __ZNK22llama_memory_recurrent11seq_pos_maxEi, symObjAddr: 0x12C4, symBinAddr: 0x666A0, symSize: 0x84 }
  - { offset: 0x39F855, size: 0x8, addend: 0x0, symName: __ZNK22llama_memory_recurrent16memory_breakdownEv, symObjAddr: 0x1348, symBinAddr: 0x66724, symSize: 0x160 }
  - { offset: 0x3A047F, size: 0x8, addend: 0x0, symName: __ZN22llama_memory_recurrent10init_batchER18llama_batch_allocrjb, symObjAddr: 0x14A8, symBinAddr: 0x66884, symSize: 0x4A0 }
  - { offset: 0x3A13B4, size: 0x8, addend: 0x0, symName: __ZN22llama_memory_recurrent7prepareERKNSt3__16vectorI12llama_ubatchNS0_9allocatorIS2_EEEE, symObjAddr: 0x19AC, symBinAddr: 0x66D24, symSize: 0x128 }
  - { offset: 0x3A1A4C, size: 0x8, addend: 0x0, symName: __ZNSt3__16vectorIN22llama_memory_recurrent8mem_cellENS_9allocatorIS2_EEE16__init_with_sizeB9nqe210106IPS2_S7_EEvT_T0_m, symObjAddr: 0x4FE4, symBinAddr: 0x69830, symSize: 0x144 }
  - { offset: 0x3A1FE4, size: 0x8, addend: 0x0, symName: __ZN22llama_memory_recurrent9find_slotERK12llama_ubatch, symObjAddr: 0x1C0C, symBinAddr: 0x66EEC, symSize: 0xC60 }
  - { offset: 0x3A3831, size: 0x8, addend: 0x0, symName: __ZN22llama_memory_recurrent9init_fullEv, symObjAddr: 0x1B6C, symBinAddr: 0x66E4C, symSize: 0x54 }
  - { offset: 0x3A392F, size: 0x8, addend: 0x0, symName: __ZN22llama_memory_recurrent11init_updateEP13llama_contextb, symObjAddr: 0x1BC0, symBinAddr: 0x66EA0, symSize: 0x4C }
  - { offset: 0x3A3E0A, size: 0x8, addend: 0x0, symName: __ZNK22llama_memory_recurrent13get_can_shiftEv, symObjAddr: 0x286C, symBinAddr: 0x67B4C, symSize: 0x8 }
  - { offset: 0x3A3E30, size: 0x8, addend: 0x0, symName: __ZNK22llama_memory_recurrent10total_sizeEv, symObjAddr: 0x2874, symBinAddr: 0x67B54, symSize: 0x64 }
  - { offset: 0x3A465D, size: 0x8, addend: 0x0, symName: __ZNK22llama_memory_recurrent11state_writeER16llama_io_write_iij, symObjAddr: 0x28D8, symBinAddr: 0x67BB8, symSize: 0x43C }
  - { offset: 0x3A5370, size: 0x8, addend: 0x0, symName: __ZNK22llama_memory_recurrent16state_write_metaER16llama_io_write_iRKNSt3__16vectorINS2_4pairIjjEENS2_9allocatorIS5_EEEEi, symObjAddr: 0x2D14, symBinAddr: 0x67FF4, symSize: 0x15C }
  - { offset: 0x3A5694, size: 0x8, addend: 0x0, symName: __ZNK22llama_memory_recurrent16state_write_dataER16llama_io_write_iRKNSt3__16vectorINS2_4pairIjjEENS2_9allocatorIS5_EEEE, symObjAddr: 0x2E70, symBinAddr: 0x68150, symSize: 0x20C }
  - { offset: 0x3A5AD1, size: 0x8, addend: 0x0, symName: __ZN22llama_memory_recurrent10state_readER15llama_io_read_iij.cold.1, symObjAddr: 0x5448, symBinAddr: 0x291EA8, symSize: 0x1C }
  - { offset: 0x3A5BBC, size: 0x8, addend: 0x0, symName: __ZN22llama_memory_recurrent10state_readER15llama_io_read_iij, symObjAddr: 0x307C, symBinAddr: 0x6835C, symSize: 0xE4 }
  - { offset: 0x3A5CCF, size: 0x8, addend: 0x0, symName: __ZN22llama_memory_recurrent15state_read_metaER15llama_io_read_iji, symObjAddr: 0x3160, symBinAddr: 0x68440, symSize: 0x598 }
  - { offset: 0x3A6624, size: 0x8, addend: 0x0, symName: __ZN22llama_memory_recurrent15state_read_dataER15llama_io_read_ij, symObjAddr: 0x36F8, symBinAddr: 0x689D8, symSize: 0x540 }
  - { offset: 0x3A6C09, size: 0x8, addend: 0x0, symName: __ZN22llama_memory_recurrent10state_readER15llama_io_read_iij.cold.1, symObjAddr: 0x5448, symBinAddr: 0x291EA8, symSize: 0x1C }
  - { offset: 0x3A768B, size: 0x8, addend: 0x0, symName: __ZN30llama_memory_recurrent_contextC2E19llama_memory_status, symObjAddr: 0x3C38, symBinAddr: 0x68F18, symSize: 0x24 }
  - { offset: 0x3A76EF, size: 0x8, addend: 0x0, symName: __ZN30llama_memory_recurrent_contextC1E19llama_memory_status, symObjAddr: 0x3C5C, symBinAddr: 0x68F3C, symSize: 0x24 }
  - { offset: 0x3A7718, size: 0x8, addend: 0x0, symName: __ZN30llama_memory_recurrent_contextC1E19llama_memory_status, symObjAddr: 0x3C5C, symBinAddr: 0x68F3C, symSize: 0x24 }
  - { offset: 0x3A7777, size: 0x8, addend: 0x0, symName: __ZN30llama_memory_recurrent_contextC2EP22llama_memory_recurrent, symObjAddr: 0x3C80, symBinAddr: 0x68F60, symSize: 0x2C }
  - { offset: 0x3A77DB, size: 0x8, addend: 0x0, symName: __ZN30llama_memory_recurrent_contextC1EP22llama_memory_recurrent, symObjAddr: 0x3CAC, symBinAddr: 0x68F8C, symSize: 0x2C }
  - { offset: 0x3A7804, size: 0x8, addend: 0x0, symName: __ZN30llama_memory_recurrent_contextC1EP22llama_memory_recurrent, symObjAddr: 0x3CAC, symBinAddr: 0x68F8C, symSize: 0x2C }
  - { offset: 0x3A7863, size: 0x8, addend: 0x0, symName: __ZN30llama_memory_recurrent_contextC2EP22llama_memory_recurrentNSt3__16vectorI12llama_ubatchNS2_9allocatorIS4_EEEE, symObjAddr: 0x3CD8, symBinAddr: 0x68FB8, symSize: 0x40 }
  - { offset: 0x3A78DE, size: 0x8, addend: 0x0, symName: __ZN30llama_memory_recurrent_contextC1EP22llama_memory_recurrentNSt3__16vectorI12llama_ubatchNS2_9allocatorIS4_EEEE, symObjAddr: 0x3D18, symBinAddr: 0x68FF8, symSize: 0x40 }
  - { offset: 0x3A790F, size: 0x8, addend: 0x0, symName: __ZN30llama_memory_recurrent_contextC1EP22llama_memory_recurrentNSt3__16vectorI12llama_ubatchNS2_9allocatorIS4_EEEE, symObjAddr: 0x3D18, symBinAddr: 0x68FF8, symSize: 0x40 }
  - { offset: 0x3A7985, size: 0x8, addend: 0x0, symName: __ZN30llama_memory_recurrent_contextD2Ev, symObjAddr: 0x3D58, symBinAddr: 0x69038, symSize: 0xA4 }
  - { offset: 0x3A7BDF, size: 0x8, addend: 0x0, symName: __ZN30llama_memory_recurrent_contextD1Ev, symObjAddr: 0x3DFC, symBinAddr: 0x690DC, symSize: 0xA4 }
  - { offset: 0x3A7E56, size: 0x8, addend: 0x0, symName: __ZN30llama_memory_recurrent_contextD0Ev, symObjAddr: 0x3EA0, symBinAddr: 0x69180, symSize: 0xA4 }
  - { offset: 0x3A80D5, size: 0x8, addend: 0x0, symName: __ZN30llama_memory_recurrent_context4nextEv, symObjAddr: 0x3F44, symBinAddr: 0x69224, symSize: 0x38 }
  - { offset: 0x3A8156, size: 0x8, addend: 0x0, symName: __ZN30llama_memory_recurrent_context5applyEv, symObjAddr: 0x3F7C, symBinAddr: 0x6925C, symSize: 0x34 }
  - { offset: 0x3A8182, size: 0x8, addend: 0x0, symName: __ZN30llama_memory_recurrent_context5applyEv, symObjAddr: 0x3F7C, symBinAddr: 0x6925C, symSize: 0x34 }
  - { offset: 0x3A81CA, size: 0x8, addend: 0x0, symName: __ZNK30llama_memory_recurrent_context10get_statusEv, symObjAddr: 0x3FB0, symBinAddr: 0x69290, symSize: 0x8 }
  - { offset: 0x3A8216, size: 0x8, addend: 0x0, symName: __ZNK30llama_memory_recurrent_context10get_ubatchEv, symObjAddr: 0x3FB8, symBinAddr: 0x69298, symSize: 0x10 }
  - { offset: 0x3A8266, size: 0x8, addend: 0x0, symName: __ZNK30llama_memory_recurrent_context8get_n_rsEv, symObjAddr: 0x3FC8, symBinAddr: 0x692A8, symSize: 0x20 }
  - { offset: 0x3A8290, size: 0x8, addend: 0x0, symName: __ZNK30llama_memory_recurrent_context8get_headEv, symObjAddr: 0x3FE8, symBinAddr: 0x692C8, symSize: 0x1C }
  - { offset: 0x3A82BA, size: 0x8, addend: 0x0, symName: __ZNK30llama_memory_recurrent_context8get_rs_zEv, symObjAddr: 0x4004, symBinAddr: 0x692E4, symSize: 0x1C }
  - { offset: 0x3A82E4, size: 0x8, addend: 0x0, symName: __ZNK30llama_memory_recurrent_context8get_sizeEv, symObjAddr: 0x4020, symBinAddr: 0x69300, symSize: 0xC }
  - { offset: 0x3A830E, size: 0x8, addend: 0x0, symName: __ZNK30llama_memory_recurrent_context7get_r_lEi, symObjAddr: 0x402C, symBinAddr: 0x6930C, symSize: 0x10 }
  - { offset: 0x3A8365, size: 0x8, addend: 0x0, symName: __ZNK30llama_memory_recurrent_context7get_s_lEi, symObjAddr: 0x403C, symBinAddr: 0x6931C, symSize: 0x10 }
  - { offset: 0x3A83BD, size: 0x8, addend: 0x0, symName: __ZNK30llama_memory_recurrent_context6s_copyEi, symObjAddr: 0x404C, symBinAddr: 0x6932C, symSize: 0x20 }
  - { offset: 0x3A8414, size: 0x8, addend: 0x0, symName: __ZN22llama_memory_recurrentD1Ev, symObjAddr: 0x406C, symBinAddr: 0x6934C, symSize: 0x4 }
  - { offset: 0x3A8437, size: 0x8, addend: 0x0, symName: __ZN22llama_memory_recurrentD1Ev, symObjAddr: 0x406C, symBinAddr: 0x6934C, symSize: 0x4 }
  - { offset: 0x3A844A, size: 0x8, addend: 0x0, symName: __ZN22llama_memory_recurrentD2Ev, symObjAddr: 0x4448, symBinAddr: 0x69364, symSize: 0xF0 }
  - { offset: 0x3A8B81, size: 0x8, addend: 0x0, symName: __ZN22llama_memory_recurrentD0Ev, symObjAddr: 0x4070, symBinAddr: 0x69350, symSize: 0x14 }
  - { offset: 0x3A9B44, size: 0x8, addend: 0x0, symName: __ZNSt3__16vectorIN22llama_memory_recurrent8mem_cellENS_9allocatorIS2_EEE20__throw_length_errorB9nqe210106Ev, symObjAddr: 0x4734, symBinAddr: 0x69650, symSize: 0x14 }
  - { offset: 0x3A9C33, size: 0x8, addend: 0x0, symName: __ZNSt3__128__exception_guard_exceptionsINS_29_AllocatorDestroyRangeReverseINS_9allocatorIN22llama_memory_recurrent8mem_cellEEEPS4_EEED1B9nqe210106Ev, symObjAddr: 0x47BC, symBinAddr: 0x69664, symSize: 0x60 }
  - { offset: 0x3AA44E, size: 0x8, addend: 0x0, symName: __ZNSt3__16vectorIN22llama_memory_recurrent8mem_cellENS_9allocatorIS2_EEE16__init_with_sizeB9nqe210106IPS2_S7_EEvT_T0_m, symObjAddr: 0x4FE4, symBinAddr: 0x69830, symSize: 0x144 }
  - { offset: 0x3AA72E, size: 0x8, addend: 0x0, symName: __ZNSt3__13setIiNS_4lessIiEENS_9allocatorIiEEE6insertB9nqe210106INS_21__tree_const_iteratorIiPNS_11__tree_nodeIiPvEElEEEEvT_SD_, symObjAddr: 0x51A0, symBinAddr: 0x699EC, symSize: 0xF4 }
  - { offset: 0x3AA774, size: 0x8, addend: 0x0, symName: __ZNSt3__13setIiNS_4lessIiEENS_9allocatorIiEEE6insertB9nqe210106INS_21__tree_const_iteratorIiPNS_11__tree_nodeIiPvEElEEEEvT_SD_, symObjAddr: 0x51A0, symBinAddr: 0x699EC, symSize: 0xF4 }
  - { offset: 0x3AAA56, size: 0x8, addend: 0x0, symName: __ZNSt3__128__exception_guard_exceptionsINS_6vectorIN22llama_memory_recurrent8mem_cellENS_9allocatorIS3_EEE16__destroy_vectorEED1B9nqe210106Ev, symObjAddr: 0x5128, symBinAddr: 0x69974, symSize: 0x78 }
  - { offset: 0x3AAA87, size: 0x8, addend: 0x0, symName: __ZNSt3__128__exception_guard_exceptionsINS_6vectorIN22llama_memory_recurrent8mem_cellENS_9allocatorIS3_EEE16__destroy_vectorEED1B9nqe210106Ev, symObjAddr: 0x5128, symBinAddr: 0x69974, symSize: 0x78 }
  - { offset: 0x3AAE1B, size: 0x8, addend: 0x0, symName: __ZNSt3__16__treeIiNS_4lessIiEENS_9allocatorIiEEE12__find_equalIiEERPNS_16__tree_node_baseIPvEENS_21__tree_const_iteratorIiPNS_11__tree_nodeIiS8_EElEERPNS_15__tree_end_nodeISA_EESB_RKT_, symObjAddr: 0x5294, symBinAddr: 0x69AE0, symSize: 0x1A0 }
  - { offset: 0x3AAE7C, size: 0x8, addend: 0x0, symName: __ZNSt3__16__treeIiNS_4lessIiEENS_9allocatorIiEEE12__find_equalIiEERPNS_16__tree_node_baseIPvEENS_21__tree_const_iteratorIiPNS_11__tree_nodeIiS8_EElEERPNS_15__tree_end_nodeISA_EESB_RKT_, symObjAddr: 0x5294, symBinAddr: 0x69AE0, symSize: 0x1A0 }
  - { offset: 0x3AAE98, size: 0x8, addend: 0x0, symName: __ZNSt3__16__treeIiNS_4lessIiEENS_9allocatorIiEEE12__find_equalIiEERPNS_16__tree_node_baseIPvEENS_21__tree_const_iteratorIiPNS_11__tree_nodeIiS8_EElEERPNS_15__tree_end_nodeISA_EESB_RKT_, symObjAddr: 0x5294, symBinAddr: 0x69AE0, symSize: 0x1A0 }
  - { offset: 0x3AD057, size: 0x8, addend: 0x0, symName: __Z27llama_memory_status_combine19llama_memory_statusS_, symObjAddr: 0x0, symBinAddr: 0x69C80, symSize: 0x38 }
  - { offset: 0x3AD06C, size: 0x8, addend: 0x0, symName: __Z27llama_memory_status_combine19llama_memory_statusS_, symObjAddr: 0x0, symBinAddr: 0x69C80, symSize: 0x38 }
  - { offset: 0x3AD0B8, size: 0x8, addend: 0x0, symName: __Z27llama_memory_status_is_fail19llama_memory_status, symObjAddr: 0x38, symBinAddr: 0x69CB8, symSize: 0x10 }
  - { offset: 0x3AFBA8, size: 0x8, addend: 0x0, symName: __ZN10llama_mmap9SUPPORTEDE, symObjAddr: 0x1BCC, symBinAddr: 0x2D6FD5, symSize: 0x0 }
  - { offset: 0x3B52BA, size: 0x8, addend: 0x0, symName: __ZN11llama_mlock9SUPPORTEDE, symObjAddr: 0x1BCD, symBinAddr: 0x2D6FD6, symSize: 0x0 }
  - { offset: 0x3B550E, size: 0x8, addend: 0x0, symName: __ZN10llama_fileC2EPKcS1_b, symObjAddr: 0x0, symBinAddr: 0x69CC8, symSize: 0x70 }
  - { offset: 0x3B55F7, size: 0x8, addend: 0x0, symName: __ZN10llama_file4implC2EPKcS2_b, symObjAddr: 0x1578, symBinAddr: 0x6B194, symSize: 0xF8 }
  - { offset: 0x3B59D5, size: 0x8, addend: 0x0, symName: __ZN10llama_fileC1EPKcS1_b, symObjAddr: 0x70, symBinAddr: 0x69D38, symSize: 0x70 }
  - { offset: 0x3B5D4B, size: 0x8, addend: 0x0, symName: __ZN10llama_fileC2EP7__sFILE, symObjAddr: 0xE0, symBinAddr: 0x69DA8, symSize: 0xC8 }
  - { offset: 0x3B602C, size: 0x8, addend: 0x0, symName: __ZNK10llama_file4impl4seekEmi, symObjAddr: 0x450, symBinAddr: 0x6A118, symSize: 0xEC }
  - { offset: 0x3B61B7, size: 0x8, addend: 0x0, symName: __ZNK10llama_file4impl4tellEv, symObjAddr: 0x294, symBinAddr: 0x69F5C, symSize: 0x158 }
  - { offset: 0x3B63C2, size: 0x8, addend: 0x0, symName: __ZN10llama_fileC1EP7__sFILE, symObjAddr: 0x1A8, symBinAddr: 0x69E70, symSize: 0x4 }
  - { offset: 0x3B63FF, size: 0x8, addend: 0x0, symName: __ZN10llama_fileC1EP7__sFILE, symObjAddr: 0x1A8, symBinAddr: 0x69E70, symSize: 0x4 }
  - { offset: 0x3B64E6, size: 0x8, addend: 0x0, symName: __ZN10llama_fileD2Ev, symObjAddr: 0x1AC, symBinAddr: 0x69E74, symSize: 0x70 }
  - { offset: 0x3B66FD, size: 0x8, addend: 0x0, symName: __ZN10llama_fileD1Ev, symObjAddr: 0x21C, symBinAddr: 0x69EE4, symSize: 0x70 }
  - { offset: 0x3B690E, size: 0x8, addend: 0x0, symName: __ZNK10llama_file4tellEv, symObjAddr: 0x28C, symBinAddr: 0x69F54, symSize: 0x8 }
  - { offset: 0x3B693A, size: 0x8, addend: 0x0, symName: __ZNK10llama_file4tellEv, symObjAddr: 0x28C, symBinAddr: 0x69F54, symSize: 0x8 }
  - { offset: 0x3B69DA, size: 0x8, addend: 0x0, symName: __ZNK10llama_file4sizeEv, symObjAddr: 0x3EC, symBinAddr: 0x6A0B4, symSize: 0xC }
  - { offset: 0x3B69FE, size: 0x8, addend: 0x0, symName: __ZNK10llama_file4sizeEv, symObjAddr: 0x3EC, symBinAddr: 0x6A0B4, symSize: 0xC }
  - { offset: 0x3B6A35, size: 0x8, addend: 0x0, symName: __ZNK10llama_file14read_alignmentEv, symObjAddr: 0x3F8, symBinAddr: 0x6A0C0, symSize: 0xC }
  - { offset: 0x3B6A61, size: 0x8, addend: 0x0, symName: __ZNK10llama_file14read_alignmentEv, symObjAddr: 0x3F8, symBinAddr: 0x6A0C0, symSize: 0xC }
  - { offset: 0x3B6AAF, size: 0x8, addend: 0x0, symName: __ZNK10llama_file13has_direct_ioEv, symObjAddr: 0x404, symBinAddr: 0x6A0CC, symSize: 0x28 }
  - { offset: 0x3B6ADB, size: 0x8, addend: 0x0, symName: __ZNK10llama_file13has_direct_ioEv, symObjAddr: 0x404, symBinAddr: 0x6A0CC, symSize: 0x28 }
  - { offset: 0x3B6B15, size: 0x8, addend: 0x0, symName: __ZNK10llama_file7file_idEv, symObjAddr: 0x42C, symBinAddr: 0x6A0F4, symSize: 0x1C }
  - { offset: 0x3B6B39, size: 0x8, addend: 0x0, symName: __ZNK10llama_file7file_idEv, symObjAddr: 0x42C, symBinAddr: 0x6A0F4, symSize: 0x1C }
  - { offset: 0x3B6B75, size: 0x8, addend: 0x0, symName: __ZNK10llama_file4seekEmi, symObjAddr: 0x448, symBinAddr: 0x6A110, symSize: 0x8 }
  - { offset: 0x3B6BBD, size: 0x8, addend: 0x0, symName: __ZNK10llama_file4seekEmi, symObjAddr: 0x448, symBinAddr: 0x6A110, symSize: 0x8 }
  - { offset: 0x3B6C3F, size: 0x8, addend: 0x0, symName: __ZN10llama_file8read_rawEPvm, symObjAddr: 0x53C, symBinAddr: 0x6A204, symSize: 0x24 }
  - { offset: 0x3B6C87, size: 0x8, addend: 0x0, symName: __ZN10llama_file8read_rawEPvm, symObjAddr: 0x53C, symBinAddr: 0x6A204, symSize: 0x24 }
  - { offset: 0x3B6CF8, size: 0x8, addend: 0x0, symName: __ZN10llama_file4impl18read_aligned_chunkEPvm, symObjAddr: 0x1254, symBinAddr: 0x6AF0C, symSize: 0x15C }
  - { offset: 0x3B703B, size: 0x8, addend: 0x0, symName: __ZN10llama_file4impl15read_raw_unsafeEPvm, symObjAddr: 0x568, symBinAddr: 0x6A230, symSize: 0x36C }
  - { offset: 0x3B7428, size: 0x8, addend: 0x0, symName: __ZN10llama_file15read_raw_unsafeEPvm, symObjAddr: 0x560, symBinAddr: 0x6A228, symSize: 0x8 }
  - { offset: 0x3B7470, size: 0x8, addend: 0x0, symName: __ZN10llama_file15read_raw_unsafeEPvm, symObjAddr: 0x560, symBinAddr: 0x6A228, symSize: 0x8 }
  - { offset: 0x3B74BF, size: 0x8, addend: 0x0, symName: __ZN10llama_file4impl7init_fpEPKc, symObjAddr: 0x13B0, symBinAddr: 0x6B068, symSize: 0x118 }
  - { offset: 0x3B77F1, size: 0x8, addend: 0x0, symName: __ZN10llama_file4impl15read_raw_unsafeEPvm.cold.2, symObjAddr: 0x19C0, symBinAddr: 0x291ED0, symSize: 0xC }
  - { offset: 0x3B7809, size: 0x8, addend: 0x0, symName: __ZN10llama_file4impl15read_raw_unsafeEPvm.cold.1, symObjAddr: 0x19B4, symBinAddr: 0x291EC4, symSize: 0xC }
  - { offset: 0x3B7843, size: 0x8, addend: 0x0, symName: __ZN10llama_file8read_u32Ev, symObjAddr: 0x8D4, symBinAddr: 0x6A59C, symSize: 0x60 }
  - { offset: 0x3B7920, size: 0x8, addend: 0x0, symName: __ZNK10llama_file9write_rawEPKvm, symObjAddr: 0x934, symBinAddr: 0x6A5FC, symSize: 0x8 }
  - { offset: 0x3B7968, size: 0x8, addend: 0x0, symName: __ZNK10llama_file9write_rawEPKvm, symObjAddr: 0x934, symBinAddr: 0x6A5FC, symSize: 0x8 }
  - { offset: 0x3B79A0, size: 0x8, addend: 0x0, symName: __ZNK10llama_file4impl9write_rawEPKvm, symObjAddr: 0x93C, symBinAddr: 0x6A604, symSize: 0xF0 }
  - { offset: 0x3B7B85, size: 0x8, addend: 0x0, symName: __ZNK10llama_file9write_u32Ej, symObjAddr: 0xA2C, symBinAddr: 0x6A6F4, symSize: 0x2C }
  - { offset: 0x3B7CD2, size: 0x8, addend: 0x0, symName: __ZN10llama_mmapC2EP10llama_filemb, symObjAddr: 0xA58, symBinAddr: 0x6A720, symSize: 0x70 }
  - { offset: 0x3B7DBB, size: 0x8, addend: 0x0, symName: __ZN10llama_mmap4implC2EP10llama_filemb, symObjAddr: 0x1684, symBinAddr: 0x6B28C, symSize: 0x28C }
  - { offset: 0x3B867B, size: 0x8, addend: 0x0, symName: __ZN10llama_mmapC1EP10llama_filemb, symObjAddr: 0xAC8, symBinAddr: 0x6A790, symSize: 0x70 }
  - { offset: 0x3B8866, size: 0x8, addend: 0x0, symName: __ZN10llama_mmapD2Ev, symObjAddr: 0xB38, symBinAddr: 0x6A800, symSize: 0x3C }
  - { offset: 0x3B8947, size: 0x8, addend: 0x0, symName: __ZN10llama_mmap4implD2Ev, symObjAddr: 0x1910, symBinAddr: 0x6B518, symSize: 0xA4 }
  - { offset: 0x3B8B54, size: 0x8, addend: 0x0, symName: __ZN10llama_mmapD1Ev, symObjAddr: 0xB74, symBinAddr: 0x6A83C, symSize: 0x3C }
  - { offset: 0x3B8C80, size: 0x8, addend: 0x0, symName: __ZNK10llama_mmap4sizeEv, symObjAddr: 0xBB0, symBinAddr: 0x6A878, symSize: 0xC }
  - { offset: 0x3B8CAC, size: 0x8, addend: 0x0, symName: __ZNK10llama_mmap4sizeEv, symObjAddr: 0xBB0, symBinAddr: 0x6A878, symSize: 0xC }
  - { offset: 0x3B8CC7, size: 0x8, addend: 0x0, symName: __ZNK10llama_mmap4addrEv, symObjAddr: 0xBBC, symBinAddr: 0x6A884, symSize: 0xC }
  - { offset: 0x3B8CF3, size: 0x8, addend: 0x0, symName: __ZNK10llama_mmap4addrEv, symObjAddr: 0xBBC, symBinAddr: 0x6A884, symSize: 0xC }
  - { offset: 0x3B8D0E, size: 0x8, addend: 0x0, symName: __ZN10llama_mmap14unmap_fragmentEmm, symObjAddr: 0xBC8, symBinAddr: 0x6A890, symSize: 0x8 }
  - { offset: 0x3B8D56, size: 0x8, addend: 0x0, symName: __ZN10llama_mmap14unmap_fragmentEmm, symObjAddr: 0xBC8, symBinAddr: 0x6A890, symSize: 0x8 }
  - { offset: 0x3B8D8E, size: 0x8, addend: 0x0, symName: __ZN10llama_mmap4impl14unmap_fragmentEmm, symObjAddr: 0xBD0, symBinAddr: 0x6A898, symSize: 0x454 }
  - { offset: 0x3BA602, size: 0x8, addend: 0x0, symName: __ZNSt3__16vectorINS_4pairImmEENS_9allocatorIS2_EEE20__throw_length_errorB9nqe210106Ev, symObjAddr: 0x14C8, symBinAddr: 0x6B180, symSize: 0x14 }
  - { offset: 0x3BA6D9, size: 0x8, addend: 0x0, symName: __ZN11llama_mlockC2Ev, symObjAddr: 0x1024, symBinAddr: 0x6ACEC, symSize: 0x34 }
  - { offset: 0x3BA7B5, size: 0x8, addend: 0x0, symName: __ZN11llama_mlockC1Ev, symObjAddr: 0x1058, symBinAddr: 0x6AD20, symSize: 0x34 }
  - { offset: 0x3BA928, size: 0x8, addend: 0x0, symName: __ZN11llama_mlockD2Ev, symObjAddr: 0x108C, symBinAddr: 0x6AD54, symSize: 0x34 }
  - { offset: 0x3BA94C, size: 0x8, addend: 0x0, symName: __ZN11llama_mlockD2Ev, symObjAddr: 0x108C, symBinAddr: 0x6AD54, symSize: 0x34 }
  - { offset: 0x3BA96A, size: 0x8, addend: 0x0, symName: __ZN11llama_mlockD2Ev, symObjAddr: 0x108C, symBinAddr: 0x6AD54, symSize: 0x34 }
  - { offset: 0x3BA988, size: 0x8, addend: 0x0, symName: __ZN11llama_mlockD2Ev, symObjAddr: 0x108C, symBinAddr: 0x6AD54, symSize: 0x34 }
  - { offset: 0x3BAA00, size: 0x8, addend: 0x0, symName: __ZN11llama_mlockD1Ev, symObjAddr: 0x10C0, symBinAddr: 0x6AD88, symSize: 0x34 }
  - { offset: 0x3BAA34, size: 0x8, addend: 0x0, symName: __ZN11llama_mlockD1Ev, symObjAddr: 0x10C0, symBinAddr: 0x6AD88, symSize: 0x34 }
  - { offset: 0x3BAA52, size: 0x8, addend: 0x0, symName: __ZN11llama_mlockD1Ev, symObjAddr: 0x10C0, symBinAddr: 0x6AD88, symSize: 0x34 }
  - { offset: 0x3BAA70, size: 0x8, addend: 0x0, symName: __ZN11llama_mlockD1Ev, symObjAddr: 0x10C0, symBinAddr: 0x6AD88, symSize: 0x34 }
  - { offset: 0x3BAA8E, size: 0x8, addend: 0x0, symName: __ZN11llama_mlockD1Ev, symObjAddr: 0x10C0, symBinAddr: 0x6AD88, symSize: 0x34 }
  - { offset: 0x3BAB24, size: 0x8, addend: 0x0, symName: __ZN11llama_mlock4initEPv, symObjAddr: 0x10F4, symBinAddr: 0x6ADBC, symSize: 0x4C }
  - { offset: 0x3BAB60, size: 0x8, addend: 0x0, symName: __ZN11llama_mlock4initEPv, symObjAddr: 0x10F4, symBinAddr: 0x6ADBC, symSize: 0x4C }
  - { offset: 0x3BAB94, size: 0x8, addend: 0x0, symName: __ZN11llama_mlock7grow_toEm, symObjAddr: 0x1140, symBinAddr: 0x6AE08, symSize: 0x8 }
  - { offset: 0x3BABA7, size: 0x8, addend: 0x0, symName: __ZN11llama_mlock7grow_toEm, symObjAddr: 0x1140, symBinAddr: 0x6AE08, symSize: 0x8 }
  - { offset: 0x3BABE1, size: 0x8, addend: 0x0, symName: __ZN11llama_mlock7grow_toEm, symObjAddr: 0x1140, symBinAddr: 0x6AE08, symSize: 0x8 }
  - { offset: 0x3BAC12, size: 0x8, addend: 0x0, symName: __ZN11llama_mlock4impl7grow_toEm, symObjAddr: 0x1148, symBinAddr: 0x6AE10, symSize: 0xF4 }
  - { offset: 0x3BAD0A, size: 0x8, addend: 0x0, symName: __Z14llama_path_maxv, symObjAddr: 0x123C, symBinAddr: 0x6AF04, symSize: 0x8 }
  - { offset: 0x3BAD87, size: 0x8, addend: 0x0, symName: __Z14llama_path_maxv, symObjAddr: 0x123C, symBinAddr: 0x6AF04, symSize: 0x8 }
  - { offset: 0x3BB046, size: 0x8, addend: 0x0, symName: __ZN10llama_mmap4implC2EP10llama_filemb, symObjAddr: 0x1684, symBinAddr: 0x6B28C, symSize: 0x28C }
  - { offset: 0x3BB32F, size: 0x8, addend: 0x0, symName: _OUTLINED_FUNCTION_0, symObjAddr: 0x19CC, symBinAddr: 0x6B5BC, symSize: 0x14 }
  - { offset: 0x3EAC0E, size: 0x8, addend: 0x0, symName: __ZNSt3__120__throw_future_errorB9nqe210106ENS_11future_errcE, symObjAddr: 0x184F4, symBinAddr: 0x7BB8C, symSize: 0x5C }
  - { offset: 0x3ED315, size: 0x8, addend: 0x0, symName: '__ZNSt3__117__call_once_proxyB9nqe210106INS_5tupleIJOZZN18llama_model_loader13create_tensorERK13llama_hparamsPKNS_6vectorINS_4pairIP19ggml_backend_deviceP24ggml_backend_buffer_typeEENS_9allocatorISC_EEEESH_SH_SH_RK11LLM_TN_IMPLRKSt16initializer_listIxEiENK3$_1clEP11ggml_tensorEUlvE_EEEEEvPv', symObjAddr: 0x14F44, symBinAddr: 0x78CB0, symSize: 0x10 }
  - { offset: 0x3ED348, size: 0x8, addend: 0x0, symName: '__ZNSt3__117__call_once_proxyB9nqe210106INS_5tupleIJOZZN18llama_model_loader13create_tensorERK13llama_hparamsPKNS_6vectorINS_4pairIP19ggml_backend_deviceP24ggml_backend_buffer_typeEENS_9allocatorISC_EEEESH_SH_SH_RK11LLM_TN_IMPLRKSt16initializer_listIxEiENK3$_1clEP11ggml_tensorEUlvE_EEEEEvPv', symObjAddr: 0x14F44, symBinAddr: 0x78CB0, symSize: 0x10 }
  - { offset: 0x3ED35C, size: 0x8, addend: 0x0, symName: '__ZNSt3__117__call_once_proxyB9nqe210106INS_5tupleIJOZZN18llama_model_loader13create_tensorERK13llama_hparamsPKNS_6vectorINS_4pairIP19ggml_backend_deviceP24ggml_backend_buffer_typeEENS_9allocatorISC_EEEESH_SH_SH_RK11LLM_TN_IMPLRKSt16initializer_listIxEiENK3$_1clEP11ggml_tensorEUlvE_EEEEEvPv', symObjAddr: 0x14F44, symBinAddr: 0x78CB0, symSize: 0x10 }
  - { offset: 0x3ED370, size: 0x8, addend: 0x0, symName: '__ZNSt3__117__call_once_proxyB9nqe210106INS_5tupleIJOZZN18llama_model_loader13create_tensorERK13llama_hparamsPKNS_6vectorINS_4pairIP19ggml_backend_deviceP24ggml_backend_buffer_typeEENS_9allocatorISC_EEEESH_SH_SH_RK11LLM_TN_IMPLRKSt16initializer_listIxEiENK3$_1clEP11ggml_tensorEUlvE_EEEEEvPv', symObjAddr: 0x14F44, symBinAddr: 0x78CB0, symSize: 0x10 }
  - { offset: 0x3ED384, size: 0x8, addend: 0x0, symName: '__ZNSt3__117__call_once_proxyB9nqe210106INS_5tupleIJOZZN18llama_model_loader13create_tensorERK13llama_hparamsPKNS_6vectorINS_4pairIP19ggml_backend_deviceP24ggml_backend_buffer_typeEENS_9allocatorISC_EEEESH_SH_SH_RK11LLM_TN_IMPLRKSt16initializer_listIxEiENK3$_1clEP11ggml_tensorEUlvE_EEEEEvPv', symObjAddr: 0x14F44, symBinAddr: 0x78CB0, symSize: 0x10 }
  - { offset: 0x3EE18B, size: 0x8, addend: 0x0, symName: '__ZNSt3__114__thread_proxyB9nqe210106INS_5tupleIJNS_10unique_ptrINS_15__thread_structENS_14default_deleteIS3_EEEEMNS_19__async_assoc_stateINS_4pairIP11ggml_tensorbEENS_12__async_funcIZN18llama_model_loader13load_all_dataEP12ggml_contextRNS_13unordered_mapIjP19ggml_backend_bufferNS_4hashIjEENS_8equal_toIjEENS_9allocatorINS8_IKjSI_EEEEEEPNS_6vectorINS2_I11llama_mlockNS4_ISU_EEEENSN_ISW_EEEEPFbfPvES10_E3$_1JEEEEEFvvEPS15_EEEEES10_S10_', symObjAddr: 0x18550, symBinAddr: 0x7BBE8, symSize: 0x8C }
  - { offset: 0x3EE54C, size: 0x8, addend: 0x0, symName: '__ZNSt3__114__thread_proxyB9nqe210106INS_5tupleIJNS_10unique_ptrINS_15__thread_structENS_14default_deleteIS3_EEEEMNS_19__async_assoc_stateINS_4pairIP11ggml_tensorbEENS_12__async_funcIZN18llama_model_loader13load_all_dataEP12ggml_contextRNS_13unordered_mapIjP19ggml_backend_bufferNS_4hashIjEENS_8equal_toIjEENS_9allocatorINS8_IKjSI_EEEEEEPNS_6vectorINS2_I11llama_mlockNS4_ISU_EEEENSN_ISW_EEEEPFbfPvES10_E3$_2JEEEEEFvvEPS15_EEEEES10_S10_', symObjAddr: 0x1885C, symBinAddr: 0x7BEF4, symSize: 0x8C }
  - { offset: 0x3F2B21, size: 0x8, addend: 0x0, symName: __ZN18llama_model_loader13create_tensorERK13llama_hparamsPKNSt3__16vectorINS3_4pairIP19ggml_backend_deviceP24ggml_backend_buffer_typeEENS3_9allocatorISA_EEEESF_SF_SF_RK11LLM_TN_IMPLRKSt16initializer_listIxEi, symObjAddr: 0x5710, symBinAddr: 0x70B94, symSize: 0x6C4 }
  - { offset: 0x3F3F13, size: 0x8, addend: 0x0, symName: '__ZZN18llama_model_loader13create_tensorERK13llama_hparamsPKNSt3__16vectorINS3_4pairIP19ggml_backend_deviceP24ggml_backend_buffer_typeEENS3_9allocatorISA_EEEESF_SF_SF_RK11LLM_TN_IMPLRKSt16initializer_listIxEiENK3$_1clEP11ggml_tensor', symObjAddr: 0x5DD4, symBinAddr: 0x71258, symSize: 0x814 }
  - { offset: 0x3F3F3C, size: 0x8, addend: 0x0, symName: '__ZZZN18llama_model_loader13create_tensorERK13llama_hparamsPKNSt3__16vectorINS3_4pairIP19ggml_backend_deviceP24ggml_backend_buffer_typeEENS3_9allocatorISA_EEEESF_SF_SF_RK11LLM_TN_IMPLRKSt16initializer_listIxEiENK3$_1clEP11ggml_tensorE4once', symObjAddr: 0x252478, symBinAddr: 0x3AFE68, symSize: 0x0 }
  - { offset: 0x3F5BAC, size: 0x8, addend: 0x0, symName: '__ZTVNSt3__119__async_assoc_stateINS_4pairIP11ggml_tensorbEENS_12__async_funcIZN18llama_model_loader13load_all_dataEP12ggml_contextRNS_13unordered_mapIjP19ggml_backend_bufferNS_4hashIjEENS_8equal_toIjEENS_9allocatorINS1_IKjSB_EEEEEEPNS_6vectorINS_10unique_ptrI11llama_mlockNS_14default_deleteISO_EEEENSG_ISR_EEEEPFbfPvESV_E3$_1JEEEEE', symObjAddr: 0x1C1F0, symBinAddr: 0x3145A8, symSize: 0x0 }
  - { offset: 0x3F5BD7, size: 0x8, addend: 0x0, symName: __ZN18llama_model_loader13load_all_dataEP12ggml_contextRNSt3__113unordered_mapIjP19ggml_backend_bufferNS2_4hashIjEENS2_8equal_toIjEENS2_9allocatorINS2_4pairIKjS5_EEEEEEPNS2_6vectorINS2_10unique_ptrI11llama_mlockNS2_14default_deleteISJ_EEEENSA_ISM_EEEEPFbfPvESQ_, symObjAddr: 0x7444, symBinAddr: 0x728C8, symSize: 0x1BC0 }
  - { offset: 0x3FA025, size: 0x8, addend: 0x0, symName: '__ZTVNSt3__119__async_assoc_stateINS_4pairIP11ggml_tensorbEENS_12__async_funcIZN18llama_model_loader13load_all_dataEP12ggml_contextRNS_13unordered_mapIjP19ggml_backend_bufferNS_4hashIjEENS_8equal_toIjEENS_9allocatorINS1_IKjSB_EEEEEEPNS_6vectorINS_10unique_ptrI11llama_mlockNS_14default_deleteISO_EEEENSG_ISR_EEEEPFbfPvESV_E3$_2JEEEEE', symObjAddr: 0x1C250, symBinAddr: 0x314608, symSize: 0x0 }
  - { offset: 0x3FB994, size: 0x8, addend: 0x0, symName: __Z23llama_file_version_name10llama_fver, symObjAddr: 0x0, symBinAddr: 0x6B5D0, symSize: 0x28 }
  - { offset: 0x3FBA84, size: 0x8, addend: 0x0, symName: __ZN18llama_model_loader9get_arr_nIjEENSt3__19enable_ifIXsr3std11is_integralIT_EE5valueEbE4typeE6llm_kvRS3_b, symObjAddr: 0x28, symBinAddr: 0x6B5F8, symSize: 0xA0 }
  - { offset: 0x3FBCD6, size: 0x8, addend: 0x0, symName: __ZN18llama_model_loader9get_arr_nIjEENSt3__19enable_ifIXsr3std11is_integralIT_EE5valueEbE4typeERKNS1_12basic_stringIcNS1_11char_traitsIcEENS1_9allocatorIcEEEERS3_b, symObjAddr: 0xC8, symBinAddr: 0x6B698, symSize: 0x120 }
  - { offset: 0x3FBFCF, size: 0x8, addend: 0x0, symName: __ZN8GGUFMeta3GKVINS_9ArrayInfoEE6get_kvEPK12gguf_contexti, symObjAddr: 0x152C0, symBinAddr: 0x78E58, symSize: 0x150 }
  - { offset: 0x3FC1F0, size: 0x8, addend: 0x0, symName: __ZN18llama_model_loader7get_arrINSt3__16vectorINS1_12basic_stringIcNS1_11char_traitsIcEENS1_9allocatorIcEEEENS6_IS8_EEEEEEb6llm_kvRT_b, symObjAddr: 0x1E8, symBinAddr: 0x6B7B8, symSize: 0xA0 }
  - { offset: 0x3FC442, size: 0x8, addend: 0x0, symName: __ZN18llama_model_loader7get_arrINSt3__112basic_stringIcNS1_11char_traitsIcEENS1_9allocatorIcEEEEEEbRKS7_RNS1_6vectorIT_NS5_ISB_EEEEb, symObjAddr: 0x288, symBinAddr: 0x6B858, symSize: 0x3AC }
  - { offset: 0x3FD88A, size: 0x8, addend: 0x0, symName: __ZNSt3__112__hash_tableINS_17__hash_value_typeINS_12basic_stringIcNS_11char_traitsIcEENS_9allocatorIcEEEE23llama_model_kv_overrideEENS_22__unordered_map_hasherIS7_NS_4pairIKS7_S8_EENS_4hashIS7_EENS_8equal_toIS7_EELb1EEENS_21__unordered_map_equalIS7_SD_SH_SF_Lb1EEENS5_ISD_EEE4findIS7_EENS_15__hash_iteratorIPNS_11__hash_nodeIS9_PvEEEERKT_, symObjAddr: 0x1549C, symBinAddr: 0x78FA8, symSize: 0x1BC }
  - { offset: 0x3FD8CA, size: 0x8, addend: 0x0, symName: __ZN18llama_model_loader7get_keyIbEEb6llm_kvRT_b, symObjAddr: 0x634, symBinAddr: 0x6BC04, symSize: 0xA0 }
  - { offset: 0x3FDB1C, size: 0x8, addend: 0x0, symName: __ZN18llama_model_loader7get_keyIbEEbRKNSt3__112basic_stringIcNS1_11char_traitsIcEENS1_9allocatorIcEEEERT_b, symObjAddr: 0x6D4, symBinAddr: 0x6BCA4, symSize: 0x154 }
  - { offset: 0x3FDFA6, size: 0x8, addend: 0x0, symName: __ZNSt3__112__hash_tableINS_17__hash_value_typeINS_12basic_stringIcNS_11char_traitsIcEENS_9allocatorIcEEEE23llama_model_kv_overrideEENS_22__unordered_map_hasherIS7_NS_4pairIKS7_S8_EENS_4hashIS7_EENS_8equal_toIS7_EELb1EEENS_21__unordered_map_equalIS7_SD_SH_SF_Lb1EEENS5_ISD_EEE4findIS7_EENS_15__hash_iteratorIPNS_11__hash_nodeIS9_PvEEEERKT_, symObjAddr: 0x1549C, symBinAddr: 0x78FA8, symSize: 0x1BC }
  - { offset: 0x3FE2D0, size: 0x8, addend: 0x0, symName: __ZN8GGUFMeta3GKVIbE17validate_overrideE28llama_model_kv_override_typePK23llama_model_kv_override, symObjAddr: 0x15BA4, symBinAddr: 0x79264, symSize: 0x240 }
  - { offset: 0x3FE495, size: 0x8, addend: 0x0, symName: __ZN8GGUFMeta3GKVIbE6get_kvEPK12gguf_contexti, symObjAddr: 0x15AA4, symBinAddr: 0x79164, symSize: 0x100 }
  - { offset: 0x3FE64A, size: 0x8, addend: 0x0, symName: __ZN18llama_model_loader7get_keyIfEEb6llm_kvRT_b, symObjAddr: 0x828, symBinAddr: 0x6BDF8, symSize: 0xA0 }
  - { offset: 0x3FE89C, size: 0x8, addend: 0x0, symName: __ZN18llama_model_loader7get_keyIfEEbRKNSt3__112basic_stringIcNS1_11char_traitsIcEENS1_9allocatorIcEEEERT_b, symObjAddr: 0x8C8, symBinAddr: 0x6BE98, symSize: 0x158 }
  - { offset: 0x3FECFE, size: 0x8, addend: 0x0, symName: __ZN8GGUFMeta3GKVIfE17validate_overrideE28llama_model_kv_override_typePK23llama_model_kv_override, symObjAddr: 0x15EE4, symBinAddr: 0x795A4, symSize: 0x240 }
  - { offset: 0x3FEEC3, size: 0x8, addend: 0x0, symName: __ZN8GGUFMeta3GKVIfE6get_kvEPK12gguf_contexti, symObjAddr: 0x15DE4, symBinAddr: 0x794A4, symSize: 0x100 }
  - { offset: 0x3FF078, size: 0x8, addend: 0x0, symName: __ZN18llama_model_loader7get_keyIjEEb6llm_kvRT_b, symObjAddr: 0xA20, symBinAddr: 0x6BFF0, symSize: 0xA0 }
  - { offset: 0x3FF2A7, size: 0x8, addend: 0x0, symName: __ZN18llama_model_loader7get_keyIjEEbRKNSt3__112basic_stringIcNS1_11char_traitsIcEENS1_9allocatorIcEEEERT_b, symObjAddr: 0xAC0, symBinAddr: 0x6C090, symSize: 0x154 }
  - { offset: 0x3FF709, size: 0x8, addend: 0x0, symName: __ZN8GGUFMeta3GKVIjE17validate_overrideE28llama_model_kv_override_typePK23llama_model_kv_override, symObjAddr: 0x16224, symBinAddr: 0x798E4, symSize: 0x240 }
  - { offset: 0x3FF8CE, size: 0x8, addend: 0x0, symName: __ZN8GGUFMeta3GKVIjE6get_kvEPK12gguf_contexti, symObjAddr: 0x16124, symBinAddr: 0x797E4, symSize: 0x100 }
  - { offset: 0x3FFA83, size: 0x8, addend: 0x0, symName: __ZN18llama_model_loader7get_keyINSt3__112basic_stringIcNS1_11char_traitsIcEENS1_9allocatorIcEEEEEEb6llm_kvRT_b, symObjAddr: 0xC14, symBinAddr: 0x6C1E4, symSize: 0xA0 }
  - { offset: 0x3FFCD5, size: 0x8, addend: 0x0, symName: __ZN18llama_model_loader7get_keyINSt3__112basic_stringIcNS1_11char_traitsIcEENS1_9allocatorIcEEEEEEbRKS7_RT_b, symObjAddr: 0xCB4, symBinAddr: 0x6C284, symSize: 0x17C }
  - { offset: 0x4002D3, size: 0x8, addend: 0x0, symName: __ZN8GGUFMeta3GKVINSt3__112basic_stringIcNS1_11char_traitsIcEENS1_9allocatorIcEEEEE17validate_overrideE28llama_model_kv_override_typePK23llama_model_kv_override, symObjAddr: 0x165EC, symBinAddr: 0x79CAC, symSize: 0x240 }
  - { offset: 0x400498, size: 0x8, addend: 0x0, symName: __ZN8GGUFMeta3GKVINSt3__112basic_stringIcNS1_11char_traitsIcEENS1_9allocatorIcEEEEE6get_kvEPK12gguf_contexti, symObjAddr: 0x16464, symBinAddr: 0x79B24, symSize: 0x188 }
  - { offset: 0x4008F8, size: 0x8, addend: 0x0, symName: __ZN18llama_model_loader7get_keyI18llama_pooling_typeEEb6llm_kvRT_b, symObjAddr: 0xE30, symBinAddr: 0x6C400, symSize: 0x9C }
  - { offset: 0x400BAC, size: 0x8, addend: 0x0, symName: __ZN18llama_model_loader14get_key_or_arrE6llm_kvRjb, symObjAddr: 0xECC, symBinAddr: 0x6C49C, symSize: 0x1F4 }
  - { offset: 0x40110A, size: 0x8, addend: 0x0, symName: __ZN18llama_model_loader14get_key_or_arrINSt3__15arrayIiLm4EEEEEb6llm_kvRT_jb, symObjAddr: 0x10C0, symBinAddr: 0x6C690, symSize: 0xA8 }
  - { offset: 0x401372, size: 0x8, addend: 0x0, symName: __ZN18llama_model_loader14get_key_or_arrIiLm4EEEbRKNSt3__112basic_stringIcNS1_11char_traitsIcEENS1_9allocatorIcEEEERNS1_5arrayIT_XT0_EEEjb, symObjAddr: 0x1168, symBinAddr: 0x6C738, symSize: 0x2F8 }
  - { offset: 0x4018FC, size: 0x8, addend: 0x0, symName: __ZN18llama_model_loader7get_arrIiLm4EEEbRKNSt3__112basic_stringIcNS1_11char_traitsIcEENS1_9allocatorIcEEEERNS1_5arrayIT_XT0_EEEb, symObjAddr: 0x1682C, symBinAddr: 0x79EEC, symSize: 0x338 }
  - { offset: 0x401F91, size: 0x8, addend: 0x0, symName: __ZN18llama_model_loader7get_keyIiEEbRKNSt3__112basic_stringIcNS1_11char_traitsIcEENS1_9allocatorIcEEEERT_b, symObjAddr: 0x4DB0, symBinAddr: 0x70234, symSize: 0x154 }
  - { offset: 0x402322, size: 0x8, addend: 0x0, symName: __ZN18llama_model_loader14get_key_or_arrINSt3__15arrayIjLm512EEEEEb6llm_kvRT_jb, symObjAddr: 0x1460, symBinAddr: 0x6CA30, symSize: 0xA8 }
  - { offset: 0x40258A, size: 0x8, addend: 0x0, symName: __ZN18llama_model_loader14get_key_or_arrIjLm512EEEbRKNSt3__112basic_stringIcNS1_11char_traitsIcEENS1_9allocatorIcEEEERNS1_5arrayIT_XT0_EEEjb, symObjAddr: 0x1508, symBinAddr: 0x6CAD8, symSize: 0x304 }
  - { offset: 0x402BAD, size: 0x8, addend: 0x0, symName: __ZN18llama_model_loader7get_arrIjLm512EEEbRKNSt3__112basic_stringIcNS1_11char_traitsIcEENS1_9allocatorIcEEEERNS1_5arrayIT_XT0_EEEb, symObjAddr: 0x16B64, symBinAddr: 0x7A224, symSize: 0x420 }
  - { offset: 0x40323A, size: 0x8, addend: 0x0, symName: __ZN18llama_model_loader14get_key_or_arrINSt3__15arrayIfLm512EEEEEb6llm_kvRT_jb, symObjAddr: 0x180C, symBinAddr: 0x6CDDC, symSize: 0xA8 }
  - { offset: 0x4034A2, size: 0x8, addend: 0x0, symName: __ZN18llama_model_loader14get_key_or_arrIfLm512EEEbRKNSt3__112basic_stringIcNS1_11char_traitsIcEENS1_9allocatorIcEEEERNS1_5arrayIT_XT0_EEEjb, symObjAddr: 0x18B4, symBinAddr: 0x6CE84, symSize: 0x304 }
  - { offset: 0x403AC5, size: 0x8, addend: 0x0, symName: __ZN18llama_model_loader7get_arrIfLm512EEEbRKNSt3__112basic_stringIcNS1_11char_traitsIcEENS1_9allocatorIcEEEERNS1_5arrayIT_XT0_EEEb, symObjAddr: 0x16F84, symBinAddr: 0x7A644, symSize: 0x2D0 }
  - { offset: 0x40684D, size: 0x8, addend: 0x0, symName: __ZN18llama_model_loaderC2EP12gguf_contextPFvP11ggml_tensorPvES4_RKNSt3__112basic_stringIcNS7_11char_traitsIcEENS7_9allocatorIcEEEERNS7_6vectorISD_NSB_ISD_EEEEP7__sFILEbbbbPK23llama_model_kv_overridePK32llama_model_tensor_buft_override, symObjAddr: 0x1BB8, symBinAddr: 0x6D188, symSize: 0x2F58 }
  - { offset: 0x410C6F, size: 0x8, addend: 0x0, symName: __ZNSt3__112__hash_tableINS_17__hash_value_typeINS_12basic_stringIcNS_11char_traitsIcEENS_9allocatorIcEEEE23llama_model_kv_overrideEENS_22__unordered_map_hasherIS7_NS_4pairIKS7_S8_EENS_4hashIS7_EENS_8equal_toIS7_EELb1EEENS_21__unordered_map_equalIS7_SD_SH_SF_Lb1EEENS5_ISD_EEE25__emplace_unique_key_argsIS7_JSD_EEENSB_INS_15__hash_iteratorIPNS_11__hash_nodeIS9_PvEEEEbEERKT_DpOT0_, symObjAddr: 0x17310, symBinAddr: 0x7A9D0, symSize: 0x414 }
  - { offset: 0x4115DC, size: 0x8, addend: 0x0, symName: __ZNK18llama_model_loader20weight_name_comparerclERKNSt3__112basic_stringIcNS1_11char_traitsIcEENS1_9allocatorIcEEEES9_, symObjAddr: 0x17938, symBinAddr: 0x7AFE4, symSize: 0xF4 }
  - { offset: 0x411890, size: 0x8, addend: 0x0, symName: __ZN18llama_model_loader19llama_tensor_weightC2EPK10llama_filetPK12gguf_contextP11ggml_tensor, symObjAddr: 0x9614, symBinAddr: 0x74A88, symSize: 0x1B8 }
  - { offset: 0x411B02, size: 0x8, addend: 0x0, symName: __ZNSt3__16__treeINS_12__value_typeINS_12basic_stringIcNS_11char_traitsIcEENS_9allocatorIcEEEEN18llama_model_loader19llama_tensor_weightEEENS_19__map_value_compareIS7_NS_4pairIKS7_S9_EENS8_20weight_name_comparerELb1EEENS5_ISE_EEE25__emplace_unique_key_argsIS7_JRS7_S9_EEENSC_INS_15__tree_iteratorISA_PNS_11__tree_nodeISA_PvEElEEbEERKT_DpOT0_, symObjAddr: 0x17A2C, symBinAddr: 0x7B0D8, symSize: 0x158 }
  - { offset: 0x411EA1, size: 0x8, addend: 0x0, symName: __ZN8GGUFMeta3GKVItE17validate_overrideE28llama_model_kv_override_typePK23llama_model_kv_override, symObjAddr: 0x17CE4, symBinAddr: 0x7B390, symSize: 0x240 }
  - { offset: 0x412066, size: 0x8, addend: 0x0, symName: __ZN8GGUFMeta3GKVItE6get_kvEPK12gguf_contexti, symObjAddr: 0x17BE4, symBinAddr: 0x7B290, symSize: 0x100 }
  - { offset: 0x412229, size: 0x8, addend: 0x0, symName: __ZN18llama_model_loader7get_keyItEEbRKNSt3__112basic_stringIcNS1_11char_traitsIcEENS1_9allocatorIcEEEERT_b, symObjAddr: 0x4BB8, symBinAddr: 0x700E0, symSize: 0x154 }
  - { offset: 0x4126CB, size: 0x8, addend: 0x0, symName: __ZNSt3__16__treeINS_12__value_typeI9ggml_typejEENS_19__map_value_compareIS2_NS_4pairIKS2_jEENS_4lessIS2_EELb1EEENS_9allocatorIS7_EEE7destroyEPNS_11__tree_nodeIS3_PvEE, symObjAddr: 0x18264, symBinAddr: 0x7B910, symSize: 0x44 }
  - { offset: 0x4127CF, size: 0x8, addend: 0x0, symName: __ZNK18llama_model_loader20weight_name_comparerclERKNSt3__112basic_stringIcNS1_11char_traitsIcEENS1_9allocatorIcEEEES9_, symObjAddr: 0x17938, symBinAddr: 0x7AFE4, symSize: 0xF4 }
  - { offset: 0x4127DA, size: 0x8, addend: 0x0, symName: __ZNSt3__16vectorINS_10unique_ptrI10llama_fileNS_14default_deleteIS2_EEEENS_9allocatorIS5_EEE20__throw_length_errorB9nqe210106Ev, symObjAddr: 0x17910, symBinAddr: 0x7AFD0, symSize: 0x14 }
  - { offset: 0x412807, size: 0x8, addend: 0x0, symName: __ZL18select_weight_buftRK13llama_hparamsP11ggml_tensor7ggml_opPKNSt3__16vectorINS5_4pairIP19ggml_backend_deviceP24ggml_backend_buffer_typeEENS5_9allocatorISC_EEEE, symObjAddr: 0x9908, symBinAddr: 0x74C40, symSize: 0x73C }
  - { offset: 0x41297F, size: 0x8, addend: 0x0, symName: __ZNSt3__110unique_ptrINS_11__tree_nodeINS_12__value_typeINS_12basic_stringIcNS_11char_traitsIcEENS_9allocatorIcEEEEN18llama_model_loader19llama_tensor_weightEEEPvEENS_22__tree_node_destructorINS6_ISD_EEEEED1B9nqe210106Ev, symObjAddr: 0x17B84, symBinAddr: 0x7B230, symSize: 0x60 }
  - { offset: 0x412C76, size: 0x8, addend: 0x0, symName: __ZNSt3__16__treeINS_12__value_typeIP24ggml_backend_buffer_typeNS_10unique_ptrI12ggml_context20ggml_context_deleterEEEENS_19__map_value_compareIS3_NS_4pairIKS3_S7_EEN18llama_model_loader28ggml_backend_buft_comparatorELb1EEENS_9allocatorISC_EEE7destroyEPNS_11__tree_nodeIS8_PvEE, symObjAddr: 0x172B4, symBinAddr: 0x7A974, symSize: 0x5C }
  - { offset: 0x412E4E, size: 0x8, addend: 0x0, symName: __ZNSt3__16vectorINS_10unique_ptrI12ggml_context20ggml_context_deleterEENS_9allocatorIS4_EEED1B9nqe210106Ev, symObjAddr: 0x4F04, symBinAddr: 0x70388, symSize: 0x70 }
  - { offset: 0x41302F, size: 0x8, addend: 0x0, symName: __ZNSt3__113unordered_mapINS_12basic_stringIcNS_11char_traitsIcEENS_9allocatorIcEEEE23llama_model_kv_overrideNS_4hashIS6_EENS_8equal_toIS6_EENS4_INS_4pairIKS6_S7_EEEEED1B9nqe210106Ev, symObjAddr: 0x4F74, symBinAddr: 0x703F8, symSize: 0x68 }
  - { offset: 0x4133E9, size: 0x8, addend: 0x0, symName: __ZNSt3__16__treeINS_12__value_typeINS_12basic_stringIcNS_11char_traitsIcEENS_9allocatorIcEEEEN18llama_model_loader19llama_tensor_weightEEENS_19__map_value_compareIS7_NS_4pairIKS7_S9_EENS8_20weight_name_comparerELb1EEENS5_ISE_EEE7destroyEPNS_11__tree_nodeISA_PvEE, symObjAddr: 0x17254, symBinAddr: 0x7A914, symSize: 0x60 }
  - { offset: 0x4135FF, size: 0x8, addend: 0x0, symName: __ZNSt3__16vectorINS_10unique_ptrI10llama_mmapNS_14default_deleteIS2_EEEENS_9allocatorIS5_EEED1B9nqe210106Ev, symObjAddr: 0x4FDC, symBinAddr: 0x70460, symSize: 0x70 }
  - { offset: 0x413805, size: 0x8, addend: 0x0, symName: __ZNSt3__16vectorINS_10unique_ptrI10llama_fileNS_14default_deleteIS2_EEEENS_9allocatorIS5_EEED1B9nqe210106Ev, symObjAddr: 0x504C, symBinAddr: 0x704D0, symSize: 0x70 }
  - { offset: 0x413B85, size: 0x8, addend: 0x0, symName: __ZN18llama_model_loader7get_keyItEEbRKNSt3__112basic_stringIcNS1_11char_traitsIcEENS1_9allocatorIcEEEERT_b, symObjAddr: 0x4BB8, symBinAddr: 0x700E0, symSize: 0x154 }
  - { offset: 0x413C9B, size: 0x8, addend: 0x0, symName: __ZN8GGUFMeta3GKVIiE17validate_overrideE28llama_model_kv_override_typePK23llama_model_kv_override, symObjAddr: 0x18024, symBinAddr: 0x7B6D0, symSize: 0x240 }
  - { offset: 0x413E60, size: 0x8, addend: 0x0, symName: __ZN8GGUFMeta3GKVIiE6get_kvEPK12gguf_contexti, symObjAddr: 0x17F24, symBinAddr: 0x7B5D0, symSize: 0x100 }
  - { offset: 0x414608, size: 0x8, addend: 0x0, symName: __ZN18llama_model_loaderC1EP12gguf_contextPFvP11ggml_tensorPvES4_RKNSt3__112basic_stringIcNS7_11char_traitsIcEENS7_9allocatorIcEEEERNS7_6vectorISD_NSB_ISD_EEEEP7__sFILEbbbbPK23llama_model_kv_overridePK32llama_model_tensor_buft_override, symObjAddr: 0x50BC, symBinAddr: 0x70540, symSize: 0x1C }
  - { offset: 0x414730, size: 0x8, addend: 0x0, symName: __ZNK18llama_model_loader13get_arch_nameEv, symObjAddr: 0x50D8, symBinAddr: 0x7055C, symSize: 0x28 }
  - { offset: 0x414776, size: 0x8, addend: 0x0, symName: __ZNK18llama_model_loader13get_arch_nameEv, symObjAddr: 0x50D8, symBinAddr: 0x7055C, symSize: 0x28 }
  - { offset: 0x4147AE, size: 0x8, addend: 0x0, symName: __ZNK18llama_model_loader8get_archEv, symObjAddr: 0x5100, symBinAddr: 0x70584, symSize: 0x8 }
  - { offset: 0x414890, size: 0x8, addend: 0x0, symName: __ZNK18llama_model_loader10get_weightEPKc, symObjAddr: 0x5108, symBinAddr: 0x7058C, symSize: 0x160 }
  - { offset: 0x414DFB, size: 0x8, addend: 0x0, symName: __ZNK18llama_model_loader14require_weightEPKc, symObjAddr: 0x5268, symBinAddr: 0x706EC, symSize: 0xC4 }
  - { offset: 0x414F60, size: 0x8, addend: 0x0, symName: __ZNK18llama_model_loader15get_tensor_metaEPKc, symObjAddr: 0x532C, symBinAddr: 0x707B0, symSize: 0x1C }
  - { offset: 0x414FE7, size: 0x8, addend: 0x0, symName: __ZNK18llama_model_loader19require_tensor_metaERKNSt3__112basic_stringIcNS0_11char_traitsIcEENS0_9allocatorIcEEEE, symObjAddr: 0x5348, symBinAddr: 0x707CC, symSize: 0xEC }
  - { offset: 0x41525E, size: 0x8, addend: 0x0, symName: __ZNK18llama_model_loader17check_tensor_dimsERKNSt3__112basic_stringIcNS0_11char_traitsIcEENS0_9allocatorIcEEEERKNS0_6vectorIxNS4_IxEEEEb, symObjAddr: 0x5434, symBinAddr: 0x708B8, symSize: 0x2DC }
  - { offset: 0x415D20, size: 0x8, addend: 0x0, symName: '__ZZN18llama_model_loader13create_tensorERK13llama_hparamsPKNSt3__16vectorINS3_4pairIP19ggml_backend_deviceP24ggml_backend_buffer_typeEENS3_9allocatorISA_EEEESF_SF_SF_RK11LLM_TN_IMPLRKSt16initializer_listIxEiENK3$_0clES9_', symObjAddr: 0x65E8, symBinAddr: 0x71A6C, symSize: 0x1B4 }
  - { offset: 0x41620A, size: 0x8, addend: 0x0, symName: __ZNSt3__16vectorIxNS_9allocatorIxEEE20__throw_length_errorB9nqe210106Ev, symObjAddr: 0x182A8, symBinAddr: 0x7B954, symSize: 0x14 }
  - { offset: 0x416222, size: 0x8, addend: 0x0, symName: __ZNSt3__16vectorINS_10unique_ptrI10llama_mmapNS_14default_deleteIS2_EEEENS_9allocatorIS5_EEE20__throw_length_errorB9nqe210106Ev, symObjAddr: 0x182BC, symBinAddr: 0x7B968, symSize: 0x14 }
  - { offset: 0x4167DA, size: 0x8, addend: 0x0, symName: __ZNSt3__111basic_regexIcNS_12regex_traitsIcEEEC2B9nqe210106EPKcNS_15regex_constants18syntax_option_typeE, symObjAddr: 0xA0A8, symBinAddr: 0x7537C, symSize: 0xC8 }
  - { offset: 0x416D86, size: 0x8, addend: 0x0, symName: __ZL18select_weight_buftRK13llama_hparamsP11ggml_tensor7ggml_opPKNSt3__16vectorINS5_4pairIP19ggml_backend_deviceP24ggml_backend_buffer_typeEENS5_9allocatorISC_EEEE, symObjAddr: 0x9908, symBinAddr: 0x74C40, symSize: 0x73C }
  - { offset: 0x4179C9, size: 0x8, addend: 0x0, symName: '__ZZN18llama_model_loader13create_tensorERK13llama_hparamsPKNSt3__16vectorINS3_4pairIP19ggml_backend_deviceP24ggml_backend_buffer_typeEENS3_9allocatorISA_EEEESF_SF_SF_RK11LLM_TN_IMPLRKSt16initializer_listIxEiENK3$_1clEP11ggml_tensor.cold.1', symObjAddr: 0x18A24, symBinAddr: 0x291EDC, symSize: 0x1C }
  - { offset: 0x417E30, size: 0x8, addend: 0x0, symName: __ZNSt3__16__treeINS_12__value_typeIP24ggml_backend_buffer_typeNS_10unique_ptrI12ggml_context20ggml_context_deleterEEEENS_19__map_value_compareIS3_NS_4pairIKS3_S7_EEN18llama_model_loader28ggml_backend_buft_comparatorELb1EEENS_9allocatorISC_EEE4findIS3_EENS_15__tree_iteratorIS8_PNS_11__tree_nodeIS8_PvEElEERKT_, symObjAddr: 0x14F54, symBinAddr: 0x78CC0, symSize: 0xA8 }
  - { offset: 0x417FDF, size: 0x8, addend: 0x0, symName: __ZNSt3__16__treeINS_12__value_typeIP24ggml_backend_buffer_typeNS_10unique_ptrI12ggml_context20ggml_context_deleterEEEENS_19__map_value_compareIS3_NS_4pairIKS3_S7_EEN18llama_model_loader28ggml_backend_buft_comparatorELb1EEENS_9allocatorISC_EEE12__find_equalIS3_EERPNS_16__tree_node_baseIPvEERPNS_15__tree_end_nodeISN_EERKT_, symObjAddr: 0x14FFC, symBinAddr: 0x78D68, symSize: 0xB4 }
  - { offset: 0x418188, size: 0x8, addend: 0x0, symName: __ZN18llama_model_loader21create_tensor_as_viewEP12ggml_contextP11ggml_tensorRKNSt3__112basic_stringIcNS4_11char_traitsIcEENS4_9allocatorIcEEEERKSt16initializer_listIxEmb, symObjAddr: 0x679C, symBinAddr: 0x71C20, symSize: 0x288 }
  - { offset: 0x418993, size: 0x8, addend: 0x0, symName: __ZNK18llama_model_loader20done_getting_tensorsEv, symObjAddr: 0x6A24, symBinAddr: 0x71EA8, symSize: 0x158 }
  - { offset: 0x419803, size: 0x8, addend: 0x0, symName: __ZN18llama_model_loader13init_mappingsEbPNSt3__16vectorINS0_10unique_ptrI11llama_mlockNS0_14default_deleteIS3_EEEENS0_9allocatorIS6_EEEE, symObjAddr: 0x6B7C, symBinAddr: 0x72000, symSize: 0x500 }
  - { offset: 0x41AE31, size: 0x8, addend: 0x0, symName: __ZNSt3__16vectorINS_10unique_ptrI10llama_mmapNS_14default_deleteIS2_EEEENS_9allocatorIS5_EEE20__throw_length_errorB9nqe210106Ev, symObjAddr: 0x182BC, symBinAddr: 0x7B968, symSize: 0x14 }
  - { offset: 0x41AE5E, size: 0x8, addend: 0x0, symName: __ZNSt3__16vectorINS_10unique_ptrI11llama_mlockNS_14default_deleteIS2_EEEENS_9allocatorIS5_EEE20__throw_length_errorB9nqe210106Ev, symObjAddr: 0x182E4, symBinAddr: 0x7B97C, symSize: 0x14 }
  - { offset: 0x41AE69, size: 0x8, addend: 0x0, symName: __ZNSt3__16vectorINS_10unique_ptrI11llama_mlockNS_14default_deleteIS2_EEEENS_9allocatorIS5_EEE20__throw_length_errorB9nqe210106Ev, symObjAddr: 0x182E4, symBinAddr: 0x7B97C, symSize: 0x14 }
  - { offset: 0x41AE81, size: 0x8, addend: 0x0, symName: __ZNSt3__16vectorINS_10unique_ptrI10llama_mmapNS_14default_deleteIS2_EEEENS_9allocatorIS5_EEE20__throw_out_of_rangeB9nqe210106Ev, symObjAddr: 0x182F8, symBinAddr: 0x7B990, symSize: 0x14 }
  - { offset: 0x41AE8C, size: 0x8, addend: 0x0, symName: __ZNSt3__110unique_ptrI10llama_mmapNS_14default_deleteIS1_EEED1B9nqe210106Ev, symObjAddr: 0x70B8, symBinAddr: 0x7253C, symSize: 0x3C }
  - { offset: 0x41AF24, size: 0x8, addend: 0x0, symName: __ZNSt3__110unique_ptrI11llama_mlockNS_14default_deleteIS1_EEED1B9nqe210106Ev, symObjAddr: 0x707C, symBinAddr: 0x72500, symSize: 0x3C }
  - { offset: 0x41B0DF, size: 0x8, addend: 0x0, symName: __ZNK18llama_model_loader17get_mapping_rangeEPmS0_PPviP12ggml_context, symObjAddr: 0x70F4, symBinAddr: 0x72578, symSize: 0x134 }
  - { offset: 0x41B374, size: 0x8, addend: 0x0, symName: __ZNK18llama_model_loader13load_data_forEP11ggml_tensor, symObjAddr: 0x7228, symBinAddr: 0x726AC, symSize: 0x21C }
  - { offset: 0x41B37F, size: 0x8, addend: 0x0, symName: __ZNSt3__16vectorINS_10unique_ptrI10llama_mmapNS_14default_deleteIS2_EEEENS_9allocatorIS5_EEE20__throw_out_of_rangeB9nqe210106Ev, symObjAddr: 0x182F8, symBinAddr: 0x7B990, symSize: 0x14 }
  - { offset: 0x41B397, size: 0x8, addend: 0x0, symName: __ZNSt3__16vectorINS_10unique_ptrI10llama_fileNS_14default_deleteIS2_EEEENS_9allocatorIS5_EEE20__throw_out_of_rangeB9nqe210106Ev, symObjAddr: 0x1830C, symBinAddr: 0x7B9A4, symSize: 0x14 }
  - { offset: 0x41B3A2, size: 0x8, addend: 0x0, symName: __ZNK18llama_model_loader13load_data_forEP11ggml_tensor, symObjAddr: 0x7228, symBinAddr: 0x726AC, symSize: 0x21C }
  - { offset: 0x41DFE1, size: 0x8, addend: 0x0, symName: __ZNSt3__113__assoc_stateINS_4pairIP11ggml_tensorbEEE4moveEv, symObjAddr: 0x18944, symBinAddr: 0x7BFDC, symSize: 0xCC }
  - { offset: 0x41E20A, size: 0x8, addend: 0x0, symName: __ZNSt3__16vectorINS_10unique_ptrI10llama_fileNS_14default_deleteIS2_EEEENS_9allocatorIS5_EEE20__throw_out_of_rangeB9nqe210106Ev, symObjAddr: 0x1830C, symBinAddr: 0x7B9A4, symSize: 0x14 }
  - { offset: 0x41E222, size: 0x8, addend: 0x0, symName: '__ZNSt3__119__async_assoc_stateINS_4pairIP11ggml_tensorbEENS_12__async_funcIZN18llama_model_loader13load_all_dataEP12ggml_contextRNS_13unordered_mapIjP19ggml_backend_bufferNS_4hashIjEENS_8equal_toIjEENS_9allocatorINS1_IKjSB_EEEEEEPNS_6vectorINS_10unique_ptrI11llama_mlockNS_14default_deleteISO_EEEENSG_ISR_EEEEPFbfPvESV_E3$_1JEEEED1Ev', symObjAddr: 0x18320, symBinAddr: 0x7B9B8, symSize: 0x4C }
  - { offset: 0x41E22D, size: 0x8, addend: 0x0, symName: __ZNSt3__16vectorINS_4pairImmEENS_9allocatorIS2_EEE20__throw_out_of_rangeB9nqe210106Ev, symObjAddr: 0x18A10, symBinAddr: 0x7C0A8, symSize: 0x14 }
  - { offset: 0x41E245, size: 0x8, addend: 0x0, symName: '__ZZN18llama_model_loader13create_tensorERK13llama_hparamsPKNSt3__16vectorINS3_4pairIP19ggml_backend_deviceP24ggml_backend_buffer_typeEENS3_9allocatorISA_EEEESF_SF_SF_RK11LLM_TN_IMPLRKSt16initializer_listIxEiENK3$_1clEP11ggml_tensor.cold.1', symObjAddr: 0x18A24, symBinAddr: 0x291EDC, symSize: 0x1C }
  - { offset: 0x41E250, size: 0x8, addend: 0x0, symName: __ZNSt3__16vectorINS_6futureINS_4pairIP11ggml_tensorbEEEENS_9allocatorIS6_EEE20__throw_length_errorB9nqe210106Ev, symObjAddr: 0x18660, symBinAddr: 0x7BCF8, symSize: 0x14 }
  - { offset: 0x41E268, size: 0x8, addend: 0x0, symName: __ZNSt3__16vectorINS_10unique_ptrI11llama_mlockNS_14default_deleteIS2_EEEENS_9allocatorIS5_EEE20__throw_out_of_rangeB9nqe210106Ev, symObjAddr: 0x18674, symBinAddr: 0x7BD0C, symSize: 0x14 }
  - { offset: 0x41E273, size: 0x8, addend: 0x0, symName: __ZNSt3__16vectorINS_10unique_ptrI11llama_mlockNS_14default_deleteIS2_EEEENS_9allocatorIS5_EEE20__throw_out_of_rangeB9nqe210106Ev, symObjAddr: 0x18674, symBinAddr: 0x7BD0C, symSize: 0x14 }
  - { offset: 0x41E28B, size: 0x8, addend: 0x0, symName: '__ZNSt3__119__async_assoc_stateINS_4pairIP11ggml_tensorbEENS_12__async_funcIZN18llama_model_loader13load_all_dataEP12ggml_contextRNS_13unordered_mapIjP19ggml_backend_bufferNS_4hashIjEENS_8equal_toIjEENS_9allocatorINS1_IKjSB_EEEEEEPNS_6vectorINS_10unique_ptrI11llama_mlockNS_14default_deleteISO_EEEENSG_ISR_EEEEPFbfPvESV_E3$_2JEEEED1Ev', symObjAddr: 0x18688, symBinAddr: 0x7BD20, symSize: 0x4C }
  - { offset: 0x41E296, size: 0x8, addend: 0x0, symName: __ZNSt3__16vectorI7no_initIhENS_9allocatorIS2_EEE20__throw_length_errorB9nqe210106Ev, symObjAddr: 0x18930, symBinAddr: 0x7BFC8, symSize: 0x14 }
  - { offset: 0x41E2AE, size: 0x8, addend: 0x0, symName: __ZNSt3__113__assoc_stateINS_4pairIP11ggml_tensorbEEE4moveEv, symObjAddr: 0x18944, symBinAddr: 0x7BFDC, symSize: 0xCC }
  - { offset: 0x41E2B9, size: 0x8, addend: 0x0, symName: __ZNSt3__16vectorIP19ggml_backend_bufferNS_9allocatorIS2_EEE20__throw_length_errorB9nqe210106Ev, symObjAddr: 0x15284, symBinAddr: 0x78E1C, symSize: 0x14 }
  - { offset: 0x41E2D1, size: 0x8, addend: 0x0, symName: __ZNSt3__16vectorIPvNS_9allocatorIS1_EEE20__throw_length_errorB9nqe210106Ev, symObjAddr: 0x15298, symBinAddr: 0x78E30, symSize: 0x14 }
  - { offset: 0x41E2DC, size: 0x8, addend: 0x0, symName: __ZNSt3__16vectorIPvNS_9allocatorIS1_EEE20__throw_length_errorB9nqe210106Ev, symObjAddr: 0x15298, symBinAddr: 0x78E30, symSize: 0x14 }
  - { offset: 0x41E2F4, size: 0x8, addend: 0x0, symName: __ZNSt3__16vectorIP18ggml_backend_eventNS_9allocatorIS2_EEE20__throw_length_errorB9nqe210106Ev, symObjAddr: 0x152AC, symBinAddr: 0x78E44, symSize: 0x14 }
  - { offset: 0x41E2FF, size: 0x8, addend: 0x0, symName: __ZNSt3__16vectorIP18ggml_backend_eventNS_9allocatorIS2_EEE20__throw_length_errorB9nqe210106Ev, symObjAddr: 0x152AC, symBinAddr: 0x78E44, symSize: 0x14 }
  - { offset: 0x41E317, size: 0x8, addend: 0x0, symName: __ZN8GGUFMeta3GKVINS_9ArrayInfoEE6get_kvEPK12gguf_contexti, symObjAddr: 0x152C0, symBinAddr: 0x78E58, symSize: 0x150 }
  - { offset: 0x41E322, size: 0x8, addend: 0x0, symName: '__ZNSt3__110unique_ptrINS_5tupleIJNS0_INS_15__thread_structENS_14default_deleteIS2_EEEEMNS_19__async_assoc_stateINS_4pairIP11ggml_tensorbEENS_12__async_funcIZN18llama_model_loader13load_all_dataEP12ggml_contextRNS_13unordered_mapIjP19ggml_backend_bufferNS_4hashIjEENS_8equal_toIjEENS_9allocatorINS7_IKjSH_EEEEEEPNS_6vectorINS0_I11llama_mlockNS3_IST_EEEENSM_ISV_EEEEPFbfPvESZ_E3$_2JEEEEEFvvEPS14_EEENS3_IS18_EEED1B9nqe210106Ev', symObjAddr: 0x188E8, symBinAddr: 0x7BF80, symSize: 0x48 }
  - { offset: 0x41E4CA, size: 0x8, addend: 0x0, symName: __ZNSt3__110unique_ptrINS_15__thread_structENS_14default_deleteIS1_EEED1B9nqe210106Ev, symObjAddr: 0x18624, symBinAddr: 0x7BCBC, symSize: 0x3C }
  - { offset: 0x41E562, size: 0x8, addend: 0x0, symName: '__ZNSt3__110unique_ptrINS_5tupleIJNS0_INS_15__thread_structENS_14default_deleteIS2_EEEEMNS_19__async_assoc_stateINS_4pairIP11ggml_tensorbEENS_12__async_funcIZN18llama_model_loader13load_all_dataEP12ggml_contextRNS_13unordered_mapIjP19ggml_backend_bufferNS_4hashIjEENS_8equal_toIjEENS_9allocatorINS7_IKjSH_EEEEEEPNS_6vectorINS0_I11llama_mlockNS3_IST_EEEENSM_ISV_EEEEPFbfPvESZ_E3$_1JEEEEEFvvEPS14_EEENS3_IS18_EEED1B9nqe210106Ev', symObjAddr: 0x185DC, symBinAddr: 0x7BC74, symSize: 0x48 }
  - { offset: 0x41E70A, size: 0x8, addend: 0x0, symName: __ZNSt3__16vectorINS_6futureINS_4pairIP11ggml_tensorbEEEENS_9allocatorIS6_EEED1B9nqe210106Ev, symObjAddr: 0x9004, symBinAddr: 0x74488, symSize: 0x88 }
  - { offset: 0x41E8F5, size: 0x8, addend: 0x0, symName: __ZNK18llama_model_loader10ftype_nameEv, symObjAddr: 0x908C, symBinAddr: 0x74510, symSize: 0xC }
  - { offset: 0x41E935, size: 0x8, addend: 0x0, symName: __ZL22llama_model_ftype_name11llama_ftype, symObjAddr: 0x9098, symBinAddr: 0x7451C, symSize: 0x41C }
  - { offset: 0x41EDA3, size: 0x8, addend: 0x0, symName: __ZNK18llama_model_loader10print_infoEv, symObjAddr: 0x94B4, symBinAddr: 0x74938, symSize: 0x150 }
  - { offset: 0x41F93B, size: 0x8, addend: 0x0, symName: __ZNSt3__111basic_regexIcNS_12regex_traitsIcEEE7__parseIPKcEET_S7_S7_, symObjAddr: 0xA1D4, symBinAddr: 0x75444, symSize: 0x348 }
  - { offset: 0x420843, size: 0x8, addend: 0x0, symName: __ZNSt3__111basic_regexIcNS_12regex_traitsIcEEE13__parse_egrepIPKcEET_S7_S7_, symObjAddr: 0xAB50, symBinAddr: 0x75D74, symSize: 0x1A0 }
  - { offset: 0x420D92, size: 0x8, addend: 0x0, symName: __ZNSt3__111basic_regexIcNS_12regex_traitsIcEEE24__parse_extended_reg_expIPKcEET_S7_S7_, symObjAddr: 0xA854, symBinAddr: 0x75A78, symSize: 0x15C }
  - { offset: 0x4210B2, size: 0x8, addend: 0x0, symName: __ZNSt3__111basic_regexIcNS_12regex_traitsIcEEE12__parse_grepIPKcEET_S7_S7_, symObjAddr: 0xA9B0, symBinAddr: 0x75BD4, symSize: 0x1A0 }
  - { offset: 0x4210C6, size: 0x8, addend: 0x0, symName: __ZNSt3__111basic_regexIcNS_12regex_traitsIcEEE21__parse_basic_reg_expIPKcEET_S7_S7_, symObjAddr: 0xA6F4, symBinAddr: 0x75918, symSize: 0x160 }
  - { offset: 0x42142A, size: 0x8, addend: 0x0, symName: __ZNSt3__111basic_regexIcNS_12regex_traitsIcEEE24__parse_extended_reg_expIPKcEET_S7_S7_, symObjAddr: 0xA854, symBinAddr: 0x75A78, symSize: 0x15C }
  - { offset: 0x42143E, size: 0x8, addend: 0x0, symName: __ZNSt3__111basic_regexIcNS_12regex_traitsIcEEE12__parse_grepIPKcEET_S7_S7_, symObjAddr: 0xA9B0, symBinAddr: 0x75BD4, symSize: 0x1A0 }
  - { offset: 0x42198D, size: 0x8, addend: 0x0, symName: __ZNSt3__111basic_regexIcNS_12regex_traitsIcEEE19__parse_alternativeIPKcEET_S7_S7_, symObjAddr: 0xAF30, symBinAddr: 0x75F14, symSize: 0xA0 }
  - { offset: 0x421ADA, size: 0x8, addend: 0x0, symName: __ZNSt3__111basic_regexIcNS_12regex_traitsIcEEE16__parse_ecma_expIPKcEET_S7_S7_, symObjAddr: 0xA568, symBinAddr: 0x7578C, symSize: 0x18C }
  - { offset: 0x421EF2, size: 0x8, addend: 0x0, symName: __ZNSt3__111basic_regexIcNS_12regex_traitsIcEEE12__parse_termIPKcEET_S7_S7_, symObjAddr: 0xAFD0, symBinAddr: 0x75FB4, symSize: 0x94 }
  - { offset: 0x42216B, size: 0x8, addend: 0x0, symName: __ZNSt3__111basic_regexIcNS_12regex_traitsIcEEE18__parse_nondupl_REIPKcEET_S7_S7_, symObjAddr: 0x11FD8, symBinAddr: 0x78368, symSize: 0x2F8 }
  - { offset: 0x42280E, size: 0x8, addend: 0x0, symName: __ZNSt3__111basic_regexIcNS_12regex_traitsIcEEE22__parse_RE_dupl_symbolIPKcEET_S7_S7_PNS_16__owns_one_stateIcEEjj, symObjAddr: 0x122D0, symBinAddr: 0x78660, symSize: 0x27C }
  - { offset: 0x422822, size: 0x8, addend: 0x0, symName: __ZNSt3__111basic_regexIcNS_12regex_traitsIcEEE22__parse_RE_dupl_symbolIPKcEET_S7_S7_PNS_16__owns_one_stateIcEEjj, symObjAddr: 0x122D0, symBinAddr: 0x78660, symSize: 0x27C }
  - { offset: 0x422DE7, size: 0x8, addend: 0x0, symName: __ZNSt3__111basic_regexIcNS_12regex_traitsIcEEE22__parse_ERE_expressionIPKcEET_S7_S7_, symObjAddr: 0x12678, symBinAddr: 0x788DC, symSize: 0x268 }
  - { offset: 0x423290, size: 0x8, addend: 0x0, symName: __ZNSt3__111basic_regexIcNS_12regex_traitsIcEEE20__parse_ORD_CHAR_EREIPKcEET_S7_S7_, symObjAddr: 0x128E0, symBinAddr: 0x78B44, symSize: 0x94 }
  - { offset: 0x423324, size: 0x8, addend: 0x0, symName: __ZNSt3__111basic_regexIcNS_12regex_traitsIcEEE23__parse_ERE_dupl_symbolIPKcEET_S7_S7_PNS_16__owns_one_stateIcEEjj, symObjAddr: 0xB5F8, symBinAddr: 0x765DC, symSize: 0x3E4 }
  - { offset: 0x4238CB, size: 0x8, addend: 0x0, symName: __ZNSt3__111basic_regexIcNS_12regex_traitsIcEEE17__parse_assertionIPKcEET_S7_S7_, symObjAddr: 0xB064, symBinAddr: 0x76048, symSize: 0x364 }
  - { offset: 0x423EE1, size: 0x8, addend: 0x0, symName: __ZNSt3__111basic_regexIcNS_12regex_traitsIcEEE12__parse_atomIPKcEET_S7_S7_, symObjAddr: 0xB3C8, symBinAddr: 0x763AC, symSize: 0x230 }
  - { offset: 0x424240, size: 0x8, addend: 0x0, symName: __ZNSt3__111basic_regexIcNS_12regex_traitsIcEEE23__parse_ERE_dupl_symbolIPKcEET_S7_S7_PNS_16__owns_one_stateIcEEjj, symObjAddr: 0xB5F8, symBinAddr: 0x765DC, symSize: 0x3E4 }
  - { offset: 0x424667, size: 0x8, addend: 0x0, symName: __ZNSt3__111basic_regexIcNS_12regex_traitsIcEEE26__parse_bracket_expressionIPKcEET_S7_S7_, symObjAddr: 0xD27C, symBinAddr: 0x76B40, symSize: 0x160 }
  - { offset: 0x42483F, size: 0x8, addend: 0x0, symName: __ZNSt3__111basic_regexIcNS_12regex_traitsIcEEE19__parse_atom_escapeIPKcEET_S7_S7_, symObjAddr: 0xD0FC, symBinAddr: 0x769C0, symSize: 0x180 }
  - { offset: 0x4249D0, size: 0x8, addend: 0x0, symName: __ZNSt3__111basic_regexIcNS_12regex_traitsIcEEE26__parse_bracket_expressionIPKcEET_S7_S7_, symObjAddr: 0xD27C, symBinAddr: 0x76B40, symSize: 0x160 }
  - { offset: 0x4249E4, size: 0x8, addend: 0x0, symName: __ZNSt3__111basic_regexIcNS_12regex_traitsIcEEE25__parse_pattern_characterIPKcEET_S7_S7_, symObjAddr: 0xD428, symBinAddr: 0x76CA0, symSize: 0x7C }
  - { offset: 0x428D2C, size: 0x8, addend: 0x0, symName: __ZNSt3__111basic_regexIcNS_12regex_traitsIcEEE30__parse_character_class_escapeIPKcEET_S7_S7_, symObjAddr: 0xD580, symBinAddr: 0x76D1C, symSize: 0x25C }
  - { offset: 0x429187, size: 0x8, addend: 0x0, symName: __ZNSt3__111basic_regexIcNS_12regex_traitsIcEEE24__parse_character_escapeIPKcEET_S7_S7_PNS_12basic_stringIcNS_11char_traitsIcEENS_9allocatorIcEEEE, symObjAddr: 0xD7DC, symBinAddr: 0x76F78, symSize: 0x404 }
  - { offset: 0x429C4B, size: 0x8, addend: 0x0, symName: __ZNSt3__111basic_regexIcNS_12regex_traitsIcEEE23__parse_expression_termIPKcEET_S7_S7_PNS_20__bracket_expressionIcS2_EE, symObjAddr: 0xF8D4, symBinAddr: 0x7737C, symSize: 0x50C }
  - { offset: 0x42BCF1, size: 0x8, addend: 0x0, symName: __ZNSt3__111basic_regexIcNS_12regex_traitsIcEEE25__parse_equivalence_classIPKcEET_S7_S7_PNS_20__bracket_expressionIcS2_EE, symObjAddr: 0xFDE0, symBinAddr: 0x77888, symSize: 0x258 }
  - { offset: 0x42C6FB, size: 0x8, addend: 0x0, symName: __ZNSt3__111basic_regexIcNS_12regex_traitsIcEEE18__parse_awk_escapeIPKcEET_S7_S7_PNS_12basic_stringIcNS_11char_traitsIcEENS_9allocatorIcEEEE, symObjAddr: 0x1028C, symBinAddr: 0x77D34, symSize: 0x2A0 }
  - { offset: 0x42C820, size: 0x8, addend: 0x0, symName: __ZNSt3__111basic_regexIcNS_12regex_traitsIcEEE24__parse_collating_symbolIPKcEET_S7_S7_RNS_12basic_stringIcNS_11char_traitsIcEENS_9allocatorIcEEEE, symObjAddr: 0x10038, symBinAddr: 0x77AE0, symSize: 0xD0 }
  - { offset: 0x42CB80, size: 0x8, addend: 0x0, symName: __ZNSt3__111basic_regexIcNS_12regex_traitsIcEEE20__parse_class_escapeIPKcEET_S7_S7_RNS_12basic_stringIcNS_11char_traitsIcEENS_9allocatorIcEEEEPNS_20__bracket_expressionIcS2_EE, symObjAddr: 0x10108, symBinAddr: 0x77BB0, symSize: 0x184 }
  - { offset: 0x42CB8B, size: 0x8, addend: 0x0, symName: __ZNKSt3__112regex_traitsIcE20__lookup_collatenameIPKcEENS_12basic_stringIcNS_11char_traitsIcEENS_9allocatorIcEEEET_SB_c, symObjAddr: 0x10B70, symBinAddr: 0x77FD4, symSize: 0x244 }
  - { offset: 0x42D5DE, size: 0x8, addend: 0x0, symName: __ZNKSt3__112regex_traitsIcE18__lookup_classnameIPKcEEjT_S5_bc, symObjAddr: 0x110DC, symBinAddr: 0x78218, symSize: 0x150 }
  - { offset: 0x42E098, size: 0x8, addend: 0x0, symName: __ZNSt3__111basic_regexIcNS_12regex_traitsIcEEE20__parse_class_escapeIPKcEET_S7_S7_RNS_12basic_stringIcNS_11char_traitsIcEENS_9allocatorIcEEEEPNS_20__bracket_expressionIcS2_EE, symObjAddr: 0x10108, symBinAddr: 0x77BB0, symSize: 0x184 }
  - { offset: 0x42E230, size: 0x8, addend: 0x0, symName: __ZNSt3__111basic_regexIcNS_12regex_traitsIcEEE18__parse_awk_escapeIPKcEET_S7_S7_PNS_12basic_stringIcNS_11char_traitsIcEENS_9allocatorIcEEEE, symObjAddr: 0x1028C, symBinAddr: 0x77D34, symSize: 0x2A0 }
  - { offset: 0x430B6B, size: 0x8, addend: 0x0, symName: __ZNSt3__111basic_regexIcNS_12regex_traitsIcEEE22__parse_ERE_expressionIPKcEET_S7_S7_, symObjAddr: 0x12678, symBinAddr: 0x788DC, symSize: 0x268 }
  - { offset: 0x430BB9, size: 0x8, addend: 0x0, symName: __ZNSt3__111basic_regexIcNS_12regex_traitsIcEEE20__parse_ORD_CHAR_EREIPKcEET_S7_S7_, symObjAddr: 0x128E0, symBinAddr: 0x78B44, symSize: 0x94 }
  - { offset: 0x430C17, size: 0x8, addend: 0x0, symName: __ZNSt3__111basic_regexIcNS_12regex_traitsIcEEE23__parse_QUOTED_CHAR_EREIPKcEET_S7_S7_, symObjAddr: 0x12974, symBinAddr: 0x78BD8, symSize: 0xD8 }
  - { offset: 0x437545, size: 0x8, addend: 0x0, symName: __ZNSt3__112__hash_tableINS_17__hash_value_typeINS_12basic_stringIcNS_11char_traitsIcEENS_9allocatorIcEEEE23llama_model_kv_overrideEENS_22__unordered_map_hasherIS7_NS_4pairIKS7_S8_EENS_4hashIS7_EENS_8equal_toIS7_EELb1EEENS_21__unordered_map_equalIS7_SD_SH_SF_Lb1EEENS5_ISD_EEE11__do_rehashILb1EEEvm, symObjAddr: 0x17784, symBinAddr: 0x7AE44, symSize: 0x18C }
  - { offset: 0x43787C, size: 0x8, addend: 0x0, symName: __ZNSt3__16vectorINS_10unique_ptrI10llama_fileNS_14default_deleteIS2_EEEENS_9allocatorIS5_EEE20__throw_length_errorB9nqe210106Ev, symObjAddr: 0x17910, symBinAddr: 0x7AFD0, symSize: 0x14 }
  - { offset: 0x437891, size: 0x8, addend: 0x0, symName: __ZNSt3__110unique_ptrINS_11__hash_nodeINS_17__hash_value_typeINS_12basic_stringIcNS_11char_traitsIcEENS_9allocatorIcEEEE23llama_model_kv_overrideEEPvEENS_22__hash_node_destructorINS6_ISC_EEEEED1B9nqe210106Ev, symObjAddr: 0x17724, symBinAddr: 0x7ADE4, symSize: 0x60 }
  - { offset: 0x437DAE, size: 0x8, addend: 0x0, symName: '__ZNSt3__119__async_assoc_stateINS_4pairIP11ggml_tensorbEENS_12__async_funcIZN18llama_model_loader13load_all_dataEP12ggml_contextRNS_13unordered_mapIjP19ggml_backend_bufferNS_4hashIjEENS_8equal_toIjEENS_9allocatorINS1_IKjSB_EEEEEEPNS_6vectorINS_10unique_ptrI11llama_mlockNS_14default_deleteISO_EEEENSG_ISR_EEEEPFbfPvESV_E3$_1JEEEED1Ev', symObjAddr: 0x18320, symBinAddr: 0x7B9B8, symSize: 0x4C }
  - { offset: 0x437E4E, size: 0x8, addend: 0x0, symName: '__ZNSt3__119__async_assoc_stateINS_4pairIP11ggml_tensorbEENS_12__async_funcIZN18llama_model_loader13load_all_dataEP12ggml_contextRNS_13unordered_mapIjP19ggml_backend_bufferNS_4hashIjEENS_8equal_toIjEENS_9allocatorINS1_IKjSB_EEEEEEPNS_6vectorINS_10unique_ptrI11llama_mlockNS_14default_deleteISO_EEEENSG_ISR_EEEEPFbfPvESV_E3$_1JEEEED0Ev', symObjAddr: 0x1836C, symBinAddr: 0x7BA04, symSize: 0x50 }
  - { offset: 0x437F08, size: 0x8, addend: 0x0, symName: '__ZNSt3__119__async_assoc_stateINS_4pairIP11ggml_tensorbEENS_12__async_funcIZN18llama_model_loader13load_all_dataEP12ggml_contextRNS_13unordered_mapIjP19ggml_backend_bufferNS_4hashIjEENS_8equal_toIjEENS_9allocatorINS1_IKjSB_EEEEEEPNS_6vectorINS_10unique_ptrI11llama_mlockNS_14default_deleteISO_EEEENSG_ISR_EEEEPFbfPvESV_E3$_1JEEEE16__on_zero_sharedEv', symObjAddr: 0x183BC, symBinAddr: 0x7BA54, symSize: 0x30 }
  - { offset: 0x43817C, size: 0x8, addend: 0x0, symName: '__ZNSt3__119__async_assoc_stateINS_4pairIP11ggml_tensorbEENS_12__async_funcIZN18llama_model_loader13load_all_dataEP12ggml_contextRNS_13unordered_mapIjP19ggml_backend_bufferNS_4hashIjEENS_8equal_toIjEENS_9allocatorINS1_IKjSB_EEEEEEPNS_6vectorINS_10unique_ptrI11llama_mlockNS_14default_deleteISO_EEEENSG_ISR_EEEEPFbfPvESV_E3$_1JEEEE9__executeEv', symObjAddr: 0x183EC, symBinAddr: 0x7BA84, symSize: 0x108 }
  - { offset: 0x438665, size: 0x8, addend: 0x0, symName: '__ZNSt3__119__async_assoc_stateINS_4pairIP11ggml_tensorbEENS_12__async_funcIZN18llama_model_loader13load_all_dataEP12ggml_contextRNS_13unordered_mapIjP19ggml_backend_bufferNS_4hashIjEENS_8equal_toIjEENS_9allocatorINS1_IKjSB_EEEEEEPNS_6vectorINS_10unique_ptrI11llama_mlockNS_14default_deleteISO_EEEENSG_ISR_EEEEPFbfPvESV_E3$_2JEEEED1Ev', symObjAddr: 0x18688, symBinAddr: 0x7BD20, symSize: 0x4C }
  - { offset: 0x438705, size: 0x8, addend: 0x0, symName: '__ZNSt3__119__async_assoc_stateINS_4pairIP11ggml_tensorbEENS_12__async_funcIZN18llama_model_loader13load_all_dataEP12ggml_contextRNS_13unordered_mapIjP19ggml_backend_bufferNS_4hashIjEENS_8equal_toIjEENS_9allocatorINS1_IKjSB_EEEEEEPNS_6vectorINS_10unique_ptrI11llama_mlockNS_14default_deleteISO_EEEENSG_ISR_EEEEPFbfPvESV_E3$_2JEEEED0Ev', symObjAddr: 0x186D4, symBinAddr: 0x7BD6C, symSize: 0x50 }
  - { offset: 0x4387A7, size: 0x8, addend: 0x0, symName: '__ZNSt3__119__async_assoc_stateINS_4pairIP11ggml_tensorbEENS_12__async_funcIZN18llama_model_loader13load_all_dataEP12ggml_contextRNS_13unordered_mapIjP19ggml_backend_bufferNS_4hashIjEENS_8equal_toIjEENS_9allocatorINS1_IKjSB_EEEEEEPNS_6vectorINS_10unique_ptrI11llama_mlockNS_14default_deleteISO_EEEENSG_ISR_EEEEPFbfPvESV_E3$_2JEEEE16__on_zero_sharedEv', symObjAddr: 0x18724, symBinAddr: 0x7BDBC, symSize: 0x30 }
  - { offset: 0x438859, size: 0x8, addend: 0x0, symName: '__ZNSt3__119__async_assoc_stateINS_4pairIP11ggml_tensorbEENS_12__async_funcIZN18llama_model_loader13load_all_dataEP12ggml_contextRNS_13unordered_mapIjP19ggml_backend_bufferNS_4hashIjEENS_8equal_toIjEENS_9allocatorINS1_IKjSB_EEEEEEPNS_6vectorINS_10unique_ptrI11llama_mlockNS_14default_deleteISO_EEEENSG_ISR_EEEEPFbfPvESV_E3$_2JEEEE9__executeEv', symObjAddr: 0x18754, symBinAddr: 0x7BDEC, symSize: 0x108 }
  - { offset: 0x450C9E, size: 0x8, addend: 0x0, symName: __Z31llama_model_saver_supports_arch8llm_arch, symObjAddr: 0x0, symBinAddr: 0x7C0BC, symSize: 0x34 }
  - { offset: 0x453C93, size: 0x8, addend: 0x0, symName: __ZN17llama_model_saverC2EPK11llama_model, symObjAddr: 0x34, symBinAddr: 0x7C0F0, symSize: 0x80 }
  - { offset: 0x453CDC, size: 0x8, addend: 0x0, symName: __ZN17llama_model_saverC1EPK11llama_model, symObjAddr: 0xB4, symBinAddr: 0x7C170, symSize: 0x80 }
  - { offset: 0x453D41, size: 0x8, addend: 0x0, symName: __ZN17llama_model_saverC1EPK11llama_model, symObjAddr: 0xB4, symBinAddr: 0x7C170, symSize: 0x80 }
  - { offset: 0x453DBB, size: 0x8, addend: 0x0, symName: __ZN17llama_model_saverC2E8llm_archP12gguf_context, symObjAddr: 0x134, symBinAddr: 0x7C1F0, symSize: 0x60 }
  - { offset: 0x453DCD, size: 0x8, addend: 0x0, symName: __ZN17llama_model_saverC2E8llm_archP12gguf_context, symObjAddr: 0x134, symBinAddr: 0x7C1F0, symSize: 0x60 }
  - { offset: 0x453E41, size: 0x8, addend: 0x0, symName: __ZN17llama_model_saverC1E8llm_archP12gguf_context, symObjAddr: 0x194, symBinAddr: 0x7C250, symSize: 0x60 }
  - { offset: 0x453EC6, size: 0x8, addend: 0x0, symName: __ZN17llama_model_saverD2Ev, symObjAddr: 0x1F4, symBinAddr: 0x7C2B0, symSize: 0x3C }
  - { offset: 0x453F24, size: 0x8, addend: 0x0, symName: __ZN17llama_model_saverD1Ev, symObjAddr: 0x240, symBinAddr: 0x7C2EC, symSize: 0x3C }
  - { offset: 0x454088, size: 0x8, addend: 0x0, symName: __ZN17llama_model_saver6add_kvE6llm_kvj, symObjAddr: 0x27C, symBinAddr: 0x7C328, symSize: 0x98 }
  - { offset: 0x45432E, size: 0x8, addend: 0x0, symName: __ZN17llama_model_saver6add_kvE6llm_kvi, symObjAddr: 0x314, symBinAddr: 0x7C3C0, symSize: 0x98 }
  - { offset: 0x4545D4, size: 0x8, addend: 0x0, symName: __ZN17llama_model_saver6add_kvE6llm_kvf, symObjAddr: 0x3AC, symBinAddr: 0x7C458, symSize: 0x98 }
  - { offset: 0x454874, size: 0x8, addend: 0x0, symName: __ZN17llama_model_saver6add_kvE6llm_kvb, symObjAddr: 0x444, symBinAddr: 0x7C4F0, symSize: 0x98 }
  - { offset: 0x454B1A, size: 0x8, addend: 0x0, symName: __ZN17llama_model_saver6add_kvE6llm_kvPKc, symObjAddr: 0x4DC, symBinAddr: 0x7C588, symSize: 0x98 }
  - { offset: 0x454DD3, size: 0x8, addend: 0x0, symName: __ZN17llama_model_saver6add_kvE6llm_kvc, symObjAddr: 0x574, symBinAddr: 0x7C620, symSize: 0x20 }
  - { offset: 0x454E10, size: 0x8, addend: 0x0, symName: __ZN17llama_model_saver6add_kvINSt3__16vectorIjNS1_9allocatorIjEEEEEEv6llm_kvRKT_b, symObjAddr: 0x594, symBinAddr: 0x7C640, symSize: 0x178 }
  - { offset: 0x454E87, size: 0x8, addend: 0x0, symName: __ZN17llama_model_saver6add_kvINSt3__16vectorIjNS1_9allocatorIjEEEEEEv6llm_kvRKT_b, symObjAddr: 0x594, symBinAddr: 0x7C640, symSize: 0x178 }
  - { offset: 0x455411, size: 0x8, addend: 0x0, symName: __ZN17llama_model_saver6add_kvE6llm_kvRKNSt3__16vectorINS1_12basic_stringIcNS1_11char_traitsIcEENS1_9allocatorIcEEEENS6_IS8_EEEE, symObjAddr: 0x70C, symBinAddr: 0x7C7B8, symSize: 0x154 }
  - { offset: 0x455A7D, size: 0x8, addend: 0x0, symName: __ZNSt3__16vectorIPKcNS_9allocatorIS2_EEE20__throw_length_errorB9nqe210106Ev, symObjAddr: 0x4018, symBinAddr: 0x80054, symSize: 0x14 }
  - { offset: 0x455D17, size: 0x8, addend: 0x0, symName: __ZN17llama_model_saver10add_tensorEPK11ggml_tensor, symObjAddr: 0x860, symBinAddr: 0x7C90C, symSize: 0x28C }
  - { offset: 0x4570FC, size: 0x8, addend: 0x0, symName: __ZN17llama_model_saver17add_kv_from_modelEv, symObjAddr: 0xAEC, symBinAddr: 0x7CB98, symSize: 0x2EB8 }
  - { offset: 0x466D14, size: 0x8, addend: 0x0, symName: __ZN17llama_model_saver6add_kvINSt3__112basic_stringIcNS1_11char_traitsIcEENS1_9allocatorIcEEEEEEv6llm_kvRKT_b, symObjAddr: 0x39A4, symBinAddr: 0x7FA50, symSize: 0x170 }
  - { offset: 0x467124, size: 0x8, addend: 0x0, symName: __ZN17llama_model_saver6add_kvINSt3__15arrayIjLm512EEEEEv6llm_kvRKT_b, symObjAddr: 0x3B14, symBinAddr: 0x7FBC0, symSize: 0x168 }
  - { offset: 0x46768D, size: 0x8, addend: 0x0, symName: __ZN17llama_model_saver22add_tensors_from_modelEv, symObjAddr: 0x3CEC, symBinAddr: 0x7FD28, symSize: 0x304 }
  - { offset: 0x468106, size: 0x8, addend: 0x0, symName: __ZN17llama_model_saver4saveERKNSt3__112basic_stringIcNS0_11char_traitsIcEENS0_9allocatorIcEEEE, symObjAddr: 0x3FF0, symBinAddr: 0x8002C, symSize: 0x1C }
  - { offset: 0x4681E4, size: 0x8, addend: 0x0, symName: __ZN17llama_model_saver4saveEP7__sFILE, symObjAddr: 0x400C, symBinAddr: 0x80048, symSize: 0xC }
  - { offset: 0x46A029, size: 0x8, addend: 0x0, symName: __ZL24LLAMA_ROPE_SCALING_TYPES, symObjAddr: 0x656B78, symBinAddr: 0x3AFE70, symSize: 0x0 }
  - { offset: 0x4C17C2, size: 0x8, addend: 0x0, symName: __ZNSt3__111regex_matchB9nqe210106INS_11__wrap_iterIPKcEEcNS_12regex_traitsIcEEEEbT_S7_RKNS_11basic_regexIT0_T1_EENS_15regex_constants15match_flag_typeE, symObjAddr: 0x61068, symBinAddr: 0xE0F44, symSize: 0x120 }
  - { offset: 0x4C4D5F, size: 0x8, addend: 0x0, symName: __ZNSt3__111make_uniqueB9nqe210106I20llm_build_nemotron_hJRK11llama_modelRK16llm_graph_paramsELi0EEENS_10unique_ptrIT_NS_14default_deleteIS9_EEEEDpOT0_, symObjAddr: 0x5F014, symBinAddr: 0xDEEF0, symSize: 0x5C }
  - { offset: 0x4C4E05, size: 0x8, addend: 0x0, symName: __ZNSt3__111make_uniqueB9nqe210106I14llm_build_phi3ILb1EEJRK11llama_modelRK16llm_graph_paramsELi0EEENS_10unique_ptrIT_NS_14default_deleteISA_EEEEDpOT0_, symObjAddr: 0x5E0A0, symBinAddr: 0xDDF7C, symSize: 0x5C }
  - { offset: 0x4C4EAB, size: 0x8, addend: 0x0, symName: __ZNSt3__111make_uniqueB9nqe210106I15llm_build_mambaJRK11llama_modelRK16llm_graph_paramsELi0EEENS_10unique_ptrIT_NS_14default_deleteIS9_EEEEDpOT0_, symObjAddr: 0x5E774, symBinAddr: 0xDE650, symSize: 0x5C }
  - { offset: 0x4C4F51, size: 0x8, addend: 0x0, symName: __ZNSt3__111make_uniqueB9nqe210106I14llm_build_lfm2ILb1EEJRK11llama_modelRK16llm_graph_paramsELi0EEENS_10unique_ptrIT_NS_14default_deleteISA_EEEEDpOT0_, symObjAddr: 0x5F9C8, symBinAddr: 0xDF8A4, symSize: 0x5C }
  - { offset: 0x4C4FF7, size: 0x8, addend: 0x0, symName: __ZNSt3__111make_uniqueB9nqe210106I18llm_build_ernie4_5JRK11llama_modelRK16llm_graph_paramsELi0EEENS_10unique_ptrIT_NS_14default_deleteIS9_EEEEDpOT0_, symObjAddr: 0x5F6E8, symBinAddr: 0xDF5C4, symSize: 0x5C }
  - { offset: 0x4C509D, size: 0x8, addend: 0x0, symName: __ZNSt3__111make_uniqueB9nqe210106I26llm_build_wavtokenizer_decJRK11llama_modelRK16llm_graph_paramsELi0EEENS_10unique_ptrIT_NS_14default_deleteIS9_EEEEDpOT0_, symObjAddr: 0x5F408, symBinAddr: 0xDF2E4, symSize: 0x5C }
  - { offset: 0x4C5143, size: 0x8, addend: 0x0, symName: __ZNSt3__111make_uniqueB9nqe210106I21llm_build_hunyuan_moeJRK11llama_modelRK16llm_graph_paramsELi0EEENS_10unique_ptrIT_NS_14default_deleteIS9_EEEEDpOT0_, symObjAddr: 0x5F7FC, symBinAddr: 0xDF6D8, symSize: 0x5C }
  - { offset: 0x4C51E9, size: 0x8, addend: 0x0, symName: __ZNSt3__111make_uniqueB9nqe210106I18llm_build_grovemoeJRK11llama_modelRK16llm_graph_paramsELi0EEENS_10unique_ptrIT_NS_14default_deleteIS9_EEEEDpOT0_, symObjAddr: 0x5FB38, symBinAddr: 0xDFA14, symSize: 0x5C }
  - { offset: 0x4C528F, size: 0x8, addend: 0x0, symName: __ZNSt3__111make_uniqueB9nqe210106I19llm_build_chameleonJRK11llama_modelRK16llm_graph_paramsELi0EEENS_10unique_ptrIT_NS_14default_deleteIS9_EEEEDpOT0_, symObjAddr: 0x5F3AC, symBinAddr: 0xDF288, symSize: 0x5C }
  - { offset: 0x4C5335, size: 0x8, addend: 0x0, symName: __ZNSt3__111make_uniqueB9nqe210106I21llm_build_kimi_linearJRK11llama_modelRK16llm_graph_paramsELi0EEENS_10unique_ptrIT_NS_14default_deleteIS9_EEEEDpOT0_, symObjAddr: 0x5FED0, symBinAddr: 0xDFDAC, symSize: 0x5C }
  - { offset: 0x4C53DB, size: 0x8, addend: 0x0, symName: __ZNSt3__111make_uniqueB9nqe210106I18llm_build_seed_ossJRK11llama_modelRK16llm_graph_paramsELi0EEENS_10unique_ptrIT_NS_14default_deleteIS9_EEEEDpOT0_, symObjAddr: 0x5F578, symBinAddr: 0xDF454, symSize: 0x5C }
  - { offset: 0x4C5481, size: 0x8, addend: 0x0, symName: __ZNSt3__111make_uniqueB9nqe210106I15llm_build_rwkv6JRK11llama_modelRK16llm_graph_paramsELi0EEENS_10unique_ptrIT_NS_14default_deleteIS9_EEEEDpOT0_, symObjAddr: 0x5F1E0, symBinAddr: 0xDF0BC, symSize: 0x5C }
  - { offset: 0x4C5527, size: 0x8, addend: 0x0, symName: __ZNSt3__111make_uniqueB9nqe210106I13llm_build_plmJRK11llama_modelRK16llm_graph_paramsELi0EEENS_10unique_ptrIT_NS_14default_deleteIS9_EEEEDpOT0_, symObjAddr: 0x5F464, symBinAddr: 0xDF340, symSize: 0x5C }
  - { offset: 0x4C55CD, size: 0x8, addend: 0x0, symName: __ZNSt3__111make_uniqueB9nqe210106I20llm_build_exaone_moeJRK11llama_modelRK16llm_graph_paramsELi0EEENS_10unique_ptrIT_NS_14default_deleteIS9_EEEEDpOT0_, symObjAddr: 0x5F184, symBinAddr: 0xDF060, symSize: 0x5C }
  - { offset: 0x4C5673, size: 0x8, addend: 0x0, symName: __ZNSt3__111make_uniqueB9nqe210106I22llm_build_smallthinkerILb1EEJRK11llama_modelRK16llm_graph_paramsELi0EEENS_10unique_ptrIT_NS_14default_deleteISA_EEEEDpOT0_, symObjAddr: 0x5FA80, symBinAddr: 0xDF95C, symSize: 0x5C }
  - { offset: 0x4C5719, size: 0x8, addend: 0x0, symName: __ZNSt3__111make_uniqueB9nqe210106I25llm_build_gemma_embeddingJRK11llama_modelRK16llm_graph_paramsELi0EEENS_10unique_ptrIT_NS_14default_deleteIS9_EEEEDpOT0_, symObjAddr: 0x5E6BC, symBinAddr: 0xDE598, symSize: 0x5C }
  - { offset: 0x4C57BF, size: 0x8, addend: 0x0, symName: __ZNSt3__111make_uniqueB9nqe210106I17llm_build_chatglmJRK11llama_modelRK16llm_graph_paramsELi0EEENS_10unique_ptrIT_NS_14default_deleteIS9_EEEEDpOT0_, symObjAddr: 0x5EC7C, symBinAddr: 0xDEB58, symSize: 0x5C }
  - { offset: 0x4C5865, size: 0x8, addend: 0x0, symName: __ZNSt3__111make_uniqueB9nqe210106I15llm_build_llamaILb1EEJRK11llama_modelRK16llm_graph_paramsELi0EEENS_10unique_ptrIT_NS_14default_deleteISA_EEEEDpOT0_, symObjAddr: 0x5D6EC, symBinAddr: 0xDD5C8, symSize: 0x5C }
  - { offset: 0x4C590B, size: 0x8, addend: 0x0, symName: __ZNSt3__111make_uniqueB9nqe210106I15llm_build_afmoeJRK11llama_modelRK16llm_graph_paramsELi0EEENS_10unique_ptrIT_NS_14default_deleteIS9_EEEEDpOT0_, symObjAddr: 0x5F68C, symBinAddr: 0xDF568, symSize: 0x5C }
  - { offset: 0x4C59B1, size: 0x8, addend: 0x0, symName: __ZNSt3__111make_uniqueB9nqe210106I15llm_build_dreamJRK11llama_modelRK16llm_graph_paramsELi0EEENS_10unique_ptrIT_NS_14default_deleteIS9_EEEEDpOT0_, symObjAddr: 0x5DCAC, symBinAddr: 0xDDB88, symSize: 0x5C }
  - { offset: 0x4C5A57, size: 0x8, addend: 0x0, symName: __ZNSt3__111make_uniqueB9nqe210106I15llm_build_jais2JRK11llama_modelRK16llm_graph_paramsELi0EEENS_10unique_ptrIT_NS_14default_deleteIS9_EEEEDpOT0_, symObjAddr: 0x5EF5C, symBinAddr: 0xDEE38, symSize: 0x5C }
  - { offset: 0x4C5AFD, size: 0x8, addend: 0x0, symName: __ZNSt3__111make_uniqueB9nqe210106I21llm_build_bailingmoe2JRK11llama_modelRK16llm_graph_paramsELi0EEENS_10unique_ptrIT_NS_14default_deleteIS9_EEEEDpOT0_, symObjAddr: 0x5F51C, symBinAddr: 0xDF3F8, symSize: 0x5C }
  - { offset: 0x4C5BA3, size: 0x8, addend: 0x0, symName: __ZNSt3__111make_uniqueB9nqe210106I19llm_build_qwen35moeJRK11llama_modelRK16llm_graph_paramsELi0EEENS_10unique_ptrIT_NS_14default_deleteIS9_EEEEDpOT0_, symObjAddr: 0x5FDBC, symBinAddr: 0xDFC98, symSize: 0x5C }
  - { offset: 0x4C5C49, size: 0x8, addend: 0x0, symName: __ZNSt3__111make_uniqueB9nqe210106I16llm_build_gemma3ILb1EEJRK11llama_modelRK16llm_graph_paramsELi0EEENS_10unique_ptrIT_NS_14default_deleteISA_EEEEDpOT0_, symObjAddr: 0x5E54C, symBinAddr: 0xDE428, symSize: 0x5C }
  - { offset: 0x4C5CEF, size: 0x8, addend: 0x0, symName: __ZNSt3__111make_uniqueB9nqe210106I16llm_build_qwen35JRK11llama_modelRK16llm_graph_paramsELi0EEENS_10unique_ptrIT_NS_14default_deleteIS9_EEEEDpOT0_, symObjAddr: 0x5FD60, symBinAddr: 0xDFC3C, symSize: 0x5C }
  - { offset: 0x4C5D95, size: 0x8, addend: 0x0, symName: __ZNSt3__111make_uniqueB9nqe210106I14llm_build_phi2JRK11llama_modelRK16llm_graph_paramsELi0EEENS_10unique_ptrIT_NS_14default_deleteIS9_EEEEDpOT0_, symObjAddr: 0x5E044, symBinAddr: 0xDDF20, symSize: 0x5C }
  - { offset: 0x4C5E3B, size: 0x8, addend: 0x0, symName: __ZNSt3__111make_uniqueB9nqe210106I16llm_build_xverseJRK11llama_modelRK16llm_graph_paramsELi0EEENS_10unique_ptrIT_NS_14default_deleteIS9_EEEEDpOT0_, symObjAddr: 0x5E82C, symBinAddr: 0xDE708, symSize: 0x5C }
  - { offset: 0x4C5EE1, size: 0x8, addend: 0x0, symName: __ZNSt3__111make_uniqueB9nqe210106I25llm_build_openai_moe_iswaJRK11llama_modelRK16llm_graph_paramsELi0EEENS_10unique_ptrIT_NS_14default_deleteIS9_EEEEDpOT0_, symObjAddr: 0x5F910, symBinAddr: 0xDF7EC, symSize: 0x5C }
  - { offset: 0x4C5F87, size: 0x8, addend: 0x0, symName: __ZNSt3__111make_uniqueB9nqe210106I24llm_build_granite_hybridJRK11llama_modelRK16llm_graph_paramsELi0EEENS_10unique_ptrIT_NS_14default_deleteIS9_EEEEDpOT0_, symObjAddr: 0x5F350, symBinAddr: 0xDF22C, symSize: 0x5C }
  - { offset: 0x4C602D, size: 0x8, addend: 0x0, symName: __ZNSt3__111make_uniqueB9nqe210106I17llm_build_qwen3vlJRK11llama_modelRK16llm_graph_paramsELi0EEENS_10unique_ptrIT_NS_14default_deleteIS9_EEEEDpOT0_, symObjAddr: 0x5DF8C, symBinAddr: 0xDDE68, symSize: 0x5C }
  - { offset: 0x4C60D3, size: 0x8, addend: 0x0, symName: __ZNSt3__111make_uniqueB9nqe210106I20llm_build_qwen3vlmoeJRK11llama_modelRK16llm_graph_paramsELi0EEENS_10unique_ptrIT_NS_14default_deleteIS9_EEEEDpOT0_, symObjAddr: 0x5DFE8, symBinAddr: 0xDDEC4, symSize: 0x5C }
  - { offset: 0x4C6179, size: 0x8, addend: 0x0, symName: __ZNSt3__111make_uniqueB9nqe210106I19llm_build_internlm2JRK11llama_modelRK16llm_graph_paramsELi0EEENS_10unique_ptrIT_NS_14default_deleteIS9_EEEEDpOT0_, symObjAddr: 0x5E3DC, symBinAddr: 0xDE2B8, symSize: 0x5C }
  - { offset: 0x4C621F, size: 0x8, addend: 0x0, symName: __ZNSt3__111make_uniqueB9nqe210106I14llm_build_rnd1JRK11llama_modelRK16llm_graph_paramsELi0EEENS_10unique_ptrIT_NS_14default_deleteIS9_EEEEDpOT0_, symObjAddr: 0x5DDC0, symBinAddr: 0xDDC9C, symSize: 0x5C }
  - { offset: 0x4C62C5, size: 0x8, addend: 0x0, symName: __ZNSt3__111make_uniqueB9nqe210106I18llm_build_neo_bertJRK11llama_modelRK16llm_graph_paramsELi0EEENS_10unique_ptrIT_NS_14default_deleteIS9_EEEEDpOT0_, symObjAddr: 0x5DA28, symBinAddr: 0xDD904, symSize: 0x5C }
  - { offset: 0x4C636B, size: 0x8, addend: 0x0, symName: __ZNSt3__111make_uniqueB9nqe210106I18llm_build_minicpm3JRK11llama_modelRK16llm_graph_paramsELi0EEENS_10unique_ptrIT_NS_14default_deleteIS9_EEEEDpOT0_, symObjAddr: 0x5E438, symBinAddr: 0xDE314, symSize: 0x5C }
  - { offset: 0x4C6411, size: 0x8, addend: 0x0, symName: __ZNSt3__111make_uniqueB9nqe210106I14llm_build_glm4JRK11llama_modelRK16llm_graph_paramsELi0EEENS_10unique_ptrIT_NS_14default_deleteIS9_EEEEDpOT0_, symObjAddr: 0x5ECD8, symBinAddr: 0xDEBB4, symSize: 0x5C }
  - { offset: 0x4C64B7, size: 0x8, addend: 0x0, symName: __ZNSt3__111make_uniqueB9nqe210106I19llm_build_llada_moeJRK11llama_modelRK16llm_graph_paramsELi0EEENS_10unique_ptrIT_NS_14default_deleteIS9_EEEEDpOT0_, symObjAddr: 0x5DD64, symBinAddr: 0xDDC40, symSize: 0x5C }
  - { offset: 0x4C655D, size: 0x8, addend: 0x0, symName: __ZNSt3__111make_uniqueB9nqe210106I19llm_build_t5encoderJRK11llama_modelRK16llm_graph_paramsELi0EEENS_10unique_ptrIT_NS_14default_deleteIS9_EEEEDpOT0_, symObjAddr: 0x5EEA4, symBinAddr: 0xDED80, symSize: 0x5C }
  - { offset: 0x4C6603, size: 0x8, addend: 0x0, symName: __ZNSt3__111make_uniqueB9nqe210106I16llm_build_cogvlmJRK11llama_modelRK16llm_graph_paramsELi0EEENS_10unique_ptrIT_NS_14default_deleteIS9_EEEEDpOT0_, symObjAddr: 0x5FC4C, symBinAddr: 0xDFB28, symSize: 0x5C }
  - { offset: 0x4C66A9, size: 0x8, addend: 0x0, symName: __ZNSt3__111make_uniqueB9nqe210106I18llm_build_qwen3moeJRK11llama_modelRK16llm_graph_paramsELi0EEENS_10unique_ptrIT_NS_14default_deleteIS9_EEEEDpOT0_, symObjAddr: 0x5DF30, symBinAddr: 0xDDE0C, symSize: 0x5C }
  - { offset: 0x4C674F, size: 0x8, addend: 0x0, symName: __ZNSt3__111make_uniqueB9nqe210106I15llm_build_lladaJRK11llama_modelRK16llm_graph_paramsELi0EEENS_10unique_ptrIT_NS_14default_deleteIS9_EEEEDpOT0_, symObjAddr: 0x5DD08, symBinAddr: 0xDDBE4, symSize: 0x5C }
  - { offset: 0x4C67F5, size: 0x8, addend: 0x0, symName: __ZNSt3__111make_uniqueB9nqe210106I22llm_build_gemma3n_iswaJRK11llama_modelRK16llm_graph_paramsELi0EEENS_10unique_ptrIT_NS_14default_deleteIS9_EEEEDpOT0_, symObjAddr: 0x5E604, symBinAddr: 0xDE4E0, symSize: 0x5C }
  - { offset: 0x4C689B, size: 0x8, addend: 0x0, symName: __ZNSt3__111make_uniqueB9nqe210106I18llm_build_eurobertJRK11llama_modelRK16llm_graph_paramsELi0EEENS_10unique_ptrIT_NS_14default_deleteIS9_EEEEDpOT0_, symObjAddr: 0x5DA84, symBinAddr: 0xDD960, symSize: 0x5C }
  - { offset: 0x4C6941, size: 0x8, addend: 0x0, symName: __ZNSt3__111make_uniqueB9nqe210106I21llm_build_modern_bertJRK11llama_modelRK16llm_graph_paramsELi0EEENS_10unique_ptrIT_NS_14default_deleteIS9_EEEEDpOT0_, symObjAddr: 0x5D9CC, symBinAddr: 0xDD8A8, symSize: 0x5C }
  - { offset: 0x4C69E7, size: 0x8, addend: 0x0, symName: __ZNSt3__111make_uniqueB9nqe210106I21llm_build_gemma4_iswaJRK11llama_modelRK16llm_graph_paramsELi0EEENS_10unique_ptrIT_NS_14default_deleteIS9_EEEEDpOT0_, symObjAddr: 0x5E660, symBinAddr: 0xDE53C, symSize: 0x5C }
  - { offset: 0x4C6A8D, size: 0x8, addend: 0x0, symName: __ZNSt3__111make_uniqueB9nqe210106I17llm_build_gptneoxJRK11llama_modelRK16llm_graph_paramsELi0EEENS_10unique_ptrIT_NS_14default_deleteIS9_EEEEDpOT0_, symObjAddr: 0x5EB68, symBinAddr: 0xDEA44, symSize: 0x5C }
  - { offset: 0x4C6B33, size: 0x8, addend: 0x0, symName: __ZNSt3__111make_uniqueB9nqe210106I16llm_build_falconJRK11llama_modelRK16llm_graph_paramsELi0EEENS_10unique_ptrIT_NS_14default_deleteIS9_EEEEDpOT0_, symObjAddr: 0x5D85C, symBinAddr: 0xDD738, symSize: 0x5C }
  - { offset: 0x4C6BD9, size: 0x8, addend: 0x0, symName: __ZNSt3__111make_uniqueB9nqe210106I19llm_build_qwen3nextJRK11llama_modelRK16llm_graph_paramsELi0EEENS_10unique_ptrIT_NS_14default_deleteIS9_EEEEDpOT0_, symObjAddr: 0x5FD04, symBinAddr: 0xDFBE0, symSize: 0x5C }
  - { offset: 0x4C6C7F, size: 0x8, addend: 0x0, symName: __ZNSt3__111make_uniqueB9nqe210106I18llm_build_stablelmJRK11llama_modelRK16llm_graph_paramsELi0EEENS_10unique_ptrIT_NS_14default_deleteIS9_EEEEDpOT0_, symObjAddr: 0x5DB98, symBinAddr: 0xDDA74, symSize: 0x5C }
  - { offset: 0x4C6D25, size: 0x8, addend: 0x0, symName: __ZNSt3__111make_uniqueB9nqe210106I19llm_build_starcoderJRK11llama_modelRK16llm_graph_paramsELi0EEENS_10unique_ptrIT_NS_14default_deleteIS9_EEEEDpOT0_, symObjAddr: 0x5D914, symBinAddr: 0xDD7F0, symSize: 0x5C }
  - { offset: 0x4C6DCB, size: 0x8, addend: 0x0, symName: __ZNSt3__111make_uniqueB9nqe210106I22llm_build_cohere2_iswaJRK11llama_modelRK16llm_graph_paramsELi0EEENS_10unique_ptrIT_NS_14default_deleteIS9_EEEEDpOT0_, symObjAddr: 0x5E8E4, symBinAddr: 0xDE7C0, symSize: 0x5C }
  - { offset: 0x4C6E71, size: 0x8, addend: 0x0, symName: __ZNSt3__111make_uniqueB9nqe210106I16llm_build_llama4ILb1EEJRK11llama_modelRK16llm_graph_paramsELi0EEENS_10unique_ptrIT_NS_14default_deleteISA_EEEEDpOT0_, symObjAddr: 0x5D690, symBinAddr: 0xDD56C, symSize: 0x5C }
  - { offset: 0x4C6F17, size: 0x8, addend: 0x0, symName: __ZNSt3__111make_uniqueB9nqe210106I15llm_build_llamaILb0EEJRK11llama_modelRK16llm_graph_paramsELi0EEENS_10unique_ptrIT_NS_14default_deleteISA_EEEEDpOT0_, symObjAddr: 0x5D5D8, symBinAddr: 0xDD4B4, symSize: 0x5C }
  - { offset: 0x4C6FBD, size: 0x8, addend: 0x0, symName: __ZNSt3__111make_uniqueB9nqe210106I14llm_build_grokJRK11llama_modelRK16llm_graph_paramsELi0EEENS_10unique_ptrIT_NS_14default_deleteIS9_EEEEDpOT0_, symObjAddr: 0x5D8B8, symBinAddr: 0xDD794, symSize: 0x5C }
  - { offset: 0x4C7063, size: 0x8, addend: 0x0, symName: __ZNSt3__111make_uniqueB9nqe210106I14llm_build_qwenJRK11llama_modelRK16llm_graph_paramsELi0EEENS_10unique_ptrIT_NS_14default_deleteIS9_EEEEDpOT0_, symObjAddr: 0x5DBF4, symBinAddr: 0xDDAD0, symSize: 0x5C }
  - { offset: 0x4C7109, size: 0x8, addend: 0x0, symName: __ZNSt3__111make_uniqueB9nqe210106I16llm_build_refactJRK11llama_modelRK16llm_graph_paramsELi0EEENS_10unique_ptrIT_NS_14default_deleteIS9_EEEEDpOT0_, symObjAddr: 0x5D970, symBinAddr: 0xDD84C, symSize: 0x5C }
  - { offset: 0x4C71AF, size: 0x8, addend: 0x0, symName: __ZNSt3__111make_uniqueB9nqe210106I13llm_build_mptJRK11llama_modelRK16llm_graph_paramsELi0EEENS_10unique_ptrIT_NS_14default_deleteIS9_EEEEDpOT0_, symObjAddr: 0x5DB3C, symBinAddr: 0xDDA18, symSize: 0x5C }
  - { offset: 0x4C7255, size: 0x8, addend: 0x0, symName: __ZNSt3__111make_uniqueB9nqe210106I15llm_build_orionJRK11llama_modelRK16llm_graph_paramsELi0EEENS_10unique_ptrIT_NS_14default_deleteIS9_EEEEDpOT0_, symObjAddr: 0x5E380, symBinAddr: 0xDE25C, symSize: 0x5C }
  - { offset: 0x4C72FB, size: 0x8, addend: 0x0, symName: __ZNSt3__111make_uniqueB9nqe210106I18llm_build_baichuanJRK11llama_modelRK16llm_graph_paramsELi0EEENS_10unique_ptrIT_NS_14default_deleteIS9_EEEEDpOT0_, symObjAddr: 0x5D800, symBinAddr: 0xDD6DC, symSize: 0x5C }
  - { offset: 0x4C73A1, size: 0x8, addend: 0x0, symName: __ZNSt3__111make_uniqueB9nqe210106I14llm_build_deciJRK11llama_modelRK16llm_graph_paramsELi0EEENS_10unique_ptrIT_NS_14default_deleteIS9_EEEEDpOT0_, symObjAddr: 0x5D7A4, symBinAddr: 0xDD680, symSize: 0x5C }
  - { offset: 0x4C7447, size: 0x8, addend: 0x0, symName: __ZNSt3__111make_uniqueB9nqe210106I14llm_build_gpt2JRK11llama_modelRK16llm_graph_paramsELi0EEENS_10unique_ptrIT_NS_14default_deleteIS9_EEEEDpOT0_, symObjAddr: 0x5E2C8, symBinAddr: 0xDE1A4, symSize: 0x5C }
  - { offset: 0x4C74ED, size: 0x8, addend: 0x0, symName: __ZNSt3__111make_uniqueB9nqe210106I14llm_build_olmoJRK11llama_modelRK16llm_graph_paramsELi0EEENS_10unique_ptrIT_NS_14default_deleteIS9_EEEEDpOT0_, symObjAddr: 0x5E99C, symBinAddr: 0xDE878, symSize: 0x5C }
  - { offset: 0x4C7593, size: 0x8, addend: 0x0, symName: __ZNSt3__111make_uniqueB9nqe210106I16llm_build_arcticJRK11llama_modelRK16llm_graph_paramsELi0EEENS_10unique_ptrIT_NS_14default_deleteIS9_EEEEDpOT0_, symObjAddr: 0x5EBC4, symBinAddr: 0xDEAA0, symSize: 0x5C }
  - { offset: 0x4C7639, size: 0x8, addend: 0x0, symName: __ZNSt3__111make_uniqueB9nqe210106I15llm_build_bloomJRK11llama_modelRK16llm_graph_paramsELi0EEENS_10unique_ptrIT_NS_14default_deleteIS9_EEEEDpOT0_, symObjAddr: 0x5DAE0, symBinAddr: 0xDD9BC, symSize: 0x5C }
  - { offset: 0x4C76DF, size: 0x8, addend: 0x0, symName: __ZNSt3__111make_uniqueB9nqe210106I17llm_build_qwen2vlJRK11llama_modelRK16llm_graph_paramsELi0EEENS_10unique_ptrIT_NS_14default_deleteIS9_EEEEDpOT0_, symObjAddr: 0x5DE1C, symBinAddr: 0xDDCF8, symSize: 0x5C }
  - { offset: 0x4C7785, size: 0x8, addend: 0x0, symName: __ZNSt3__111make_uniqueB9nqe210106I19llm_build_codeshellJRK11llama_modelRK16llm_graph_paramsELi0EEENS_10unique_ptrIT_NS_14default_deleteIS9_EEEEDpOT0_, symObjAddr: 0x5E324, symBinAddr: 0xDE200, symSize: 0x5C }
  - { offset: 0x4C782B, size: 0x8, addend: 0x0, symName: __ZNSt3__111make_uniqueB9nqe210106I17llm_build_openelmJRK11llama_modelRK16llm_graph_paramsELi0EEENS_10unique_ptrIT_NS_14default_deleteIS9_EEEEDpOT0_, symObjAddr: 0x5EB0C, symBinAddr: 0xDE9E8, symSize: 0x5C }
  - { offset: 0x4C78D1, size: 0x8, addend: 0x0, symName: __ZNSt3__111make_uniqueB9nqe210106I19llm_build_paddleocrJRK11llama_modelRK16llm_graph_paramsELi0EEENS_10unique_ptrIT_NS_14default_deleteIS9_EEEEDpOT0_, symObjAddr: 0x5F7A0, symBinAddr: 0xDF67C, symSize: 0x5C }
  - { offset: 0x4C7977, size: 0x8, addend: 0x0, symName: __ZNSt3__111make_uniqueB9nqe210106I15llm_build_gemmaJRK11llama_modelRK16llm_graph_paramsELi0EEENS_10unique_ptrIT_NS_14default_deleteIS9_EEEEDpOT0_, symObjAddr: 0x5E494, symBinAddr: 0xDE370, symSize: 0x5C }
  - { offset: 0x4C7A1D, size: 0x8, addend: 0x0, symName: __ZNSt3__111make_uniqueB9nqe210106I15llm_build_qwen3JRK11llama_modelRK16llm_graph_paramsELi0EEENS_10unique_ptrIT_NS_14default_deleteIS9_EEEEDpOT0_, symObjAddr: 0x5DED4, symBinAddr: 0xDDDB0, symSize: 0x5C }
  - { offset: 0x4C7AC3, size: 0x8, addend: 0x0, symName: __ZNSt3__111make_uniqueB9nqe210106I15llm_build_olmo2ILb1EEJRK11llama_modelRK16llm_graph_paramsELi0EEENS_10unique_ptrIT_NS_14default_deleteISA_EEEEDpOT0_, symObjAddr: 0x5E9F8, symBinAddr: 0xDE8D4, symSize: 0x5C }
  - { offset: 0x4C7B69, size: 0x8, addend: 0x0, symName: __ZNSt3__111make_uniqueB9nqe210106I18llm_build_deepseekJRK11llama_modelRK16llm_graph_paramsELi0EEENS_10unique_ptrIT_NS_14default_deleteIS9_EEEEDpOT0_, symObjAddr: 0x5EC20, symBinAddr: 0xDEAFC, symSize: 0x5C }
  - { offset: 0x4C7C0F, size: 0x8, addend: 0x0, symName: __ZNSt3__111make_uniqueB9nqe210106I15llm_build_olmoeJRK11llama_modelRK16llm_graph_paramsELi0EEENS_10unique_ptrIT_NS_14default_deleteIS9_EEEEDpOT0_, symObjAddr: 0x5EAB0, symBinAddr: 0xDE98C, symSize: 0x5C }
  - { offset: 0x4C7CB5, size: 0x8, addend: 0x0, symName: __ZNSt3__111make_uniqueB9nqe210106I19llm_build_maincoderJRK11llama_modelRK16llm_graph_paramsELi0EEENS_10unique_ptrIT_NS_14default_deleteIS9_EEEEDpOT0_, symObjAddr: 0x5D748, symBinAddr: 0xDD624, symSize: 0x5C }
  - { offset: 0x4C7D5B, size: 0x8, addend: 0x0, symName: __ZNSt3__111make_uniqueB9nqe210106I15llm_build_qwen2JRK11llama_modelRK16llm_graph_paramsELi0EEENS_10unique_ptrIT_NS_14default_deleteIS9_EEEEDpOT0_, symObjAddr: 0x5DC50, symBinAddr: 0xDDB2C, symSize: 0x5C }
  - { offset: 0x4C7E01, size: 0x8, addend: 0x0, symName: __ZNSt3__111make_uniqueB9nqe210106I17llm_build_exaone4ILb1EEJRK11llama_modelRK16llm_graph_paramsELi0EEENS_10unique_ptrIT_NS_14default_deleteISA_EEEEDpOT0_, symObjAddr: 0x5F0CC, symBinAddr: 0xDEFA8, symSize: 0x5C }
  - { offset: 0x4C7EA7, size: 0x8, addend: 0x0, symName: __ZNSt3__111make_uniqueB9nqe210106I16llm_build_exaoneJRK11llama_modelRK16llm_graph_paramsELi0EEENS_10unique_ptrIT_NS_14default_deleteIS9_EEEEDpOT0_, symObjAddr: 0x5F070, symBinAddr: 0xDEF4C, symSize: 0x5C }
  - { offset: 0x4C7F4D, size: 0x8, addend: 0x0, symName: __ZNSt3__111make_uniqueB9nqe210106I22llm_build_ernie4_5_moeJRK11llama_modelRK16llm_graph_paramsELi0EEENS_10unique_ptrIT_NS_14default_deleteIS9_EEEEDpOT0_, symObjAddr: 0x5F744, symBinAddr: 0xDF620, symSize: 0x5C }
  - { offset: 0x4C7FF3, size: 0x8, addend: 0x0, symName: __ZNSt3__111make_uniqueB9nqe210106I14llm_build_jaisJRK11llama_modelRK16llm_graph_paramsELi0EEENS_10unique_ptrIT_NS_14default_deleteIS9_EEEEDpOT0_, symObjAddr: 0x5EF00, symBinAddr: 0xDEDDC, symSize: 0x5C }
  - { offset: 0x4C8099, size: 0x8, addend: 0x0, symName: __ZNSt3__111make_uniqueB9nqe210106I20llm_build_bailingmoeJRK11llama_modelRK16llm_graph_paramsELi0EEENS_10unique_ptrIT_NS_14default_deleteIS9_EEEEDpOT0_, symObjAddr: 0x5F4C0, symBinAddr: 0xDF39C, symSize: 0x5C }
  - { offset: 0x4C813F, size: 0x8, addend: 0x0, symName: __ZNSt3__111make_uniqueB9nqe210106I15llm_build_plamoJRK11llama_modelRK16llm_graph_paramsELi0EEENS_10unique_ptrIT_NS_14default_deleteIS9_EEEEDpOT0_, symObjAddr: 0x5E158, symBinAddr: 0xDE034, symSize: 0x5C }
  - { offset: 0x4C81E5, size: 0x8, addend: 0x0, symName: __ZNSt3__111make_uniqueB9nqe210106I18llm_build_qwen2moeJRK11llama_modelRK16llm_graph_paramsELi0EEENS_10unique_ptrIT_NS_14default_deleteIS9_EEEEDpOT0_, symObjAddr: 0x5DE78, symBinAddr: 0xDDD54, symSize: 0x5C }
  - { offset: 0x4C828B, size: 0x8, addend: 0x0, symName: __ZNSt3__111make_uniqueB9nqe210106I15llm_build_dots1JRK11llama_modelRK16llm_graph_paramsELi0EEENS_10unique_ptrIT_NS_14default_deleteIS9_EEEEDpOT0_, symObjAddr: 0x5F5D4, symBinAddr: 0xDF4B0, symSize: 0x5C }
  - { offset: 0x4C8331, size: 0x8, addend: 0x0, symName: __ZNSt3__111make_uniqueB9nqe210106I19llm_build_command_rJRK11llama_modelRK16llm_graph_paramsELi0EEENS_10unique_ptrIT_NS_14default_deleteIS9_EEEEDpOT0_, symObjAddr: 0x5E888, symBinAddr: 0xDE764, symSize: 0x5C }
  - { offset: 0x4C83D7, size: 0x8, addend: 0x0, symName: __ZNSt3__111make_uniqueB9nqe210106I14llm_build_dbrxJRK11llama_modelRK16llm_graph_paramsELi0EEENS_10unique_ptrIT_NS_14default_deleteIS9_EEEEDpOT0_, symObjAddr: 0x5E940, symBinAddr: 0xDE81C, symSize: 0x5C }
  - { offset: 0x4C847D, size: 0x8, addend: 0x0, symName: __ZNSt3__111make_uniqueB9nqe210106I16llm_build_plamo2JRK11llama_modelRK16llm_graph_paramsELi0EEENS_10unique_ptrIT_NS_14default_deleteIS9_EEEEDpOT0_, symObjAddr: 0x5E1B4, symBinAddr: 0xDE090, symSize: 0x5C }
  - { offset: 0x4C8523, size: 0x8, addend: 0x0, symName: __ZNSt3__111make_uniqueB9nqe210106I16llm_build_plamo3ILb1EEJRK11llama_modelRK16llm_graph_paramsELi0EEENS_10unique_ptrIT_NS_14default_deleteISA_EEEEDpOT0_, symObjAddr: 0x5E210, symBinAddr: 0xDE0EC, symSize: 0x5C }
  - { offset: 0x4C85C9, size: 0x8, addend: 0x0, symName: __ZNSt3__111make_uniqueB9nqe210106I24llm_build_pangu_embeddedJRK11llama_modelRK16llm_graph_paramsELi0EEENS_10unique_ptrIT_NS_14default_deleteIS9_EEEEDpOT0_, symObjAddr: 0x5FCA8, symBinAddr: 0xDFB84, symSize: 0x5C }
  - { offset: 0x4C866F, size: 0x8, addend: 0x0, symName: __ZNSt3__111make_uniqueB9nqe210106I21llm_build_step35_iswaJRK11llama_modelRK16llm_graph_paramsELi0EEENS_10unique_ptrIT_NS_14default_deleteIS9_EEEEDpOT0_, symObjAddr: 0x5FF2C, symBinAddr: 0xDFE08, symSize: 0x5C }
  - { offset: 0x4C8715, size: 0x8, addend: 0x0, symName: __ZNSt3__111make_uniqueB9nqe210106I20llm_build_minimax_m2JRK11llama_modelRK16llm_graph_paramsELi0EEENS_10unique_ptrIT_NS_14default_deleteIS9_EEEEDpOT0_, symObjAddr: 0x5FBF0, symBinAddr: 0xDFACC, symSize: 0x5C }
  - { offset: 0x4C87BB, size: 0x8, addend: 0x0, symName: __ZNSt3__111make_uniqueB9nqe210106I15llm_build_jambaJRK11llama_modelRK16llm_graph_paramsELi0EEENS_10unique_ptrIT_NS_14default_deleteIS9_EEEEDpOT0_, symObjAddr: 0x5E7D0, symBinAddr: 0xDE6AC, symSize: 0x5C }
  - { offset: 0x4C8861, size: 0x8, addend: 0x0, symName: __ZNSt3__111make_uniqueB9nqe210106I20llm_build_mimo2_iswaJRK11llama_modelRK16llm_graph_paramsELi0EEENS_10unique_ptrIT_NS_14default_deleteIS9_EEEEDpOT0_, symObjAddr: 0x5FE74, symBinAddr: 0xDFD50, symSize: 0x5C }
  - { offset: 0x4C8907, size: 0x8, addend: 0x0, symName: __ZNSt3__111make_uniqueB9nqe210106I20llm_build_rwkv6qwen2JRK11llama_modelRK16llm_graph_paramsELi0EEENS_10unique_ptrIT_NS_14default_deleteIS9_EEEEDpOT0_, symObjAddr: 0x5F23C, symBinAddr: 0xDF118, symSize: 0x5C }
  - { offset: 0x4C89AD, size: 0x8, addend: 0x0, symName: __ZNSt3__111make_uniqueB9nqe210106I15llm_build_rwkv7JRK11llama_modelRK16llm_graph_paramsELi0EEENS_10unique_ptrIT_NS_14default_deleteIS9_EEEEDpOT0_, symObjAddr: 0x5F298, symBinAddr: 0xDF174, symSize: 0x5C }
  - { offset: 0x4C8A53, size: 0x8, addend: 0x0, symName: __ZNSt3__111make_uniqueB9nqe210106I18llm_build_mistral3JRK11llama_modelRK16llm_graph_paramsELi0EEENS_10unique_ptrIT_NS_14default_deleteIS9_EEEEDpOT0_, symObjAddr: 0x5FE18, symBinAddr: 0xDFCF4, symSize: 0x5C }
  - { offset: 0x4C8AF9, size: 0x8, addend: 0x0, symName: __ZNSt3__111make_uniqueB9nqe210106I19llm_build_falcon_h1JRK11llama_modelRK16llm_graph_paramsELi0EEENS_10unique_ptrIT_NS_14default_deleteIS9_EEEEDpOT0_, symObjAddr: 0x5F96C, symBinAddr: 0xDF848, symSize: 0x5C }
  - { offset: 0x4C8B9F, size: 0x8, addend: 0x0, symName: __ZNSt3__111make_uniqueB9nqe210106I21llm_build_gemma2_iswaJRK11llama_modelRK16llm_graph_paramsELi0EEENS_10unique_ptrIT_NS_14default_deleteIS9_EEEEDpOT0_, symObjAddr: 0x5E4F0, symBinAddr: 0xDE3CC, symSize: 0x5C }
  - { offset: 0x4C8C45, size: 0x8, addend: 0x0, symName: __ZNSt3__111make_uniqueB9nqe210106I20llm_build_starcoder2JRK11llama_modelRK16llm_graph_paramsELi0EEENS_10unique_ptrIT_NS_14default_deleteIS9_EEEEDpOT0_, symObjAddr: 0x5E718, symBinAddr: 0xDE5F4, symSize: 0x5C }
  - { offset: 0x4C8CEB, size: 0x8, addend: 0x0, symName: __ZNSt3__111make_uniqueB9nqe210106I18llm_build_glm4_moeJRK11llama_modelRK16llm_graph_paramsELi0EEENS_10unique_ptrIT_NS_14default_deleteIS9_EEEEDpOT0_, symObjAddr: 0x5ED34, symBinAddr: 0xDEC10, symSize: 0x5C }
  - { offset: 0x4C8D91, size: 0x8, addend: 0x0, symName: __ZNSt3__111make_uniqueB9nqe210106I17llm_build_apertusJRK11llama_modelRK16llm_graph_paramsELi0EEENS_10unique_ptrIT_NS_14default_deleteIS9_EEEEDpOT0_, symObjAddr: 0x5FB94, symBinAddr: 0xDFA70, symSize: 0x5C }
  - { offset: 0x4C8E37, size: 0x8, addend: 0x0, symName: __ZNSt3__111make_uniqueB9nqe210106I16llm_build_bitnetJRK11llama_modelRK16llm_graph_paramsELi0EEENS_10unique_ptrIT_NS_14default_deleteIS9_EEEEDpOT0_, symObjAddr: 0x5ED90, symBinAddr: 0xDEC6C, symSize: 0x5C }
  - { offset: 0x4C8EDD, size: 0x8, addend: 0x0, symName: __ZNSt3__111make_uniqueB9nqe210106I12llm_build_t5ILb0EEJRK11llama_modelRK16llm_graph_paramsELi0EEENS_10unique_ptrIT_NS_14default_deleteISA_EEEEDpOT0_, symObjAddr: 0x5EE48, symBinAddr: 0xDED24, symSize: 0x5C }
  - { offset: 0x4C8F83, size: 0x8, addend: 0x0, symName: __ZNSt3__111make_uniqueB9nqe210106I18llm_build_nemotronJRK11llama_modelRK16llm_graph_paramsELi0EEENS_10unique_ptrIT_NS_14default_deleteIS9_EEEEDpOT0_, symObjAddr: 0x5EFB8, symBinAddr: 0xDEE94, symSize: 0x5C }
  - { offset: 0x4C9029, size: 0x8, addend: 0x0, symName: __ZNSt3__111make_uniqueB9nqe210106I17llm_build_smollm3JRK11llama_modelRK16llm_graph_paramsELi0EEENS_10unique_ptrIT_NS_14default_deleteIS9_EEEEDpOT0_, symObjAddr: 0x5F8B4, symBinAddr: 0xDF790, symSize: 0x5C }
  - { offset: 0x4C90CF, size: 0x8, addend: 0x0, symName: __ZNSt3__111make_uniqueB9nqe210106I16llm_build_arwkv7JRK11llama_modelRK16llm_graph_paramsELi0EEENS_10unique_ptrIT_NS_14default_deleteIS9_EEEEDpOT0_, symObjAddr: 0x5F2F4, symBinAddr: 0xDF1D0, symSize: 0x5C }
  - { offset: 0x4C9175, size: 0x8, addend: 0x0, symName: __ZNSt3__111make_uniqueB9nqe210106I15llm_build_arceeJRK11llama_modelRK16llm_graph_paramsELi0EEENS_10unique_ptrIT_NS_14default_deleteIS9_EEEEDpOT0_, symObjAddr: 0x5F630, symBinAddr: 0xDF50C, symSize: 0x5C }
  - { offset: 0x4C921B, size: 0x8, addend: 0x0, symName: __ZNSt3__111make_uniqueB9nqe210106I23llm_build_hunyuan_denseJRK11llama_modelRK16llm_graph_paramsELi0EEENS_10unique_ptrIT_NS_14default_deleteIS9_EEEEDpOT0_, symObjAddr: 0x5F858, symBinAddr: 0xDF734, symSize: 0x5C }
  - { offset: 0x4C92C1, size: 0x8, addend: 0x0, symName: __ZNSt3__111make_uniqueB9nqe210106I14llm_build_lfm2ILb0EEJRK11llama_modelRK16llm_graph_paramsELi0EEENS_10unique_ptrIT_NS_14default_deleteISA_EEEEDpOT0_, symObjAddr: 0x5FA24, symBinAddr: 0xDF900, symSize: 0x5C }
  - { offset: 0x4C9367, size: 0x8, addend: 0x0, symName: __ZNSt3__111make_uniqueB9nqe210106I14llm_build_phi3ILb0EEJRK11llama_modelRK16llm_graph_paramsELi0EEENS_10unique_ptrIT_NS_14default_deleteISA_EEEEDpOT0_, symObjAddr: 0x5E0FC, symBinAddr: 0xDDFD8, symSize: 0x5C }
  - { offset: 0x4C940D, size: 0x8, addend: 0x0, symName: __ZNSt3__111make_uniqueB9nqe210106I22llm_build_smallthinkerILb0EEJRK11llama_modelRK16llm_graph_paramsELi0EEENS_10unique_ptrIT_NS_14default_deleteISA_EEEEDpOT0_, symObjAddr: 0x5FADC, symBinAddr: 0xDF9B8, symSize: 0x5C }
  - { offset: 0x4C94B3, size: 0x8, addend: 0x0, symName: __ZNSt3__111make_uniqueB9nqe210106I16llm_build_gemma3ILb0EEJRK11llama_modelRK16llm_graph_paramsELi0EEENS_10unique_ptrIT_NS_14default_deleteISA_EEEEDpOT0_, symObjAddr: 0x5E5A8, symBinAddr: 0xDE484, symSize: 0x5C }
  - { offset: 0x4C9559, size: 0x8, addend: 0x0, symName: __ZNSt3__111make_uniqueB9nqe210106I15llm_build_olmo2ILb0EEJRK11llama_modelRK16llm_graph_paramsELi0EEENS_10unique_ptrIT_NS_14default_deleteISA_EEEEDpOT0_, symObjAddr: 0x5EA54, symBinAddr: 0xDE930, symSize: 0x5C }
  - { offset: 0x4C95FF, size: 0x8, addend: 0x0, symName: __ZNSt3__111make_uniqueB9nqe210106I17llm_build_exaone4ILb0EEJRK11llama_modelRK16llm_graph_paramsELi0EEENS_10unique_ptrIT_NS_14default_deleteISA_EEEEDpOT0_, symObjAddr: 0x5F128, symBinAddr: 0xDF004, symSize: 0x5C }
  - { offset: 0x4C96A5, size: 0x8, addend: 0x0, symName: __ZNSt3__111make_uniqueB9nqe210106I16llm_build_llama4ILb0EEJRK11llama_modelRK16llm_graph_paramsELi0EEENS_10unique_ptrIT_NS_14default_deleteISA_EEEEDpOT0_, symObjAddr: 0x5D634, symBinAddr: 0xDD510, symSize: 0x5C }
  - { offset: 0x4C974B, size: 0x8, addend: 0x0, symName: __ZNSt3__111make_uniqueB9nqe210106I16llm_build_plamo3ILb0EEJRK11llama_modelRK16llm_graph_paramsELi0EEENS_10unique_ptrIT_NS_14default_deleteISA_EEEEDpOT0_, symObjAddr: 0x5E26C, symBinAddr: 0xDE148, symSize: 0x5C }
  - { offset: 0x4C97F1, size: 0x8, addend: 0x0, symName: __ZNSt3__111make_uniqueB9nqe210106I12llm_build_t5ILb1EEJRK11llama_modelRK16llm_graph_paramsELi0EEENS_10unique_ptrIT_NS_14default_deleteISA_EEEEDpOT0_, symObjAddr: 0x5EDEC, symBinAddr: 0xDECC8, symSize: 0x5C }
  - { offset: 0x4D0211, size: 0x8, addend: 0x0, symName: '__ZTVNSt3__110__function6__funcIZNK11llama_model10print_infoEvE3$_0FjjEEE', symObjAddr: 0x80458, symBinAddr: 0x3146C8, symSize: 0x0 }
  - { offset: 0x4D6476, size: 0x8, addend: 0x0, symName: __ZNK11llama_model10print_infoEv, symObjAddr: 0x5A9FC, symBinAddr: 0xDA8D8, symSize: 0x128C }
  - { offset: 0x4D90E9, size: 0x8, addend: 0x0, symName: '__ZTVNSt3__110__function6__funcIZNK11llama_model10print_infoEvE3$_1FjjEEE', symObjAddr: 0x804E8, symBinAddr: 0x314758, symSize: 0x0 }
  - { offset: 0x4D9120, size: 0x8, addend: 0x0, symName: '__ZTVNSt3__110__function6__funcIZNK11llama_model10print_infoEvE3$_2FjjEEE', symObjAddr: 0x80568, symBinAddr: 0x3147D8, symSize: 0x0 }
  - { offset: 0x4D9157, size: 0x8, addend: 0x0, symName: '__ZTVNSt3__110__function6__funcIZNK11llama_model10print_infoEvE3$_3FjjEEE', symObjAddr: 0x805E8, symBinAddr: 0x314858, symSize: 0x0 }
  - { offset: 0x4D918E, size: 0x8, addend: 0x0, symName: '__ZTVNSt3__110__function6__funcIZNK11llama_model10print_infoEvE3$_4FjjEEE', symObjAddr: 0x80668, symBinAddr: 0x3148D8, symSize: 0x0 }
  - { offset: 0x4D91C5, size: 0x8, addend: 0x0, symName: '__ZTVNSt3__110__function6__funcIZNK11llama_model10print_infoEvE3$_5FjjEEE', symObjAddr: 0x806E8, symBinAddr: 0x314958, symSize: 0x0 }
  - { offset: 0x4D91FC, size: 0x8, addend: 0x0, symName: '__ZTVNSt3__110__function6__funcIZNK11llama_model13create_memoryERK19llama_memory_paramsRK13llama_cparamsE3$_0FbiEEE', symObjAddr: 0x80768, symBinAddr: 0x3149D8, symSize: 0x0 }
  - { offset: 0x4D920A, size: 0x8, addend: 0x0, symName: __ZNK11llama_model13create_memoryERK19llama_memory_paramsRK13llama_cparams, symObjAddr: 0x5C3CC, symBinAddr: 0xDC2A8, symSize: 0x5AC }
  - { offset: 0x4DA016, size: 0x8, addend: 0x0, symName: '__ZTVNSt3__110__function6__funcIZNK11llama_model13create_memoryERK19llama_memory_paramsRK13llama_cparamsE3$_1FbiEEE', symObjAddr: 0x807F8, symBinAddr: 0x314A58, symSize: 0x0 }
  - { offset: 0x4DA04D, size: 0x8, addend: 0x0, symName: '__ZTVNSt3__110__function6__funcIZNK11llama_model13create_memoryERK19llama_memory_paramsRK13llama_cparamsE3$_2FbiEEE', symObjAddr: 0x80878, symBinAddr: 0x314AD8, symSize: 0x0 }
  - { offset: 0x4DA084, size: 0x8, addend: 0x0, symName: '__ZTVNSt3__110__function6__funcIZNK11llama_model13create_memoryERK19llama_memory_paramsRK13llama_cparamsE3$_3FbiEEE', symObjAddr: 0x808F8, symBinAddr: 0x314B58, symSize: 0x0 }
  - { offset: 0x4DA0BB, size: 0x8, addend: 0x0, symName: '__ZTVNSt3__110__function6__funcIZNK11llama_model13create_memoryERK19llama_memory_paramsRK13llama_cparamsE3$_4FiiEEE', symObjAddr: 0x80978, symBinAddr: 0x314BD8, symSize: 0x0 }
  - { offset: 0x4E31BD, size: 0x8, addend: 0x0, symName: __Z33llama_meta_device_get_split_statePK11ggml_tensorPv, symObjAddr: 0x0, symBinAddr: 0x80068, symSize: 0x2EA0 }
  - { offset: 0x4EE55D, size: 0x8, addend: 0x0, symName: '__ZZ33llama_meta_device_get_split_statePK11ggml_tensorPvENK3$_0clE28ggml_backend_meta_split_axisRKNSt3__112basic_stringIcNS5_11char_traitsIcEENS5_9allocatorIcEEEESD_', symObjAddr: 0x60584, symBinAddr: 0xE0460, symSize: 0xAE4 }
  - { offset: 0x4F137D, size: 0x8, addend: 0x0, symName: __ZNK11llama_model12tensor_splitEv, symObjAddr: 0x2F48, symBinAddr: 0x82F08, symSize: 0x8 }
  - { offset: 0x4F1388, size: 0x8, addend: 0x0, symName: __ZNSt3__16vectorIxNS_9allocatorIxEEEC1B9nqe210106EmRKx, symObjAddr: 0x64A70, symBinAddr: 0xE1110, symSize: 0xDC }
  - { offset: 0x4F1678, size: 0x8, addend: 0x0, symName: __ZNSt3__16vectorIxNS_9allocatorIxEEEC1B9nqe210106ESt16initializer_listIxE, symObjAddr: 0x649C4, symBinAddr: 0xE1064, symSize: 0xAC }
  - { offset: 0x4F19E8, size: 0x8, addend: 0x0, symName: __ZNSt3__13mapI23llama_rope_scaling_typePKcNS_4lessIS1_EENS_9allocatorINS_4pairIKS1_S3_EEEEEC2B9nqe210106ESt16initializer_listIS9_ERKS5_, symObjAddr: 0x6CE1C, symBinAddr: 0xE1214, symSize: 0x178 }
  - { offset: 0x4F19FD, size: 0x8, addend: 0x0, symName: __ZNSt3__16vectorIxNS_9allocatorIxEEEC1B9nqe210106ESt16initializer_listIxE, symObjAddr: 0x649C4, symBinAddr: 0xE1064, symSize: 0xAC }
  - { offset: 0x4F1A1D, size: 0x8, addend: 0x0, symName: __ZNK11llama_model10get_tensorEPKc, symObjAddr: 0x5C244, symBinAddr: 0xDC120, symSize: 0xC0 }
  - { offset: 0x4F1D05, size: 0x8, addend: 0x0, symName: __ZNK11llama_model12tensor_splitEv, symObjAddr: 0x2F48, symBinAddr: 0x82F08, symSize: 0x8 }
  - { offset: 0x4F1D2F, size: 0x8, addend: 0x0, symName: __Z13llm_type_name8llm_type, symObjAddr: 0x2FB4, symBinAddr: 0x82F10, symSize: 0x28 }
  - { offset: 0x4F1DDF, size: 0x8, addend: 0x0, symName: __ZNSt3__13mapI23llama_rope_scaling_typePKcNS_4lessIS1_EENS_9allocatorINS_4pairIKS1_S3_EEEEED1B9nqe210106Ev, symObjAddr: 0x2FDC, symBinAddr: 0x82F38, symSize: 0x28 }
  - { offset: 0x4F1E97, size: 0x8, addend: 0x0, symName: __ZNSt3__16__treeINS_12__value_typeI23llama_rope_scaling_typePKcEENS_19__map_value_compareIS2_NS_4pairIKS2_S4_EENS_4lessIS2_EELb1EEENS_9allocatorIS9_EEE7destroyEPNS_11__tree_nodeIS5_PvEE, symObjAddr: 0x6D168, symBinAddr: 0xE138C, symSize: 0x44 }
  - { offset: 0x4F20C1, size: 0x8, addend: 0x0, symName: __Z28llama_rope_scaling_type_name23llama_rope_scaling_type, symObjAddr: 0x3004, symBinAddr: 0x82F60, symSize: 0xE8 }
  - { offset: 0x4F23CF, size: 0x8, addend: 0x0, symName: __ZN11llama_modelC2ERK18llama_model_params, symObjAddr: 0x30EC, symBinAddr: 0x83048, symSize: 0x300 }
  - { offset: 0x4F2852, size: 0x8, addend: 0x0, symName: __ZN11llama_modelC2ERK18llama_model_params, symObjAddr: 0x30EC, symBinAddr: 0x83048, symSize: 0x300 }
  - { offset: 0x4F2EC1, size: 0x8, addend: 0x0, symName: __ZNSt3__113unordered_setIP18llama_adapter_loraNS_4hashIS2_EENS_8equal_toIS2_EENS_9allocatorIS2_EEED1B9nqe210106Ev, symObjAddr: 0x33EC, symBinAddr: 0x83348, symSize: 0x48 }
  - { offset: 0x4F3120, size: 0x8, addend: 0x0, symName: __ZNSt3__16vectorINS_4pairINS_12basic_stringIcNS_11char_traitsIcEENS_9allocatorIcEEEEP11ggml_tensorEENS5_ISA_EEED1B9nqe210106Ev, symObjAddr: 0x3434, symBinAddr: 0x83390, symSize: 0x70 }
  - { offset: 0x4F3376, size: 0x8, addend: 0x0, symName: __ZNSt3__113unordered_mapINS_12basic_stringIcNS_11char_traitsIcEENS_9allocatorIcEEEES6_NS_4hashIS6_EENS_8equal_toIS6_EENS4_INS_4pairIKS6_S6_EEEEED1B9nqe210106Ev, symObjAddr: 0x34A4, symBinAddr: 0x83400, symSize: 0x84 }
  - { offset: 0x4F40B6, size: 0x8, addend: 0x0, symName: __ZN11llama_modelC1ERK18llama_model_params, symObjAddr: 0x3598, symBinAddr: 0x83484, symSize: 0x4 }
  - { offset: 0x4F40F3, size: 0x8, addend: 0x0, symName: __ZN11llama_modelC1ERK18llama_model_params, symObjAddr: 0x3598, symBinAddr: 0x83484, symSize: 0x4 }
  - { offset: 0x4F4252, size: 0x8, addend: 0x0, symName: __ZN11llama_modelD2Ev, symObjAddr: 0x359C, symBinAddr: 0x83488, symSize: 0x1C4 }
  - { offset: 0x4F5221, size: 0x8, addend: 0x0, symName: __ZN11llama_model4implD2Ev, symObjAddr: 0x6D1AC, symBinAddr: 0xE13D0, symSize: 0x16C }
  - { offset: 0x4F64BD, size: 0x8, addend: 0x0, symName: __ZN11llama_modelD1Ev, symObjAddr: 0x3770, symBinAddr: 0x8364C, symSize: 0x4 }
  - { offset: 0x4F64E0, size: 0x8, addend: 0x0, symName: __ZN11llama_modelD1Ev, symObjAddr: 0x3770, symBinAddr: 0x8364C, symSize: 0x4 }
  - { offset: 0x4F650F, size: 0x8, addend: 0x0, symName: __ZN11llama_model10load_statsER18llama_model_loader, symObjAddr: 0x3774, symBinAddr: 0x83650, symSize: 0x10 }
  - { offset: 0x4F6547, size: 0x8, addend: 0x0, symName: __ZN11llama_model10load_statsER18llama_model_loader, symObjAddr: 0x3774, symBinAddr: 0x83650, symSize: 0x10 }
  - { offset: 0x4F65D4, size: 0x8, addend: 0x0, symName: __ZN11llama_model9load_archER18llama_model_loader, symObjAddr: 0x3784, symBinAddr: 0x83660, symSize: 0x26C }
  - { offset: 0x4F6D0C, size: 0x8, addend: 0x0, symName: __ZN11llama_model12load_hparamsER18llama_model_loader, symObjAddr: 0x39F0, symBinAddr: 0x838CC, symSize: 0x6348 }
  - { offset: 0x4F99E9, size: 0x8, addend: 0x0, symName: _llama_model_rope_type, symObjAddr: 0x9E90, symBinAddr: 0x89D6C, symSize: 0xBC }
  - { offset: 0x4F9A17, size: 0x8, addend: 0x0, symName: __ZN11llama_model10load_vocabER18llama_model_loader, symObjAddr: 0x9F4C, symBinAddr: 0x89E28, symSize: 0x4C }
  - { offset: 0x4F9A3F, size: 0x8, addend: 0x0, symName: __ZNK11llama_model9arch_nameEv, symObjAddr: 0x9D38, symBinAddr: 0x89C14, symSize: 0xAC }
  - { offset: 0x4F9C92, size: 0x8, addend: 0x0, symName: __ZNK11llama_model9type_nameEv, symObjAddr: 0x9DE4, symBinAddr: 0x89CC0, symSize: 0xAC }
  - { offset: 0x4F9C9D, size: 0x8, addend: 0x0, symName: __ZNK11llama_model9type_nameEv, symObjAddr: 0x9DE4, symBinAddr: 0x89CC0, symSize: 0xAC }
  - { offset: 0x4F9EF0, size: 0x8, addend: 0x0, symName: _llama_model_rope_type, symObjAddr: 0x9E90, symBinAddr: 0x89D6C, symSize: 0xBC }
  - { offset: 0x4F9EFB, size: 0x8, addend: 0x0, symName: __ZN11llama_model10load_vocabER18llama_model_loader, symObjAddr: 0x9F4C, symBinAddr: 0x89E28, symSize: 0x4C }
  - { offset: 0x4FB0B3, size: 0x8, addend: 0x0, symName: __ZN11llama_model12load_tensorsER18llama_model_loader, symObjAddr: 0x9F98, symBinAddr: 0x89E74, symSize: 0x4F6D8 }
  - { offset: 0x561921, size: 0x8, addend: 0x0, symName: __ZNSt3__16vectorINS_4pairIP19ggml_backend_deviceP24ggml_backend_buffer_typeEENS_9allocatorIS6_EEE18__insert_with_sizeB9nqe210106INS_11__wrap_iterIPS6_EESD_EESD_NSB_IPKS6_EET_T0_l, symObjAddr: 0x6E05C, symBinAddr: 0xE1634, symSize: 0x4E0 }
  - { offset: 0x562441, size: 0x8, addend: 0x0, symName: __ZNSt3__16vectorIN11llama_model4impl9layer_devENS_9allocatorIS3_EEE8__appendEm, symObjAddr: 0x6E53C, symBinAddr: 0xE1B14, symSize: 0x118 }
  - { offset: 0x562476, size: 0x8, addend: 0x0, symName: __ZNSt3__16vectorIN11llama_model4impl9layer_devENS_9allocatorIS3_EEE8__appendEm, symObjAddr: 0x6E53C, symBinAddr: 0xE1B14, symSize: 0x118 }
  - { offset: 0x5628C9, size: 0x8, addend: 0x0, symName: __ZNSt3__16vectorIN11llama_model4impl9layer_devENS_9allocatorIS3_EEE20__throw_length_errorB9nqe210106Ev, symObjAddr: 0x6E654, symBinAddr: 0xE1C2C, symSize: 0x14 }
  - { offset: 0x5628DF, size: 0x8, addend: 0x0, symName: '__ZZN11llama_model12load_tensorsER18llama_model_loaderENK3$_1clEi', symObjAddr: 0x59894, symBinAddr: 0xD9770, symSize: 0x1BC }
  - { offset: 0x562C81, size: 0x8, addend: 0x0, symName: __ZNSt3__16vectorI11llama_layerNS_9allocatorIS1_EEE6resizeEm, symObjAddr: 0x59A50, symBinAddr: 0xD992C, symSize: 0x44 }
  - { offset: 0x562C8C, size: 0x8, addend: 0x0, symName: __ZNSt3__16vectorI11llama_layerNS_9allocatorIS1_EEE8__appendEm, symObjAddr: 0x6E67C, symBinAddr: 0xE1C54, symSize: 0x1B4 }
  - { offset: 0x563075, size: 0x8, addend: 0x0, symName: __ZNSt3__16vectorI11llama_layerNS_9allocatorIS1_EEE20__throw_length_errorB9nqe210106Ev, symObjAddr: 0x6E830, symBinAddr: 0xE1E08, symSize: 0x14 }
  - { offset: 0x563080, size: 0x8, addend: 0x0, symName: '__ZZN11llama_model12load_tensorsER18llama_model_loaderENK3$_2clERK11LLM_TN_IMPLRKSt16initializer_listIxEi', symObjAddr: 0x59A94, symBinAddr: 0xD9970, symSize: 0x78 }
  - { offset: 0x56311D, size: 0x8, addend: 0x0, symName: '__ZZN11llama_model12load_tensorsER18llama_model_loaderENK3$_4clER11llama_layerixxxxi', symObjAddr: 0x59B0C, symBinAddr: 0xD99E8, symSize: 0x510 }
  - { offset: 0x56313F, size: 0x8, addend: 0x0, symName: '__ZZN11llama_model12load_tensorsER18llama_model_loaderENK3$_4clER11llama_layerixxxxi', symObjAddr: 0x59B0C, symBinAddr: 0xD99E8, symSize: 0x510 }
  - { offset: 0x5638B2, size: 0x8, addend: 0x0, symName: '__ZZN11llama_model12load_tensorsER18llama_model_loaderENK3$_3clER11llama_layerixxxi', symObjAddr: 0x5A01C, symBinAddr: 0xD9EF8, symSize: 0x23C }
  - { offset: 0x5638C8, size: 0x8, addend: 0x0, symName: '__ZZN11llama_model12load_tensorsER18llama_model_loaderENK3$_3clER11llama_layerixxxi', symObjAddr: 0x5A01C, symBinAddr: 0xD9EF8, symSize: 0x23C }
  - { offset: 0x563C04, size: 0x8, addend: 0x0, symName: __ZNSt3__16vectorI11llama_layerNS_9allocatorIS1_EEE6resizeEm, symObjAddr: 0x59A50, symBinAddr: 0xD992C, symSize: 0x44 }
  - { offset: 0x563C38, size: 0x8, addend: 0x0, symName: __ZNSt3__16vectorI11llama_layerNS_9allocatorIS1_EEE6resizeEm, symObjAddr: 0x59A50, symBinAddr: 0xD992C, symSize: 0x44 }
  - { offset: 0x563CA9, size: 0x8, addend: 0x0, symName: __ZNSt3__16vectorIN11llama_model4impl9layer_devENS_9allocatorIS3_EEE20__throw_out_of_rangeB9nqe210106Ev, symObjAddr: 0x6E668, symBinAddr: 0xE1C40, symSize: 0x14 }
  - { offset: 0x563CC1, size: 0x8, addend: 0x0, symName: __ZNSt3__16vectorI11llama_layerNS_9allocatorIS1_EEE8__appendEm, symObjAddr: 0x6E67C, symBinAddr: 0xE1C54, symSize: 0x1B4 }
  - { offset: 0x563D15, size: 0x8, addend: 0x0, symName: __ZNSt3__16vectorINS_4pairIP12ggml_contextNS_13unordered_mapIjP19ggml_backend_bufferNS_4hashIjEENS_8equal_toIjEENS_9allocatorINS1_IKjS6_EEEEEEEENSB_ISG_EEE7reserveEm, symObjAddr: 0x5A258, symBinAddr: 0xDA134, symSize: 0x108 }
  - { offset: 0x564270, size: 0x8, addend: 0x0, symName: __ZNSt3__114__split_bufferINS_4pairINS_10unique_ptrI12ggml_context20ggml_context_deleterEENS_6vectorINS2_I19ggml_backend_buffer27ggml_backend_buffer_deleterEENS_9allocatorIS9_EEEEEERNSA_ISD_EEE17__destruct_at_endB9nqe210106EPSD_, symObjAddr: 0x6EAB8, symBinAddr: 0xE207C, symSize: 0xB4 }
  - { offset: 0x564571, size: 0x8, addend: 0x0, symName: __ZNSt3__112__hash_tableINS_17__hash_value_typeIjP19ggml_backend_bufferEENS_22__unordered_map_hasherIjNS_4pairIKjS3_EENS_4hashIjEENS_8equal_toIjEELb1EEENS_21__unordered_map_equalIjS8_SC_SA_Lb1EEENS_9allocatorIS8_EEE11__do_rehashILb1EEEvm, symObjAddr: 0x6EBB4, symBinAddr: 0xE2178, symSize: 0x18C }
  - { offset: 0x56491C, size: 0x8, addend: 0x0, symName: __ZNSt3__112__hash_tableINS_17__hash_value_typeIjP19ggml_backend_bufferEENS_22__unordered_map_hasherIjNS_4pairIKjS3_EENS_4hashIjEENS_8equal_toIjEELb1EEENS_21__unordered_map_equalIjS8_SC_SA_Lb1EEENS_9allocatorIS8_EEE25__emplace_unique_key_argsIjJRjRS3_EEENS6_INS_15__hash_iteratorIPNS_11__hash_nodeIS4_PvEEEEbEERKT_DpOT0_, symObjAddr: 0x6ED54, symBinAddr: 0xE2304, symSize: 0x304 }
  - { offset: 0x565074, size: 0x8, addend: 0x0, symName: __ZNSt3__16vectorINS_4pairINS_10unique_ptrI12ggml_context20ggml_context_deleterEENS0_INS2_I19ggml_backend_buffer27ggml_backend_buffer_deleterEENS_9allocatorIS8_EEEEEENS9_ISC_EEE24__emplace_back_slow_pathIJS5_SB_EEEPSC_DpOT_, symObjAddr: 0x6F06C, symBinAddr: 0xE2608, symSize: 0x114 }
  - { offset: 0x565504, size: 0x8, addend: 0x0, symName: __ZNSt3__16vectorINS_4pairIP12ggml_contextNS_13unordered_mapIjP19ggml_backend_bufferNS_4hashIjEENS_8equal_toIjEENS_9allocatorINS1_IKjS6_EEEEEEEENSB_ISG_EEE24__emplace_back_slow_pathIJRS3_RSF_EEEPSG_DpOT_, symObjAddr: 0x6F180, symBinAddr: 0xE271C, symSize: 0x16C }
  - { offset: 0x56551F, size: 0x8, addend: 0x0, symName: __ZNSt3__113unordered_mapIjP19ggml_backend_bufferNS_4hashIjEENS_8equal_toIjEENS_9allocatorINS_4pairIKjS2_EEEEEC2ERKSC_, symObjAddr: 0x6F2EC, symBinAddr: 0xE2888, symSize: 0x134 }
  - { offset: 0x5658D4, size: 0x8, addend: 0x0, symName: __ZNSt3__16vectorINS_4pairIP12ggml_contextNS_13unordered_mapIjP19ggml_backend_bufferNS_4hashIjEENS_8equal_toIjEENS_9allocatorINS1_IKjS6_EEEEEEEENSB_ISG_EEE24__emplace_back_slow_pathIJRS3_RSF_EEEPSG_DpOT_, symObjAddr: 0x6F180, symBinAddr: 0xE271C, symSize: 0x16C }
  - { offset: 0x565FAC, size: 0x8, addend: 0x0, symName: __ZNSt3__16vectorINS_4pairINS_12basic_stringIcNS_11char_traitsIcEENS_9allocatorIcEEEEP11ggml_tensorEENS5_ISA_EEE20__throw_length_errorB9nqe210106Ev, symObjAddr: 0x6E8A8, symBinAddr: 0xE1E80, symSize: 0x14 }
  - { offset: 0x565FF3, size: 0x8, addend: 0x0, symName: __ZNSt3__16vectorINS_4pairIP19ggml_backend_deviceP24ggml_backend_buffer_typeEENS_9allocatorIS6_EEE20__throw_length_errorB9nqe210106Ev, symObjAddr: 0x64D64, symBinAddr: 0xE11EC, symSize: 0x14 }
  - { offset: 0x56600B, size: 0x8, addend: 0x0, symName: __ZNSt3__16vectorI12llama_deviceNS_9allocatorIS1_EEE20__throw_out_of_rangeB9nqe210106Ev, symObjAddr: 0x64D78, symBinAddr: 0xE1200, symSize: 0x14 }
  - { offset: 0x566020, size: 0x8, addend: 0x0, symName: __ZNSt3__112__hash_tableINS_17__hash_value_typeIjP19ggml_backend_bufferEENS_22__unordered_map_hasherIjNS_4pairIKjS3_EENS_4hashIjEENS_8equal_toIjEELb1EEENS_21__unordered_map_equalIjS8_SC_SA_Lb1EEENS_9allocatorIS8_EEE25__emplace_unique_key_argsIjJRjRS3_EEENS6_INS_15__hash_iteratorIPNS_11__hash_nodeIS4_PvEEEEbEERKT_DpOT0_, symObjAddr: 0x6ED54, symBinAddr: 0xE2304, symSize: 0x304 }
  - { offset: 0x566035, size: 0x8, addend: 0x0, symName: __ZNSt3__16vectorINS_4pairIP12ggml_contextNS_13unordered_mapIjP19ggml_backend_bufferNS_4hashIjEENS_8equal_toIjEENS_9allocatorINS1_IKjS6_EEEEEEEENSB_ISG_EEE20__throw_length_errorB9nqe210106Ev, symObjAddr: 0x6E8D0, symBinAddr: 0xE1E94, symSize: 0x14 }
  - { offset: 0x56604A, size: 0x8, addend: 0x0, symName: __ZNSt3__16vectorINS_4pairINS_10unique_ptrI12ggml_context20ggml_context_deleterEENS0_INS2_I19ggml_backend_buffer27ggml_backend_buffer_deleterEENS_9allocatorIS8_EEEEEENS9_ISC_EEE24__emplace_back_slow_pathIJS5_SB_EEEPSC_DpOT_, symObjAddr: 0x6F06C, symBinAddr: 0xE2608, symSize: 0x114 }
  - { offset: 0x566055, size: 0x8, addend: 0x0, symName: __ZNSt3__16vectorINS_4pairINS_10unique_ptrI12ggml_context20ggml_context_deleterEENS0_INS2_I19ggml_backend_buffer27ggml_backend_buffer_deleterEENS_9allocatorIS8_EEEEEENS9_ISC_EEE20__throw_length_errorB9nqe210106Ev, symObjAddr: 0x6EAA4, symBinAddr: 0xE2068, symSize: 0x14 }
  - { offset: 0x56606D, size: 0x8, addend: 0x0, symName: __ZNSt3__114__split_bufferINS_4pairINS_10unique_ptrI12ggml_context20ggml_context_deleterEENS_6vectorINS2_I19ggml_backend_buffer27ggml_backend_buffer_deleterEENS_9allocatorIS9_EEEEEERNSA_ISD_EEE17__destruct_at_endB9nqe210106EPSD_, symObjAddr: 0x6EAB8, symBinAddr: 0xE207C, symSize: 0xB4 }
  - { offset: 0x566078, size: 0x8, addend: 0x0, symName: __ZNSt3__16vectorINS_10unique_ptrI19ggml_backend_buffer27ggml_backend_buffer_deleterEENS_9allocatorIS4_EEED1B9nqe210106Ev, symObjAddr: 0x5A360, symBinAddr: 0xDA23C, symSize: 0x70 }
  - { offset: 0x56624C, size: 0x8, addend: 0x0, symName: __ZNSt3__113unordered_mapIjP19ggml_backend_bufferNS_4hashIjEENS_8equal_toIjEENS_9allocatorINS_4pairIKjS2_EEEEED1B9nqe210106Ev, symObjAddr: 0x5A3D0, symBinAddr: 0xDA2AC, symSize: 0x48 }
  - { offset: 0x5664AC, size: 0x8, addend: 0x0, symName: __ZNSt3__114__split_bufferINS_4pairINS_12basic_stringIcNS_11char_traitsIcEENS_9allocatorIcEEEEP11ggml_tensorEERNS5_ISA_EEED1Ev, symObjAddr: 0x6E844, symBinAddr: 0xE1E1C, symSize: 0x64 }
  - { offset: 0x5666A9, size: 0x8, addend: 0x0, symName: __ZNSt3__16vectorINS_4pairIP12ggml_contextNS_13unordered_mapIjP19ggml_backend_bufferNS_4hashIjEENS_8equal_toIjEENS_9allocatorINS1_IKjS6_EEEEEEEENSB_ISG_EEED1B9nqe210106Ev, symObjAddr: 0x5A418, symBinAddr: 0xDA2F4, symSize: 0x88 }
  - { offset: 0x566AA6, size: 0x8, addend: 0x0, symName: __ZNK11llama_model12n_gpu_layersEv, symObjAddr: 0x59860, symBinAddr: 0xD973C, symSize: 0x20 }
  - { offset: 0x566AC8, size: 0x8, addend: 0x0, symName: __ZNK11llama_model9n_devicesEv, symObjAddr: 0x59880, symBinAddr: 0xD975C, symSize: 0x14 }
  - { offset: 0x566AEC, size: 0x8, addend: 0x0, symName: __ZNK11llama_model9n_devicesEv, symObjAddr: 0x59880, symBinAddr: 0xD975C, symSize: 0x14 }
  - { offset: 0x566C3A, size: 0x8, addend: 0x0, symName: __ZNSt3__16vectorI12llama_deviceNS_9allocatorIS1_EEE20__throw_out_of_rangeB9nqe210106Ev, symObjAddr: 0x64D78, symBinAddr: 0xE1200, symSize: 0x14 }
  - { offset: 0x566DC4, size: 0x8, addend: 0x0, symName: __ZNSt3__16vectorINS_4pairIP12ggml_contextNS_13unordered_mapIjP19ggml_backend_bufferNS_4hashIjEENS_8equal_toIjEENS_9allocatorINS1_IKjS6_EEEEEEEENSB_ISG_EEE26__swap_out_circular_bufferERNS_14__split_bufferISG_RSH_EE, symObjAddr: 0x6E8E4, symBinAddr: 0xE1EA8, symSize: 0x144 }
  - { offset: 0x567444, size: 0x8, addend: 0x0, symName: __ZNSt3__16vectorINS_4pairIP12ggml_contextNS_13unordered_mapIjP19ggml_backend_bufferNS_4hashIjEENS_8equal_toIjEENS_9allocatorINS1_IKjS6_EEEEEEEENSB_ISG_EEE20__throw_length_errorB9nqe210106Ev, symObjAddr: 0x6E8D0, symBinAddr: 0xE1E94, symSize: 0x14 }
  - { offset: 0x56745C, size: 0x8, addend: 0x0, symName: __ZNSt3__16vectorINS_4pairIP12ggml_contextNS_13unordered_mapIjP19ggml_backend_bufferNS_4hashIjEENS_8equal_toIjEENS_9allocatorINS1_IKjS6_EEEEEEEENSB_ISG_EEE26__swap_out_circular_bufferERNS_14__split_bufferISG_RSH_EE, symObjAddr: 0x6E8E4, symBinAddr: 0xE1EA8, symSize: 0x144 }
  - { offset: 0x567467, size: 0x8, addend: 0x0, symName: __ZNSt3__114__split_bufferINS_4pairIP12ggml_contextNS_13unordered_mapIjP19ggml_backend_bufferNS_4hashIjEENS_8equal_toIjEENS_9allocatorINS1_IKjS6_EEEEEEEERNSB_ISG_EEED1Ev, symObjAddr: 0x6EA28, symBinAddr: 0xE1FEC, symSize: 0x7C }
  - { offset: 0x56787B, size: 0x8, addend: 0x0, symName: __ZNK11llama_model4descEv, symObjAddr: 0x5A4A0, symBinAddr: 0xDA37C, symSize: 0x2C }
  - { offset: 0x56789F, size: 0x8, addend: 0x0, symName: __ZNK11llama_model4descEv, symObjAddr: 0x5A4A0, symBinAddr: 0xDA37C, symSize: 0x2C }
  - { offset: 0x567A31, size: 0x8, addend: 0x0, symName: __ZNK11llama_model4sizeEv, symObjAddr: 0x5A4CC, symBinAddr: 0xDA3A8, symSize: 0xC }
  - { offset: 0x567A55, size: 0x8, addend: 0x0, symName: __ZNK11llama_model4sizeEv, symObjAddr: 0x5A4CC, symBinAddr: 0xDA3A8, symSize: 0xC }
  - { offset: 0x567A74, size: 0x8, addend: 0x0, symName: __ZNK11llama_model9n_tensorsEv, symObjAddr: 0x5A4D8, symBinAddr: 0xDA3B4, symSize: 0x14 }
  - { offset: 0x567AA0, size: 0x8, addend: 0x0, symName: __ZNK11llama_model9n_tensorsEv, symObjAddr: 0x5A4D8, symBinAddr: 0xDA3B4, symSize: 0x14 }
  - { offset: 0x567ABF, size: 0x8, addend: 0x0, symName: __ZNK11llama_model10split_modeEv, symObjAddr: 0x5A4EC, symBinAddr: 0xDA3C8, symSize: 0xC }
  - { offset: 0x568407, size: 0x8, addend: 0x0, symName: __ZNK11llama_model16memory_breakdownEv, symObjAddr: 0x5A4F8, symBinAddr: 0xDA3D4, symSize: 0x4F8 }
  - { offset: 0x5690DF, size: 0x8, addend: 0x0, symName: __ZNK11llama_model10n_elementsEv, symObjAddr: 0x5A9F0, symBinAddr: 0xDA8CC, symSize: 0xC }
  - { offset: 0x569103, size: 0x8, addend: 0x0, symName: __ZNK11llama_model10n_elementsEv, symObjAddr: 0x5A9F0, symBinAddr: 0xDA8CC, symSize: 0xC }
  - { offset: 0x5699C3, size: 0x8, addend: 0x0, symName: '__ZZNK11llama_model10print_infoEvENK3$_6clERKNSt3__18functionIFjjEEEj', symObjAddr: 0x5BC88, symBinAddr: 0xDBB64, symSize: 0x2A8 }
  - { offset: 0x56A8F5, size: 0x8, addend: 0x0, symName: __ZNK11llama_model9dev_layerEi, symObjAddr: 0x5BF30, symBinAddr: 0xDBE0C, symSize: 0x30 }
  - { offset: 0x56A931, size: 0x8, addend: 0x0, symName: __ZNK11llama_model9dev_layerEi, symObjAddr: 0x5BF30, symBinAddr: 0xDBE0C, symSize: 0x30 }
  - { offset: 0x56A992, size: 0x8, addend: 0x0, symName: __ZNK11llama_model10dev_outputEv, symObjAddr: 0x5BF60, symBinAddr: 0xDBE3C, symSize: 0xC }
  - { offset: 0x56A99D, size: 0x8, addend: 0x0, symName: __ZNK11llama_model10dev_outputEv, symObjAddr: 0x5BF60, symBinAddr: 0xDBE3C, symSize: 0xC }
  - { offset: 0x56A9C9, size: 0x8, addend: 0x0, symName: __ZNK11llama_model10dev_outputEv, symObjAddr: 0x5BF60, symBinAddr: 0xDBE3C, symSize: 0xC }
  - { offset: 0x56AA67, size: 0x8, addend: 0x0, symName: __ZNK11llama_model11select_buftEi, symObjAddr: 0x5BF6C, symBinAddr: 0xDBE48, symSize: 0x2CC }
  - { offset: 0x56B3DE, size: 0x8, addend: 0x0, symName: __ZNK11llama_model20has_tensor_overridesEv, symObjAddr: 0x5C238, symBinAddr: 0xDC114, symSize: 0xC }
  - { offset: 0x56B40A, size: 0x8, addend: 0x0, symName: __ZNK11llama_model20has_tensor_overridesEv, symObjAddr: 0x5C238, symBinAddr: 0xDC114, symSize: 0xC }
  - { offset: 0x56B4BE, size: 0x8, addend: 0x0, symName: __ZNK11llama_model18get_rope_freq_baseERK13llama_cparamsi, symObjAddr: 0x5C304, symBinAddr: 0xDC1E0, symSize: 0x44 }
  - { offset: 0x56B508, size: 0x8, addend: 0x0, symName: __ZNK11llama_model19get_rope_freq_scaleERK13llama_cparamsi, symObjAddr: 0x5C348, symBinAddr: 0xDC224, symSize: 0x44 }
  - { offset: 0x56B574, size: 0x8, addend: 0x0, symName: __ZNK11llama_model16get_rope_factorsERK13llama_cparamsi, symObjAddr: 0x5C38C, symBinAddr: 0xDC268, symSize: 0x40 }
  - { offset: 0x56B5CC, size: 0x8, addend: 0x0, symName: __ZNK11llama_model16get_rope_factorsERK13llama_cparamsi, symObjAddr: 0x5C38C, symBinAddr: 0xDC268, symSize: 0x40 }
  - { offset: 0x56B843, size: 0x8, addend: 0x0, symName: '__ZNSt3__18functionIFbiEEaSIZNK11llama_model13create_memoryERK19llama_memory_paramsRK13llama_cparamsE3$_2vEERS2_OT_', symObjAddr: 0x5CAB0, symBinAddr: 0xDC98C, symSize: 0x9C }
  - { offset: 0x56BA0C, size: 0x8, addend: 0x0, symName: '__ZNSt3__18functionIFbiEEaSIZNK11llama_model13create_memoryERK19llama_memory_paramsRK13llama_cparamsE3$_3vEERS2_OT_', symObjAddr: 0x5CB4C, symBinAddr: 0xDCA28, symSize: 0x9C }
  - { offset: 0x56BBD5, size: 0x8, addend: 0x0, symName: '__ZNSt3__18functionIFiiEEaSIZNK11llama_model13create_memoryERK19llama_memory_paramsRK13llama_cparamsE3$_4vEERS2_OT_', symObjAddr: 0x5CBE8, symBinAddr: 0xDCAC4, symSize: 0x9C }
  - { offset: 0x56BD9E, size: 0x8, addend: 0x0, symName: '__ZNSt3__18functionIFbiEEaSIZNK11llama_model13create_memoryERK19llama_memory_paramsRK13llama_cparamsE3$_0vEERS2_OT_', symObjAddr: 0x5C978, symBinAddr: 0xDC854, symSize: 0x9C }
  - { offset: 0x56BF59, size: 0x8, addend: 0x0, symName: '__ZNSt3__18functionIFbiEEaSIZNK11llama_model13create_memoryERK19llama_memory_paramsRK13llama_cparamsE3$_1vEERS2_OT_', symObjAddr: 0x5CA14, symBinAddr: 0xDC8F0, symSize: 0x9C }
  - { offset: 0x56C250, size: 0x8, addend: 0x0, symName: __ZNSt3__110__function12__value_funcIFbiEE4swapB9nqe210106ERS3_, symObjAddr: 0x6FD88, symBinAddr: 0xE32E0, symSize: 0x198 }
  - { offset: 0x56C809, size: 0x8, addend: 0x0, symName: __ZNSt3__110__function12__value_funcIFiiEE4swapB9nqe210106ERS3_, symObjAddr: 0x70350, symBinAddr: 0xE38A8, symSize: 0x198 }
  - { offset: 0x56CA3C, size: 0x8, addend: 0x0, symName: __ZNK11llama_model11build_graphERK16llm_graph_params, symObjAddr: 0x5CC84, symBinAddr: 0xDCB60, symSize: 0x954 }
  - { offset: 0x570644, size: 0x8, addend: 0x0, symName: _llama_model_default_params, symObjAddr: 0x5FF88, symBinAddr: 0xDFE64, symSize: 0x2C }
  - { offset: 0x570670, size: 0x8, addend: 0x0, symName: _llama_model_get_vocab, symObjAddr: 0x5FFB4, symBinAddr: 0xDFE90, symSize: 0xC }
  - { offset: 0x5706D4, size: 0x8, addend: 0x0, symName: _llama_free_model, symObjAddr: 0x5FFC0, symBinAddr: 0xDFE9C, symSize: 0x1C }
  - { offset: 0x5706FC, size: 0x8, addend: 0x0, symName: _llama_free_model, symObjAddr: 0x5FFC0, symBinAddr: 0xDFE9C, symSize: 0x1C }
  - { offset: 0x570742, size: 0x8, addend: 0x0, symName: _llama_model_free, symObjAddr: 0x5FFDC, symBinAddr: 0xDFEB8, symSize: 0x1C }
  - { offset: 0x570789, size: 0x8, addend: 0x0, symName: _llama_model_n_ctx_train, symObjAddr: 0x5FFF8, symBinAddr: 0xDFED4, symSize: 0x8 }
  - { offset: 0x5707A7, size: 0x8, addend: 0x0, symName: _llama_model_n_embd, symObjAddr: 0x60000, symBinAddr: 0xDFEDC, symSize: 0x8 }
  - { offset: 0x5707C5, size: 0x8, addend: 0x0, symName: _llama_model_n_embd_inp, symObjAddr: 0x60008, symBinAddr: 0xDFEE4, symSize: 0x8 }
  - { offset: 0x5707F1, size: 0x8, addend: 0x0, symName: _llama_model_n_embd_out, symObjAddr: 0x60010, symBinAddr: 0xDFEEC, symSize: 0x8 }
  - { offset: 0x57081D, size: 0x8, addend: 0x0, symName: _llama_model_n_layer, symObjAddr: 0x60018, symBinAddr: 0xDFEF4, symSize: 0x8 }
  - { offset: 0x57083B, size: 0x8, addend: 0x0, symName: _llama_model_n_head, symObjAddr: 0x60020, symBinAddr: 0xDFEFC, symSize: 0xC }
  - { offset: 0x570859, size: 0x8, addend: 0x0, symName: _llama_model_n_head_kv, symObjAddr: 0x6002C, symBinAddr: 0xDFF08, symSize: 0xC }
  - { offset: 0x570885, size: 0x8, addend: 0x0, symName: _llama_model_n_swa, symObjAddr: 0x60038, symBinAddr: 0xDFF14, symSize: 0x8 }
  - { offset: 0x5708B1, size: 0x8, addend: 0x0, symName: _llama_model_n_cls_out, symObjAddr: 0x60040, symBinAddr: 0xDFF1C, symSize: 0x8 }
  - { offset: 0x5708FF, size: 0x8, addend: 0x0, symName: _llama_model_cls_label, symObjAddr: 0x60048, symBinAddr: 0xDFF24, symSize: 0x4C }
  - { offset: 0x570A11, size: 0x8, addend: 0x0, symName: _llama_n_ctx_train, symObjAddr: 0x60094, symBinAddr: 0xDFF70, symSize: 0x8 }
  - { offset: 0x570A3F, size: 0x8, addend: 0x0, symName: _llama_n_ctx_train, symObjAddr: 0x60094, symBinAddr: 0xDFF70, symSize: 0x8 }
  - { offset: 0x570A75, size: 0x8, addend: 0x0, symName: _llama_n_embd, symObjAddr: 0x6009C, symBinAddr: 0xDFF78, symSize: 0x8 }
  - { offset: 0x570AA3, size: 0x8, addend: 0x0, symName: _llama_n_embd, symObjAddr: 0x6009C, symBinAddr: 0xDFF78, symSize: 0x8 }
  - { offset: 0x570AD9, size: 0x8, addend: 0x0, symName: _llama_n_layer, symObjAddr: 0x600A4, symBinAddr: 0xDFF80, symSize: 0x8 }
  - { offset: 0x570B07, size: 0x8, addend: 0x0, symName: _llama_n_layer, symObjAddr: 0x600A4, symBinAddr: 0xDFF80, symSize: 0x8 }
  - { offset: 0x570B3D, size: 0x8, addend: 0x0, symName: _llama_n_head, symObjAddr: 0x600AC, symBinAddr: 0xDFF88, symSize: 0xC }
  - { offset: 0x570B6B, size: 0x8, addend: 0x0, symName: _llama_n_head, symObjAddr: 0x600AC, symBinAddr: 0xDFF88, symSize: 0xC }
  - { offset: 0x570B88, size: 0x8, addend: 0x0, symName: _llama_model_rope_freq_scale_train, symObjAddr: 0x600B8, symBinAddr: 0xDFF94, symSize: 0x8 }
  - { offset: 0x570BDA, size: 0x8, addend: 0x0, symName: _llama_model_meta_val_str, symObjAddr: 0x600C0, symBinAddr: 0xDFF9C, symSize: 0x144 }
  - { offset: 0x5713EB, size: 0x8, addend: 0x0, symName: _llama_model_meta_count, symObjAddr: 0x60204, symBinAddr: 0xE00E0, symSize: 0xC }
  - { offset: 0x571459, size: 0x8, addend: 0x0, symName: _llama_model_meta_key_str, symObjAddr: 0x60210, symBinAddr: 0xE00EC, symSize: 0x20 }
  - { offset: 0x571539, size: 0x8, addend: 0x0, symName: _llama_model_meta_key_by_index, symObjAddr: 0x60230, symBinAddr: 0xE010C, symSize: 0x88 }
  - { offset: 0x571778, size: 0x8, addend: 0x0, symName: _llama_model_meta_val_str_by_index, symObjAddr: 0x602B8, symBinAddr: 0xE0194, symSize: 0x88 }
  - { offset: 0x571987, size: 0x8, addend: 0x0, symName: _llama_model_desc, symObjAddr: 0x60340, symBinAddr: 0xE021C, symSize: 0xAC }
  - { offset: 0x571C1F, size: 0x8, addend: 0x0, symName: _llama_model_size, symObjAddr: 0x603EC, symBinAddr: 0xE02C8, symSize: 0xC }
  - { offset: 0x571C4D, size: 0x8, addend: 0x0, symName: _llama_model_size, symObjAddr: 0x603EC, symBinAddr: 0xE02C8, symSize: 0xC }
  - { offset: 0x571C69, size: 0x8, addend: 0x0, symName: _llama_model_size, symObjAddr: 0x603EC, symBinAddr: 0xE02C8, symSize: 0xC }
  - { offset: 0x571C89, size: 0x8, addend: 0x0, symName: _llama_model_chat_template, symObjAddr: 0x603F8, symBinAddr: 0xE02D4, symSize: 0x12C }
  - { offset: 0x571FAA, size: 0x8, addend: 0x0, symName: _llama_model_n_params, symObjAddr: 0x60524, symBinAddr: 0xE0400, symSize: 0xC }
  - { offset: 0x571FD8, size: 0x8, addend: 0x0, symName: _llama_model_n_params, symObjAddr: 0x60524, symBinAddr: 0xE0400, symSize: 0xC }
  - { offset: 0x571FF4, size: 0x8, addend: 0x0, symName: _llama_model_n_params, symObjAddr: 0x60524, symBinAddr: 0xE0400, symSize: 0xC }
  - { offset: 0x572014, size: 0x8, addend: 0x0, symName: _llama_model_has_encoder, symObjAddr: 0x60530, symBinAddr: 0xE040C, symSize: 0x14 }
  - { offset: 0x572040, size: 0x8, addend: 0x0, symName: _llama_model_has_decoder, symObjAddr: 0x60544, symBinAddr: 0xE0420, symSize: 0x10 }
  - { offset: 0x57206C, size: 0x8, addend: 0x0, symName: _llama_model_decoder_start_token, symObjAddr: 0x60554, symBinAddr: 0xE0430, symSize: 0xC }
  - { offset: 0x572098, size: 0x8, addend: 0x0, symName: _llama_model_is_recurrent, symObjAddr: 0x60560, symBinAddr: 0xE043C, symSize: 0x8 }
  - { offset: 0x5720D2, size: 0x8, addend: 0x0, symName: _llama_model_is_hybrid, symObjAddr: 0x60568, symBinAddr: 0xE0444, symSize: 0x8 }
  - { offset: 0x57210C, size: 0x8, addend: 0x0, symName: _llama_model_is_diffusion, symObjAddr: 0x60570, symBinAddr: 0xE044C, symSize: 0x8 }
  - { offset: 0x57215C, size: 0x8, addend: 0x0, symName: __Z29llama_internal_get_tensor_mapPK11llama_model, symObjAddr: 0x60578, symBinAddr: 0xE0454, symSize: 0xC }
  - { offset: 0x588F68, size: 0x8, addend: 0x0, symName: __ZNSt3__13mapI23llama_rope_scaling_typePKcNS_4lessIS1_EENS_9allocatorINS_4pairIKS1_S3_EEEEEC2B9nqe210106ESt16initializer_listIS9_ERKS5_, symObjAddr: 0x6CE1C, symBinAddr: 0xE1214, symSize: 0x178 }
  - { offset: 0x589989, size: 0x8, addend: 0x0, symName: __ZNSt3__16__treeINS_12__value_typeIP19ggml_backend_deviceNS_6vectorINS_4pairIS3_P24ggml_backend_buffer_typeEENS_9allocatorIS8_EEEEEENS_19__map_value_compareIS3_NS5_IKS3_SB_EENS_4lessIS3_EELb1EEENS9_ISF_EEE7destroyEPNS_11__tree_nodeISC_PvEE, symObjAddr: 0x6D318, symBinAddr: 0xE153C, symSize: 0x50 }
  - { offset: 0x589C06, size: 0x8, addend: 0x0, symName: __ZNSt3__16vectorINS_4pairINS_10unique_ptrI12ggml_context20ggml_context_deleterEENS0_INS2_I19ggml_backend_buffer27ggml_backend_buffer_deleterEENS_9allocatorIS8_EEEEEENS9_ISC_EEE22__base_destruct_at_endB9nqe210106EPSC_, symObjAddr: 0x6D368, symBinAddr: 0xE158C, symSize: 0xA8 }
  - { offset: 0x58B910, size: 0x8, addend: 0x0, symName: __ZNSt3__16vectorINS_4pairIP19ggml_backend_deviceP24ggml_backend_buffer_typeEENS_9allocatorIS6_EEE18__insert_with_sizeB9nqe210106INS_11__wrap_iterIPS6_EESD_EESD_NSB_IPKS6_EET_T0_l, symObjAddr: 0x6E05C, symBinAddr: 0xE1634, symSize: 0x4E0 }
  - { offset: 0x58C20E, size: 0x8, addend: 0x0, symName: __ZNSt3__16vectorIN11llama_model4impl9layer_devENS_9allocatorIS3_EEE20__throw_length_errorB9nqe210106Ev, symObjAddr: 0x6E654, symBinAddr: 0xE1C2C, symSize: 0x14 }
  - { offset: 0x58C226, size: 0x8, addend: 0x0, symName: __ZNSt3__16vectorIN11llama_model4impl9layer_devENS_9allocatorIS3_EEE20__throw_out_of_rangeB9nqe210106Ev, symObjAddr: 0x6E668, symBinAddr: 0xE1C40, symSize: 0x14 }
  - { offset: 0x58C536, size: 0x8, addend: 0x0, symName: __ZNSt3__16vectorI11llama_layerNS_9allocatorIS1_EEE20__throw_length_errorB9nqe210106Ev, symObjAddr: 0x6E830, symBinAddr: 0xE1E08, symSize: 0x14 }
  - { offset: 0x58C54E, size: 0x8, addend: 0x0, symName: __ZNSt3__114__split_bufferINS_4pairINS_12basic_stringIcNS_11char_traitsIcEENS_9allocatorIcEEEEP11ggml_tensorEERNS5_ISA_EEED1Ev, symObjAddr: 0x6E844, symBinAddr: 0xE1E1C, symSize: 0x64 }
  - { offset: 0x58C822, size: 0x8, addend: 0x0, symName: __ZNSt3__112__hash_tableINS_17__hash_value_typeIjP19ggml_backend_bufferEENS_22__unordered_map_hasherIjNS_4pairIKjS3_EENS_4hashIjEENS_8equal_toIjEELb1EEENS_21__unordered_map_equalIjS8_SC_SA_Lb1EEENS_9allocatorIS8_EEED1Ev, symObjAddr: 0x6EB6C, symBinAddr: 0xE2130, symSize: 0x48 }
  - { offset: 0x58D125, size: 0x8, addend: 0x0, symName: __ZNSt3__112__hash_tableINS_17__hash_value_typeIjP19ggml_backend_bufferEENS_22__unordered_map_hasherIjNS_4pairIKjS3_EENS_4hashIjEENS_8equal_toIjEELb1EEENS_21__unordered_map_equalIjS8_SC_SA_Lb1EEENS_9allocatorIS8_EEE25__emplace_unique_key_argsIjJRKS8_EEENS6_INS_15__hash_iteratorIPNS_11__hash_nodeIS4_PvEEEEbEERKT_DpOT0_, symObjAddr: 0x6F420, symBinAddr: 0xE29BC, symSize: 0x304 }
  - { offset: 0x58D8B1, size: 0x8, addend: 0x0, symName: '__ZNSt3__110__function6__funcIZNK11llama_model10print_infoEvE3$_0FjjEED1Ev', symObjAddr: 0x6F768, symBinAddr: 0xE2CC0, symSize: 0x4 }
  - { offset: 0x58D8E0, size: 0x8, addend: 0x0, symName: '__ZNSt3__110__function6__funcIZNK11llama_model10print_infoEvE3$_0FjjEED0Ev', symObjAddr: 0x6F76C, symBinAddr: 0xE2CC4, symSize: 0x4 }
  - { offset: 0x58D955, size: 0x8, addend: 0x0, symName: '__ZNKSt3__110__function6__funcIZNK11llama_model10print_infoEvE3$_0FjjEE7__cloneEv', symObjAddr: 0x6F770, symBinAddr: 0xE2CC8, symSize: 0x34 }
  - { offset: 0x58D9B4, size: 0x8, addend: 0x0, symName: '__ZNKSt3__110__function6__funcIZNK11llama_model10print_infoEvE3$_0FjjEE7__cloneEPNS0_6__baseIS4_EE', symObjAddr: 0x6F7A4, symBinAddr: 0xE2CFC, symSize: 0x14 }
  - { offset: 0x58DA1F, size: 0x8, addend: 0x0, symName: '__ZNSt3__110__function6__funcIZNK11llama_model10print_infoEvE3$_0FjjEE7destroyEv', symObjAddr: 0x6F7B8, symBinAddr: 0xE2D10, symSize: 0x4 }
  - { offset: 0x58DA42, size: 0x8, addend: 0x0, symName: '__ZNSt3__110__function6__funcIZNK11llama_model10print_infoEvE3$_0FjjEE18destroy_deallocateEv', symObjAddr: 0x6F7BC, symBinAddr: 0xE2D14, symSize: 0x14 }
  - { offset: 0x58DADB, size: 0x8, addend: 0x0, symName: '__ZNSt3__110__function6__funcIZNK11llama_model10print_infoEvE3$_0FjjEEclEOj', symObjAddr: 0x6F7D0, symBinAddr: 0xE2D28, symSize: 0x10 }
  - { offset: 0x58DB6E, size: 0x8, addend: 0x0, symName: '__ZNKSt3__110__function6__funcIZNK11llama_model10print_infoEvE3$_0FjjEE6targetERKSt9type_info', symObjAddr: 0x6F7E0, symBinAddr: 0xE2D38, symSize: 0x60 }
  - { offset: 0x58DC21, size: 0x8, addend: 0x0, symName: '__ZNKSt3__110__function6__funcIZNK11llama_model10print_infoEvE3$_0FjjEE11target_typeEv', symObjAddr: 0x6F840, symBinAddr: 0xE2D98, symSize: 0xC }
  - { offset: 0x58DC44, size: 0x8, addend: 0x0, symName: '__ZNSt3__110__function6__funcIZNK11llama_model10print_infoEvE3$_1FjjEED1Ev', symObjAddr: 0x6F84C, symBinAddr: 0xE2DA4, symSize: 0x4 }
  - { offset: 0x58DC73, size: 0x8, addend: 0x0, symName: '__ZNSt3__110__function6__funcIZNK11llama_model10print_infoEvE3$_1FjjEED0Ev', symObjAddr: 0x6F850, symBinAddr: 0xE2DA8, symSize: 0x4 }
  - { offset: 0x58DCE8, size: 0x8, addend: 0x0, symName: '__ZNKSt3__110__function6__funcIZNK11llama_model10print_infoEvE3$_1FjjEE7__cloneEv', symObjAddr: 0x6F854, symBinAddr: 0xE2DAC, symSize: 0x34 }
  - { offset: 0x58DD47, size: 0x8, addend: 0x0, symName: '__ZNKSt3__110__function6__funcIZNK11llama_model10print_infoEvE3$_1FjjEE7__cloneEPNS0_6__baseIS4_EE', symObjAddr: 0x6F888, symBinAddr: 0xE2DE0, symSize: 0x14 }
  - { offset: 0x58DDB2, size: 0x8, addend: 0x0, symName: '__ZNSt3__110__function6__funcIZNK11llama_model10print_infoEvE3$_1FjjEE7destroyEv', symObjAddr: 0x6F89C, symBinAddr: 0xE2DF4, symSize: 0x4 }
  - { offset: 0x58DDD5, size: 0x8, addend: 0x0, symName: '__ZNSt3__110__function6__funcIZNK11llama_model10print_infoEvE3$_1FjjEE18destroy_deallocateEv', symObjAddr: 0x6F8A0, symBinAddr: 0xE2DF8, symSize: 0x14 }
  - { offset: 0x58DE6E, size: 0x8, addend: 0x0, symName: '__ZNSt3__110__function6__funcIZNK11llama_model10print_infoEvE3$_1FjjEEclEOj', symObjAddr: 0x6F8B4, symBinAddr: 0xE2E0C, symSize: 0x10 }
  - { offset: 0x58DF01, size: 0x8, addend: 0x0, symName: '__ZNKSt3__110__function6__funcIZNK11llama_model10print_infoEvE3$_1FjjEE6targetERKSt9type_info', symObjAddr: 0x6F8C4, symBinAddr: 0xE2E1C, symSize: 0x60 }
  - { offset: 0x58DFB4, size: 0x8, addend: 0x0, symName: '__ZNKSt3__110__function6__funcIZNK11llama_model10print_infoEvE3$_1FjjEE11target_typeEv', symObjAddr: 0x6F924, symBinAddr: 0xE2E7C, symSize: 0xC }
  - { offset: 0x58DFD7, size: 0x8, addend: 0x0, symName: '__ZNSt3__110__function6__funcIZNK11llama_model10print_infoEvE3$_2FjjEED1Ev', symObjAddr: 0x6F930, symBinAddr: 0xE2E88, symSize: 0x4 }
  - { offset: 0x58E006, size: 0x8, addend: 0x0, symName: '__ZNSt3__110__function6__funcIZNK11llama_model10print_infoEvE3$_2FjjEED0Ev', symObjAddr: 0x6F934, symBinAddr: 0xE2E8C, symSize: 0x4 }
  - { offset: 0x58E07B, size: 0x8, addend: 0x0, symName: '__ZNKSt3__110__function6__funcIZNK11llama_model10print_infoEvE3$_2FjjEE7__cloneEv', symObjAddr: 0x6F938, symBinAddr: 0xE2E90, symSize: 0x34 }
  - { offset: 0x58E0DA, size: 0x8, addend: 0x0, symName: '__ZNKSt3__110__function6__funcIZNK11llama_model10print_infoEvE3$_2FjjEE7__cloneEPNS0_6__baseIS4_EE', symObjAddr: 0x6F96C, symBinAddr: 0xE2EC4, symSize: 0x14 }
  - { offset: 0x58E145, size: 0x8, addend: 0x0, symName: '__ZNSt3__110__function6__funcIZNK11llama_model10print_infoEvE3$_2FjjEE7destroyEv', symObjAddr: 0x6F980, symBinAddr: 0xE2ED8, symSize: 0x4 }
  - { offset: 0x58E168, size: 0x8, addend: 0x0, symName: '__ZNSt3__110__function6__funcIZNK11llama_model10print_infoEvE3$_2FjjEE18destroy_deallocateEv', symObjAddr: 0x6F984, symBinAddr: 0xE2EDC, symSize: 0x14 }
  - { offset: 0x58E201, size: 0x8, addend: 0x0, symName: '__ZNSt3__110__function6__funcIZNK11llama_model10print_infoEvE3$_2FjjEEclEOj', symObjAddr: 0x6F998, symBinAddr: 0xE2EF0, symSize: 0x10 }
  - { offset: 0x58E294, size: 0x8, addend: 0x0, symName: '__ZNKSt3__110__function6__funcIZNK11llama_model10print_infoEvE3$_2FjjEE6targetERKSt9type_info', symObjAddr: 0x6F9A8, symBinAddr: 0xE2F00, symSize: 0x60 }
  - { offset: 0x58E347, size: 0x8, addend: 0x0, symName: '__ZNKSt3__110__function6__funcIZNK11llama_model10print_infoEvE3$_2FjjEE11target_typeEv', symObjAddr: 0x6FA08, symBinAddr: 0xE2F60, symSize: 0xC }
  - { offset: 0x58E36A, size: 0x8, addend: 0x0, symName: '__ZNSt3__110__function6__funcIZNK11llama_model10print_infoEvE3$_3FjjEED1Ev', symObjAddr: 0x6FA14, symBinAddr: 0xE2F6C, symSize: 0x4 }
  - { offset: 0x58E399, size: 0x8, addend: 0x0, symName: '__ZNSt3__110__function6__funcIZNK11llama_model10print_infoEvE3$_3FjjEED0Ev', symObjAddr: 0x6FA18, symBinAddr: 0xE2F70, symSize: 0x4 }
  - { offset: 0x58E40E, size: 0x8, addend: 0x0, symName: '__ZNKSt3__110__function6__funcIZNK11llama_model10print_infoEvE3$_3FjjEE7__cloneEv', symObjAddr: 0x6FA1C, symBinAddr: 0xE2F74, symSize: 0x34 }
  - { offset: 0x58E46D, size: 0x8, addend: 0x0, symName: '__ZNKSt3__110__function6__funcIZNK11llama_model10print_infoEvE3$_3FjjEE7__cloneEPNS0_6__baseIS4_EE', symObjAddr: 0x6FA50, symBinAddr: 0xE2FA8, symSize: 0x14 }
  - { offset: 0x58E4D8, size: 0x8, addend: 0x0, symName: '__ZNSt3__110__function6__funcIZNK11llama_model10print_infoEvE3$_3FjjEE7destroyEv', symObjAddr: 0x6FA64, symBinAddr: 0xE2FBC, symSize: 0x4 }
  - { offset: 0x58E4FB, size: 0x8, addend: 0x0, symName: '__ZNSt3__110__function6__funcIZNK11llama_model10print_infoEvE3$_3FjjEE18destroy_deallocateEv', symObjAddr: 0x6FA68, symBinAddr: 0xE2FC0, symSize: 0x14 }
  - { offset: 0x58E594, size: 0x8, addend: 0x0, symName: '__ZNSt3__110__function6__funcIZNK11llama_model10print_infoEvE3$_3FjjEEclEOj', symObjAddr: 0x6FA7C, symBinAddr: 0xE2FD4, symSize: 0x10 }
  - { offset: 0x58E627, size: 0x8, addend: 0x0, symName: '__ZNKSt3__110__function6__funcIZNK11llama_model10print_infoEvE3$_3FjjEE6targetERKSt9type_info', symObjAddr: 0x6FA8C, symBinAddr: 0xE2FE4, symSize: 0x60 }
  - { offset: 0x58E6DA, size: 0x8, addend: 0x0, symName: '__ZNKSt3__110__function6__funcIZNK11llama_model10print_infoEvE3$_3FjjEE11target_typeEv', symObjAddr: 0x6FAEC, symBinAddr: 0xE3044, symSize: 0xC }
  - { offset: 0x58E6FD, size: 0x8, addend: 0x0, symName: '__ZNSt3__110__function6__funcIZNK11llama_model10print_infoEvE3$_4FjjEED1Ev', symObjAddr: 0x6FAF8, symBinAddr: 0xE3050, symSize: 0x4 }
  - { offset: 0x58E72C, size: 0x8, addend: 0x0, symName: '__ZNSt3__110__function6__funcIZNK11llama_model10print_infoEvE3$_4FjjEED0Ev', symObjAddr: 0x6FAFC, symBinAddr: 0xE3054, symSize: 0x4 }
  - { offset: 0x58E7A1, size: 0x8, addend: 0x0, symName: '__ZNKSt3__110__function6__funcIZNK11llama_model10print_infoEvE3$_4FjjEE7__cloneEv', symObjAddr: 0x6FB00, symBinAddr: 0xE3058, symSize: 0x34 }
  - { offset: 0x58E800, size: 0x8, addend: 0x0, symName: '__ZNKSt3__110__function6__funcIZNK11llama_model10print_infoEvE3$_4FjjEE7__cloneEPNS0_6__baseIS4_EE', symObjAddr: 0x6FB34, symBinAddr: 0xE308C, symSize: 0x14 }
  - { offset: 0x58E86B, size: 0x8, addend: 0x0, symName: '__ZNSt3__110__function6__funcIZNK11llama_model10print_infoEvE3$_4FjjEE7destroyEv', symObjAddr: 0x6FB48, symBinAddr: 0xE30A0, symSize: 0x4 }
  - { offset: 0x58E88E, size: 0x8, addend: 0x0, symName: '__ZNSt3__110__function6__funcIZNK11llama_model10print_infoEvE3$_4FjjEE18destroy_deallocateEv', symObjAddr: 0x6FB4C, symBinAddr: 0xE30A4, symSize: 0x14 }
  - { offset: 0x58E927, size: 0x8, addend: 0x0, symName: '__ZNSt3__110__function6__funcIZNK11llama_model10print_infoEvE3$_4FjjEEclEOj', symObjAddr: 0x6FB60, symBinAddr: 0xE30B8, symSize: 0x10 }
  - { offset: 0x58E9BA, size: 0x8, addend: 0x0, symName: '__ZNKSt3__110__function6__funcIZNK11llama_model10print_infoEvE3$_4FjjEE6targetERKSt9type_info', symObjAddr: 0x6FB70, symBinAddr: 0xE30C8, symSize: 0x60 }
  - { offset: 0x58EA6D, size: 0x8, addend: 0x0, symName: '__ZNKSt3__110__function6__funcIZNK11llama_model10print_infoEvE3$_4FjjEE11target_typeEv', symObjAddr: 0x6FBD0, symBinAddr: 0xE3128, symSize: 0xC }
  - { offset: 0x58EA90, size: 0x8, addend: 0x0, symName: '__ZNSt3__110__function6__funcIZNK11llama_model10print_infoEvE3$_5FjjEED1Ev', symObjAddr: 0x6FBDC, symBinAddr: 0xE3134, symSize: 0x4 }
  - { offset: 0x58EABF, size: 0x8, addend: 0x0, symName: '__ZNSt3__110__function6__funcIZNK11llama_model10print_infoEvE3$_5FjjEED0Ev', symObjAddr: 0x6FBE0, symBinAddr: 0xE3138, symSize: 0x4 }
  - { offset: 0x58EB34, size: 0x8, addend: 0x0, symName: '__ZNKSt3__110__function6__funcIZNK11llama_model10print_infoEvE3$_5FjjEE7__cloneEv', symObjAddr: 0x6FBE4, symBinAddr: 0xE313C, symSize: 0x34 }
  - { offset: 0x58EB93, size: 0x8, addend: 0x0, symName: '__ZNKSt3__110__function6__funcIZNK11llama_model10print_infoEvE3$_5FjjEE7__cloneEPNS0_6__baseIS4_EE', symObjAddr: 0x6FC18, symBinAddr: 0xE3170, symSize: 0x14 }
  - { offset: 0x58EBFE, size: 0x8, addend: 0x0, symName: '__ZNSt3__110__function6__funcIZNK11llama_model10print_infoEvE3$_5FjjEE7destroyEv', symObjAddr: 0x6FC2C, symBinAddr: 0xE3184, symSize: 0x4 }
  - { offset: 0x58EC21, size: 0x8, addend: 0x0, symName: '__ZNSt3__110__function6__funcIZNK11llama_model10print_infoEvE3$_5FjjEE18destroy_deallocateEv', symObjAddr: 0x6FC30, symBinAddr: 0xE3188, symSize: 0x14 }
  - { offset: 0x58ECBA, size: 0x8, addend: 0x0, symName: '__ZNSt3__110__function6__funcIZNK11llama_model10print_infoEvE3$_5FjjEEclEOj', symObjAddr: 0x6FC44, symBinAddr: 0xE319C, symSize: 0x10 }
  - { offset: 0x58ED4D, size: 0x8, addend: 0x0, symName: '__ZNKSt3__110__function6__funcIZNK11llama_model10print_infoEvE3$_5FjjEE6targetERKSt9type_info', symObjAddr: 0x6FC54, symBinAddr: 0xE31AC, symSize: 0x60 }
  - { offset: 0x58EE00, size: 0x8, addend: 0x0, symName: '__ZNKSt3__110__function6__funcIZNK11llama_model10print_infoEvE3$_5FjjEE11target_typeEv', symObjAddr: 0x6FCB4, symBinAddr: 0xE320C, symSize: 0xC }
  - { offset: 0x58EE23, size: 0x8, addend: 0x0, symName: '__ZNSt3__110__function6__funcIZNK11llama_model13create_memoryERK19llama_memory_paramsRK13llama_cparamsE3$_0FbiEED1Ev', symObjAddr: 0x6FCC0, symBinAddr: 0xE3218, symSize: 0x4 }
  - { offset: 0x58EE52, size: 0x8, addend: 0x0, symName: '__ZNSt3__110__function6__funcIZNK11llama_model13create_memoryERK19llama_memory_paramsRK13llama_cparamsE3$_0FbiEED0Ev', symObjAddr: 0x6FCC4, symBinAddr: 0xE321C, symSize: 0x4 }
  - { offset: 0x58EEC7, size: 0x8, addend: 0x0, symName: '__ZNKSt3__110__function6__funcIZNK11llama_model13create_memoryERK19llama_memory_paramsRK13llama_cparamsE3$_0FbiEE7__cloneEv', symObjAddr: 0x6FCC8, symBinAddr: 0xE3220, symSize: 0x24 }
  - { offset: 0x58EF22, size: 0x8, addend: 0x0, symName: '__ZNKSt3__110__function6__funcIZNK11llama_model13create_memoryERK19llama_memory_paramsRK13llama_cparamsE3$_0FbiEE7__cloneEPNS0_6__baseISA_EE', symObjAddr: 0x6FCEC, symBinAddr: 0xE3244, symSize: 0x10 }
  - { offset: 0x58EF55, size: 0x8, addend: 0x0, symName: '__ZNKSt3__110__function6__funcIZNK11llama_model13create_memoryERK19llama_memory_paramsRK13llama_cparamsE3$_0FbiEE7__cloneEPNS0_6__baseISA_EE', symObjAddr: 0x6FCEC, symBinAddr: 0xE3244, symSize: 0x10 }
  - { offset: 0x58EF70, size: 0x8, addend: 0x0, symName: '__ZNKSt3__110__function6__funcIZNK11llama_model13create_memoryERK19llama_memory_paramsRK13llama_cparamsE3$_0FbiEE7__cloneEPNS0_6__baseISA_EE', symObjAddr: 0x6FCEC, symBinAddr: 0xE3244, symSize: 0x10 }
  - { offset: 0x58EF8B, size: 0x8, addend: 0x0, symName: '__ZNSt3__110__function6__funcIZNK11llama_model13create_memoryERK19llama_memory_paramsRK13llama_cparamsE3$_0FbiEE7destroyEv', symObjAddr: 0x6FCFC, symBinAddr: 0xE3254, symSize: 0x4 }
  - { offset: 0x58EFAE, size: 0x8, addend: 0x0, symName: '__ZNSt3__110__function6__funcIZNK11llama_model13create_memoryERK19llama_memory_paramsRK13llama_cparamsE3$_0FbiEE18destroy_deallocateEv', symObjAddr: 0x6FD00, symBinAddr: 0xE3258, symSize: 0x14 }
  - { offset: 0x58EFDF, size: 0x8, addend: 0x0, symName: '__ZNSt3__110__function6__funcIZNK11llama_model13create_memoryERK19llama_memory_paramsRK13llama_cparamsE3$_0FbiEEclEOi', symObjAddr: 0x6FD14, symBinAddr: 0xE326C, symSize: 0x8 }
  - { offset: 0x58F00D, size: 0x8, addend: 0x0, symName: '__ZNKSt3__110__function6__funcIZNK11llama_model13create_memoryERK19llama_memory_paramsRK13llama_cparamsE3$_0FbiEE6targetERKSt9type_info', symObjAddr: 0x6FD1C, symBinAddr: 0xE3274, symSize: 0x60 }
  - { offset: 0x58F0C0, size: 0x8, addend: 0x0, symName: '__ZNKSt3__110__function6__funcIZNK11llama_model13create_memoryERK19llama_memory_paramsRK13llama_cparamsE3$_0FbiEE11target_typeEv', symObjAddr: 0x6FD7C, symBinAddr: 0xE32D4, symSize: 0xC }
  - { offset: 0x58F0E9, size: 0x8, addend: 0x0, symName: '__ZNSt3__110__function6__funcIZNK11llama_model13create_memoryERK19llama_memory_paramsRK13llama_cparamsE3$_1FbiEED1Ev', symObjAddr: 0x6FF20, symBinAddr: 0xE3478, symSize: 0x4 }
  - { offset: 0x58F118, size: 0x8, addend: 0x0, symName: '__ZNSt3__110__function6__funcIZNK11llama_model13create_memoryERK19llama_memory_paramsRK13llama_cparamsE3$_1FbiEED0Ev', symObjAddr: 0x6FF24, symBinAddr: 0xE347C, symSize: 0x4 }
  - { offset: 0x58F18D, size: 0x8, addend: 0x0, symName: '__ZNKSt3__110__function6__funcIZNK11llama_model13create_memoryERK19llama_memory_paramsRK13llama_cparamsE3$_1FbiEE7__cloneEv', symObjAddr: 0x6FF28, symBinAddr: 0xE3480, symSize: 0x24 }
  - { offset: 0x58F1E8, size: 0x8, addend: 0x0, symName: '__ZNKSt3__110__function6__funcIZNK11llama_model13create_memoryERK19llama_memory_paramsRK13llama_cparamsE3$_1FbiEE7__cloneEPNS0_6__baseISA_EE', symObjAddr: 0x6FF4C, symBinAddr: 0xE34A4, symSize: 0x10 }
  - { offset: 0x58F21B, size: 0x8, addend: 0x0, symName: '__ZNKSt3__110__function6__funcIZNK11llama_model13create_memoryERK19llama_memory_paramsRK13llama_cparamsE3$_1FbiEE7__cloneEPNS0_6__baseISA_EE', symObjAddr: 0x6FF4C, symBinAddr: 0xE34A4, symSize: 0x10 }
  - { offset: 0x58F236, size: 0x8, addend: 0x0, symName: '__ZNKSt3__110__function6__funcIZNK11llama_model13create_memoryERK19llama_memory_paramsRK13llama_cparamsE3$_1FbiEE7__cloneEPNS0_6__baseISA_EE', symObjAddr: 0x6FF4C, symBinAddr: 0xE34A4, symSize: 0x10 }
  - { offset: 0x58F251, size: 0x8, addend: 0x0, symName: '__ZNSt3__110__function6__funcIZNK11llama_model13create_memoryERK19llama_memory_paramsRK13llama_cparamsE3$_1FbiEE7destroyEv', symObjAddr: 0x6FF5C, symBinAddr: 0xE34B4, symSize: 0x4 }
  - { offset: 0x58F274, size: 0x8, addend: 0x0, symName: '__ZNSt3__110__function6__funcIZNK11llama_model13create_memoryERK19llama_memory_paramsRK13llama_cparamsE3$_1FbiEE18destroy_deallocateEv', symObjAddr: 0x6FF60, symBinAddr: 0xE34B8, symSize: 0x14 }
  - { offset: 0x58F2A5, size: 0x8, addend: 0x0, symName: '__ZNSt3__110__function6__funcIZNK11llama_model13create_memoryERK19llama_memory_paramsRK13llama_cparamsE3$_1FbiEEclEOi', symObjAddr: 0x6FF74, symBinAddr: 0xE34CC, symSize: 0x8 }
  - { offset: 0x58F2D3, size: 0x8, addend: 0x0, symName: '__ZNKSt3__110__function6__funcIZNK11llama_model13create_memoryERK19llama_memory_paramsRK13llama_cparamsE3$_1FbiEE6targetERKSt9type_info', symObjAddr: 0x6FF7C, symBinAddr: 0xE34D4, symSize: 0x60 }
  - { offset: 0x58F386, size: 0x8, addend: 0x0, symName: '__ZNKSt3__110__function6__funcIZNK11llama_model13create_memoryERK19llama_memory_paramsRK13llama_cparamsE3$_1FbiEE11target_typeEv', symObjAddr: 0x6FFDC, symBinAddr: 0xE3534, symSize: 0xC }
  - { offset: 0x58F3A9, size: 0x8, addend: 0x0, symName: '__ZNSt3__110__function6__funcIZNK11llama_model13create_memoryERK19llama_memory_paramsRK13llama_cparamsE3$_2FbiEED1Ev', symObjAddr: 0x6FFE8, symBinAddr: 0xE3540, symSize: 0x4 }
  - { offset: 0x58F3D8, size: 0x8, addend: 0x0, symName: '__ZNSt3__110__function6__funcIZNK11llama_model13create_memoryERK19llama_memory_paramsRK13llama_cparamsE3$_2FbiEED0Ev', symObjAddr: 0x6FFEC, symBinAddr: 0xE3544, symSize: 0x4 }
  - { offset: 0x58F44D, size: 0x8, addend: 0x0, symName: '__ZNKSt3__110__function6__funcIZNK11llama_model13create_memoryERK19llama_memory_paramsRK13llama_cparamsE3$_2FbiEE7__cloneEv', symObjAddr: 0x6FFF0, symBinAddr: 0xE3548, symSize: 0x34 }
  - { offset: 0x58F4AC, size: 0x8, addend: 0x0, symName: '__ZNKSt3__110__function6__funcIZNK11llama_model13create_memoryERK19llama_memory_paramsRK13llama_cparamsE3$_2FbiEE7__cloneEPNS0_6__baseISA_EE', symObjAddr: 0x70024, symBinAddr: 0xE357C, symSize: 0x14 }
  - { offset: 0x58F517, size: 0x8, addend: 0x0, symName: '__ZNSt3__110__function6__funcIZNK11llama_model13create_memoryERK19llama_memory_paramsRK13llama_cparamsE3$_2FbiEE7destroyEv', symObjAddr: 0x70038, symBinAddr: 0xE3590, symSize: 0x4 }
  - { offset: 0x58F53A, size: 0x8, addend: 0x0, symName: '__ZNSt3__110__function6__funcIZNK11llama_model13create_memoryERK19llama_memory_paramsRK13llama_cparamsE3$_2FbiEE18destroy_deallocateEv', symObjAddr: 0x7003C, symBinAddr: 0xE3594, symSize: 0x14 }
  - { offset: 0x58F5D3, size: 0x8, addend: 0x0, symName: '__ZNSt3__110__function6__funcIZNK11llama_model13create_memoryERK19llama_memory_paramsRK13llama_cparamsE3$_2FbiEEclEOi', symObjAddr: 0x70050, symBinAddr: 0xE35A8, symSize: 0x54 }
  - { offset: 0x58F64A, size: 0x8, addend: 0x0, symName: '__ZNKSt3__110__function6__funcIZNK11llama_model13create_memoryERK19llama_memory_paramsRK13llama_cparamsE3$_2FbiEE6targetERKSt9type_info', symObjAddr: 0x700A4, symBinAddr: 0xE35FC, symSize: 0x60 }
  - { offset: 0x58F6FD, size: 0x8, addend: 0x0, symName: '__ZNKSt3__110__function6__funcIZNK11llama_model13create_memoryERK19llama_memory_paramsRK13llama_cparamsE3$_2FbiEE11target_typeEv', symObjAddr: 0x70104, symBinAddr: 0xE365C, symSize: 0xC }
  - { offset: 0x58F720, size: 0x8, addend: 0x0, symName: '__ZNSt3__110__function6__funcIZNK11llama_model13create_memoryERK19llama_memory_paramsRK13llama_cparamsE3$_3FbiEED1Ev', symObjAddr: 0x70110, symBinAddr: 0xE3668, symSize: 0x4 }
  - { offset: 0x58F74F, size: 0x8, addend: 0x0, symName: '__ZNSt3__110__function6__funcIZNK11llama_model13create_memoryERK19llama_memory_paramsRK13llama_cparamsE3$_3FbiEED0Ev', symObjAddr: 0x70114, symBinAddr: 0xE366C, symSize: 0x4 }
  - { offset: 0x58F7C4, size: 0x8, addend: 0x0, symName: '__ZNKSt3__110__function6__funcIZNK11llama_model13create_memoryERK19llama_memory_paramsRK13llama_cparamsE3$_3FbiEE7__cloneEv', symObjAddr: 0x70118, symBinAddr: 0xE3670, symSize: 0x34 }
  - { offset: 0x58F823, size: 0x8, addend: 0x0, symName: '__ZNKSt3__110__function6__funcIZNK11llama_model13create_memoryERK19llama_memory_paramsRK13llama_cparamsE3$_3FbiEE7__cloneEPNS0_6__baseISA_EE', symObjAddr: 0x7014C, symBinAddr: 0xE36A4, symSize: 0x14 }
  - { offset: 0x58F88E, size: 0x8, addend: 0x0, symName: '__ZNSt3__110__function6__funcIZNK11llama_model13create_memoryERK19llama_memory_paramsRK13llama_cparamsE3$_3FbiEE7destroyEv', symObjAddr: 0x70160, symBinAddr: 0xE36B8, symSize: 0x4 }
  - { offset: 0x58F8B1, size: 0x8, addend: 0x0, symName: '__ZNSt3__110__function6__funcIZNK11llama_model13create_memoryERK19llama_memory_paramsRK13llama_cparamsE3$_3FbiEE18destroy_deallocateEv', symObjAddr: 0x70164, symBinAddr: 0xE36BC, symSize: 0x14 }
  - { offset: 0x58F94A, size: 0x8, addend: 0x0, symName: '__ZNSt3__110__function6__funcIZNK11llama_model13create_memoryERK19llama_memory_paramsRK13llama_cparamsE3$_3FbiEEclEOi', symObjAddr: 0x70178, symBinAddr: 0xE36D0, symSize: 0x44 }
  - { offset: 0x58F9DD, size: 0x8, addend: 0x0, symName: '__ZNKSt3__110__function6__funcIZNK11llama_model13create_memoryERK19llama_memory_paramsRK13llama_cparamsE3$_3FbiEE6targetERKSt9type_info', symObjAddr: 0x701BC, symBinAddr: 0xE3714, symSize: 0x60 }
  - { offset: 0x58FA90, size: 0x8, addend: 0x0, symName: '__ZNKSt3__110__function6__funcIZNK11llama_model13create_memoryERK19llama_memory_paramsRK13llama_cparamsE3$_3FbiEE11target_typeEv', symObjAddr: 0x7021C, symBinAddr: 0xE3774, symSize: 0xC }
  - { offset: 0x58FAB3, size: 0x8, addend: 0x0, symName: '__ZNSt3__110__function6__funcIZNK11llama_model13create_memoryERK19llama_memory_paramsRK13llama_cparamsE3$_4FiiEED1Ev', symObjAddr: 0x70228, symBinAddr: 0xE3780, symSize: 0x4 }
  - { offset: 0x58FAE2, size: 0x8, addend: 0x0, symName: '__ZNSt3__110__function6__funcIZNK11llama_model13create_memoryERK19llama_memory_paramsRK13llama_cparamsE3$_4FiiEED0Ev', symObjAddr: 0x7022C, symBinAddr: 0xE3784, symSize: 0x4 }
  - { offset: 0x58FB57, size: 0x8, addend: 0x0, symName: '__ZNKSt3__110__function6__funcIZNK11llama_model13create_memoryERK19llama_memory_paramsRK13llama_cparamsE3$_4FiiEE7__cloneEv', symObjAddr: 0x70230, symBinAddr: 0xE3788, symSize: 0x34 }
  - { offset: 0x58FBB6, size: 0x8, addend: 0x0, symName: '__ZNKSt3__110__function6__funcIZNK11llama_model13create_memoryERK19llama_memory_paramsRK13llama_cparamsE3$_4FiiEE7__cloneEPNS0_6__baseISA_EE', symObjAddr: 0x70264, symBinAddr: 0xE37BC, symSize: 0x14 }
  - { offset: 0x58FC21, size: 0x8, addend: 0x0, symName: '__ZNSt3__110__function6__funcIZNK11llama_model13create_memoryERK19llama_memory_paramsRK13llama_cparamsE3$_4FiiEE7destroyEv', symObjAddr: 0x70278, symBinAddr: 0xE37D0, symSize: 0x4 }
  - { offset: 0x58FC44, size: 0x8, addend: 0x0, symName: '__ZNSt3__110__function6__funcIZNK11llama_model13create_memoryERK19llama_memory_paramsRK13llama_cparamsE3$_4FiiEE18destroy_deallocateEv', symObjAddr: 0x7027C, symBinAddr: 0xE37D4, symSize: 0x14 }
  - { offset: 0x58FCDD, size: 0x8, addend: 0x0, symName: '__ZNSt3__110__function6__funcIZNK11llama_model13create_memoryERK19llama_memory_paramsRK13llama_cparamsE3$_4FiiEEclEOi', symObjAddr: 0x70290, symBinAddr: 0xE37E8, symSize: 0x54 }
  - { offset: 0x58FD54, size: 0x8, addend: 0x0, symName: '__ZNKSt3__110__function6__funcIZNK11llama_model13create_memoryERK19llama_memory_paramsRK13llama_cparamsE3$_4FiiEE6targetERKSt9type_info', symObjAddr: 0x702E4, symBinAddr: 0xE383C, symSize: 0x60 }
  - { offset: 0x58FE07, size: 0x8, addend: 0x0, symName: '__ZNKSt3__110__function6__funcIZNK11llama_model13create_memoryERK19llama_memory_paramsRK13llama_cparamsE3$_4FiiEE11target_typeEv', symObjAddr: 0x70344, symBinAddr: 0xE389C, symSize: 0xC }
  - { offset: 0x58FEB9, size: 0x8, addend: 0x0, symName: __GLOBAL__sub_I_llama_model.cpp, symObjAddr: 0x7DBD8, symBinAddr: 0xE3A40, symSize: 0x98 }
  - { offset: 0x591D49, size: 0x8, addend: 0x0, symName: __ZL25llama_model_quantize_implRKNSt3__112basic_stringIcNS_11char_traitsIcEENS_9allocatorIcEEEES7_PK27llama_model_quantize_params, symObjAddr: 0x274, symBinAddr: 0xE3D4C, symSize: 0x39E8 }
  - { offset: 0x5C3F5A, size: 0x8, addend: 0x0, symName: '__ZNSt3__111__introsortINS_17_ClassicAlgPolicyERZL25llama_model_quantize_implRKNS_12basic_stringIcNS_11char_traitsIcEENS_9allocatorIcEEEES9_PK27llama_model_quantize_paramsE3$_0PPKN18llama_model_loader19llama_tensor_weightELb0EEEvT1_SK_T0_NS_15iterator_traitsISK_E15difference_typeEb', symObjAddr: 0x127C8, symBinAddr: 0xEA7D8, symSize: 0xE80 }
  - { offset: 0x5C5D8B, size: 0x8, addend: 0x0, symName: '__ZNSt3__127__insertion_sort_incompleteB9nqe210106INS_17_ClassicAlgPolicyERZL25llama_model_quantize_implRKNS_12basic_stringIcNS_11char_traitsIcEENS_9allocatorIcEEEES9_PK27llama_model_quantize_paramsE3$_0PPKN18llama_model_loader19llama_tensor_weightEEEbT1_SK_T0_', symObjAddr: 0x137BC, symBinAddr: 0xEB7CC, symSize: 0x408 }
  - { offset: 0x5E12BF, size: 0x8, addend: 0x0, symName: '__ZNSt3__17__sort4B9nqe210106INS_17_ClassicAlgPolicyERZL25llama_model_quantize_implRKNS_12basic_stringIcNS_11char_traitsIcEENS_9allocatorIcEEEES9_PK27llama_model_quantize_paramsE3$_0PPKN18llama_model_loader19llama_tensor_weightELi0EEEvT1_SK_SK_SK_T0_', symObjAddr: 0x13648, symBinAddr: 0xEB658, symSize: 0x174 }
  - { offset: 0x5E1C40, size: 0x8, addend: 0x0, symName: '__ZNSt3__114__thread_proxyB9nqe210106INS_5tupleIJNS_10unique_ptrINS_15__thread_structENS_14default_deleteIS3_EEEEZL28llama_tensor_dequantize_implP11ggml_tensorRNS_6vectorI7no_initIfENS_9allocatorISB_EEEERNS9_INS_6threadENSC_ISG_EEEEmiE3$_09ggml_typePhPfmEEEEEPvSP_', symObjAddr: 0x140C4, symBinAddr: 0xEC0AC, symSize: 0xB4 }
  - { offset: 0x5E202B, size: 0x8, addend: 0x0, symName: '__ZNSt3__114__thread_proxyB9nqe210106INS_5tupleIJNS_10unique_ptrINS_15__thread_structENS_14default_deleteIS3_EEEEZL26llama_tensor_quantize_impl9ggml_typePKfPvxxxS9_RNS_6vectorINS_6threadENS_9allocatorISC_EEEEiE3$_0EEEEESA_SA_', symObjAddr: 0x142FC, symBinAddr: 0xEC2A8, symSize: 0x78 }
  - { offset: 0x5E7E5F, size: 0x8, addend: 0x0, symName: __Z28llama_ftype_get_default_type11llama_ftype, symObjAddr: 0x0, symBinAddr: 0xE3AD8, symSize: 0x20 }
  - { offset: 0x5E7E7D, size: 0x8, addend: 0x0, symName: _llama_model_quantize_default_params, symObjAddr: 0x20, symBinAddr: 0xE3AF8, symSize: 0x30 }
  - { offset: 0x5E8125, size: 0x8, addend: 0x0, symName: _llama_model_quantize, symObjAddr: 0x50, symBinAddr: 0xE3B28, symSize: 0x224 }
  - { offset: 0x5F0761, size: 0x8, addend: 0x0, symName: __ZN19quantize_state_implC2ERK11llama_modelPK27llama_model_quantize_params, symObjAddr: 0x146D0, symBinAddr: 0xEC5C0, symSize: 0x158 }
  - { offset: 0x5F0B5C, size: 0x8, addend: 0x0, symName: __ZNSt3__112__hash_tableINS_17__hash_value_typeINS_12basic_stringIcNS_11char_traitsIcEENS_9allocatorIcEEEENS_6vectorIfNS5_IfEEEEEENS_22__unordered_map_hasherIS7_NS_4pairIKS7_SA_EENS_4hashIS7_EENS_8equal_toIS7_EELb1EEENS_21__unordered_map_equalIS7_SF_SJ_SH_Lb1EEENS5_ISF_EEE21__emplace_unique_implIJRKPKcSA_EEENSD_INS_15__hash_iteratorIPNS_11__hash_nodeISB_PvEEEEbEEDpOT_, symObjAddr: 0x66B0, symBinAddr: 0xEA02C, symSize: 0xAC }
  - { offset: 0x5F1B01, size: 0x8, addend: 0x0, symName: __ZL28init_quantize_state_countersR19quantize_state_implRNSt3__16vectorI15tensor_metadataNS1_9allocatorIS3_EEEE, symObjAddr: 0x5564, symBinAddr: 0xE8F84, symSize: 0x594 }
  - { offset: 0x5F25BA, size: 0x8, addend: 0x0, symName: __ZL26tensor_allows_quantizationPK27llama_model_quantize_params8llm_archPK11ggml_tensor, symObjAddr: 0x409C, symBinAddr: 0xE7ABC, symSize: 0x12AC }
  - { offset: 0x5F51E8, size: 0x8, addend: 0x0, symName: __ZL21llama_tensor_get_typeR19quantize_state_implPK27llama_model_quantize_paramsPK11ggml_tensor9ggml_typeRK15tensor_metadata, symObjAddr: 0x5AF8, symBinAddr: 0xE9518, symSize: 0x380 }
  - { offset: 0x5F5CB1, size: 0x8, addend: 0x0, symName: '__ZZL25llama_model_quantize_implRKNSt3__112basic_stringIcNS_11char_traitsIcEENS_9allocatorIcEEEES7_PK27llama_model_quantize_paramsENK3$_2clEi', symObjAddr: 0x5F0C, symBinAddr: 0xE992C, symSize: 0x37C }
  - { offset: 0x5F68A0, size: 0x8, addend: 0x0, symName: '__ZZL25llama_model_quantize_implRKNSt3__112basic_stringIcNS_11char_traitsIcEENS_9allocatorIcEEEES7_PK27llama_model_quantize_paramsENK3$_1clEv', symObjAddr: 0x6288, symBinAddr: 0xE9CA8, symSize: 0x1EC }
  - { offset: 0x5F6EA8, size: 0x8, addend: 0x0, symName: __ZNKSt3__112__hash_tableINS_17__hash_value_typeINS_12basic_stringIcNS_11char_traitsIcEENS_9allocatorIcEEEENS_6vectorIfNS5_IfEEEEEENS_22__unordered_map_hasherIS7_NS_4pairIKS7_SA_EENS_4hashIS7_EENS_8equal_toIS7_EELb1EEENS_21__unordered_map_equalIS7_SF_SJ_SH_Lb1EEENS5_ISF_EEE4findIS7_EENS_21__hash_const_iteratorIPNS_11__hash_nodeISB_PvEEEERKT_, symObjAddr: 0x13DF0, symBinAddr: 0xEBDD8, symSize: 0x1BC }
  - { offset: 0x5F7283, size: 0x8, addend: 0x0, symName: '__ZNSt3__116allocator_traitsINS_9allocatorINS_6threadEEEE9constructB9nqe210106IS2_JRZL28llama_tensor_dequantize_implP11ggml_tensorRNS_6vectorI7no_initIfENS1_ISA_EEEERNS8_IS2_S3_EEmiE3$_0R9ggml_typePhPfRmELi0EEEvRS3_PT_DpOT0_', symObjAddr: 0x13FC0, symBinAddr: 0xEBFA8, symSize: 0x104 }
  - { offset: 0x5F7679, size: 0x8, addend: 0x0, symName: __ZNSt3__16__treeINS_12__value_typeIiNS_12basic_stringIcNS_11char_traitsIcEENS_9allocatorIcEEEEEENS_19__map_value_compareIiNS_4pairIKiS7_EENS_4lessIiEELb1EEENS5_ISC_EEE7destroyEPNS_11__tree_nodeIS8_PvEE, symObjAddr: 0x143BC, symBinAddr: 0xEC368, symSize: 0x60 }
  - { offset: 0x5F788D, size: 0x8, addend: 0x0, symName: __ZN18llama_model_loaderD2Ev, symObjAddr: 0x1441C, symBinAddr: 0xEC3C8, symSize: 0x1F8 }
  - { offset: 0x5F86FB, size: 0x8, addend: 0x0, symName: __ZNSt3__16vectorINS_6threadENS_9allocatorIS1_EEE20__throw_length_errorB9nqe210106Ev, symObjAddr: 0x13C44, symBinAddr: 0xEBC54, symSize: 0x14 }
  - { offset: 0x5F8713, size: 0x8, addend: 0x0, symName: __ZNSt3__114__split_bufferINS_6threadERNS_9allocatorIS1_EEED1Ev, symObjAddr: 0x13C58, symBinAddr: 0xEBC68, symSize: 0x50 }
  - { offset: 0x5F8758, size: 0x8, addend: 0x0, symName: __ZNSt3__16vectorIPKN18llama_model_loader19llama_tensor_weightENS_9allocatorIS4_EEE20__throw_length_errorB9nqe210106Ev, symObjAddr: 0x7344, symBinAddr: 0xEA7C4, symSize: 0x14 }
  - { offset: 0x5F8763, size: 0x8, addend: 0x0, symName: __ZNSt3__16vectorIPKN18llama_model_loader19llama_tensor_weightENS_9allocatorIS4_EEE20__throw_length_errorB9nqe210106Ev, symObjAddr: 0x7344, symBinAddr: 0xEA7C4, symSize: 0x14 }
  - { offset: 0x5F8790, size: 0x8, addend: 0x0, symName: __ZNKSt3__112__hash_tableINS_17__hash_value_typeINS_12basic_stringIcNS_11char_traitsIcEENS_9allocatorIcEEEENS_6vectorIfNS5_IfEEEEEENS_22__unordered_map_hasherIS7_NS_4pairIKS7_SA_EENS_4hashIS7_EENS_8equal_toIS7_EELb1EEENS_21__unordered_map_equalIS7_SF_SJ_SH_Lb1EEENS5_ISF_EEE4findIS7_EENS_21__hash_const_iteratorIPNS_11__hash_nodeISB_PvEEEERKT_, symObjAddr: 0x13DF0, symBinAddr: 0xEBDD8, symSize: 0x1BC }
  - { offset: 0x5F879B, size: 0x8, addend: 0x0, symName: __ZNSt3__16vectorI7no_initIfENS_9allocatorIS2_EEE20__throw_length_errorB9nqe210106Ev, symObjAddr: 0x13FAC, symBinAddr: 0xEBF94, symSize: 0x14 }
  - { offset: 0x5F87B3, size: 0x8, addend: 0x0, symName: '__ZNSt3__116allocator_traitsINS_9allocatorINS_6threadEEEE9constructB9nqe210106IS2_JRZL28llama_tensor_dequantize_implP11ggml_tensorRNS_6vectorI7no_initIfENS1_ISA_EEEERNS8_IS2_S3_EEmiE3$_0R9ggml_typePhPfRmELi0EEEvRS3_PT_DpOT0_', symObjAddr: 0x13FC0, symBinAddr: 0xEBFA8, symSize: 0x104 }
  - { offset: 0x5F87BE, size: 0x8, addend: 0x0, symName: __ZNSt3__16vectorI15tensor_metadataNS_9allocatorIS1_EEE20__throw_length_errorB9nqe210106Ev, symObjAddr: 0x158EC, symBinAddr: 0xED7DC, symSize: 0x14 }
  - { offset: 0x5F87E1, size: 0x8, addend: 0x0, symName: __ZNSt3__128__exception_guard_exceptionsINS_6vectorINS_10unique_ptrI12gguf_context20gguf_context_deleterEENS_9allocatorIS5_EEE16__destroy_vectorEED1B9nqe210106Ev, symObjAddr: 0x13BC4, symBinAddr: 0xEBBD4, symSize: 0x80 }
  - { offset: 0x5F89CB, size: 0x8, addend: 0x0, symName: __ZNSt3__128__exception_guard_exceptionsINS_6vectorI15tensor_metadataNS_9allocatorIS2_EEE16__destroy_vectorEED1B9nqe210106Ev, symObjAddr: 0x15840, symBinAddr: 0xED730, symSize: 0xAC }
  - { offset: 0x5F8D06, size: 0x8, addend: 0x0, symName: __ZNSt3__114__split_bufferINS_6threadERNS_9allocatorIS1_EEED1Ev, symObjAddr: 0x13C58, symBinAddr: 0xEBC68, symSize: 0x50 }
  - { offset: 0x5F8E3F, size: 0x8, addend: 0x0, symName: '__ZNSt3__110unique_ptrINS_5tupleIJNS0_INS_15__thread_structENS_14default_deleteIS2_EEEEZL26llama_tensor_quantize_impl9ggml_typePKfPvxxxS8_RNS_6vectorINS_6threadENS_9allocatorISB_EEEEiE3$_0EEENS3_ISH_EEED1B9nqe210106Ev', symObjAddr: 0x14374, symBinAddr: 0xEC320, symSize: 0x48 }
  - { offset: 0x5F903E, size: 0x8, addend: 0x0, symName: __ZNSt3__114basic_ofstreamIcNS_11char_traitsIcEEED1Ev, symObjAddr: 0x6474, symBinAddr: 0xE9E94, symSize: 0x58 }
  - { offset: 0x5F9086, size: 0x8, addend: 0x0, symName: __ZNSt3__16vectorINS_6threadENS_9allocatorIS1_EEED1B9nqe210106Ev, symObjAddr: 0x64CC, symBinAddr: 0xE9EEC, symSize: 0x58 }
  - { offset: 0x5F91E9, size: 0x8, addend: 0x0, symName: __ZNSt3__16vectorINS_10unique_ptrI12gguf_context20gguf_context_deleterEENS_9allocatorIS4_EEED1B9nqe210106Ev, symObjAddr: 0x6524, symBinAddr: 0xE9F44, symSize: 0x70 }
  - { offset: 0x5F93BD, size: 0x8, addend: 0x0, symName: __ZNSt3__16vectorI15tensor_metadataNS_9allocatorIS1_EEED1B9nqe210106Ev, symObjAddr: 0x5E78, symBinAddr: 0xE9898, symSize: 0x94 }
  - { offset: 0x5F974A, size: 0x8, addend: 0x0, symName: __ZNSt3__113unordered_mapINS_12basic_stringIcNS_11char_traitsIcEENS_9allocatorIcEEEENS_6vectorIfNS4_IfEEEENS_4hashIS6_EENS_8equal_toIS6_EENS4_INS_4pairIKS6_S9_EEEEED1B9nqe210106Ev, symObjAddr: 0x65C8, symBinAddr: 0xE9FB4, symSize: 0x78 }
  - { offset: 0x5F9BFF, size: 0x8, addend: 0x0, symName: __ZN19quantize_state_implD1Ev, symObjAddr: 0x3E14, symBinAddr: 0xE7834, symSize: 0xA0 }
  - { offset: 0x5FA19F, size: 0x8, addend: 0x0, symName: __Z16llama_quant_initPK11llama_modelPK27llama_model_quantize_params, symObjAddr: 0x3D14, symBinAddr: 0xE7734, symSize: 0x58 }
  - { offset: 0x5FA224, size: 0x8, addend: 0x0, symName: __Z16llama_quant_freeP19quantize_state_impl, symObjAddr: 0x3D6C, symBinAddr: 0xE778C, symSize: 0xA8 }
  - { offset: 0x5FA4EC, size: 0x8, addend: 0x0, symName: __Z31llama_quant_model_from_metadataPK22llama_quant_model_desc, symObjAddr: 0x3EB4, symBinAddr: 0xE78D4, symSize: 0x1D4 }
  - { offset: 0x5FA9B1, size: 0x8, addend: 0x0, symName: __Z38llama_quant_tensor_allows_quantizationPK19quantize_state_implPK11ggml_tensor, symObjAddr: 0x4088, symBinAddr: 0xE7AA8, symSize: 0x14 }
  - { offset: 0x5FABB9, size: 0x8, addend: 0x0, symName: __Z25llama_quant_compute_typesP19quantize_state_impl11llama_ftypePP11ggml_tensorP9ggml_typem, symObjAddr: 0x5348, symBinAddr: 0xE8D68, symSize: 0x21C }
  - { offset: 0x5FB472, size: 0x8, addend: 0x0, symName: __ZL26llama_tensor_get_type_implR19quantize_state_impl9ggml_typePK11ggml_tensor11llama_ftype15tensor_category, symObjAddr: 0x14C68, symBinAddr: 0xECB58, symSize: 0xA74 }
  - { offset: 0x5FC0B2, size: 0x8, addend: 0x0, symName: __ZNSt3__114basic_ofstreamIcNS_11char_traitsIcEEEC1ERKNS_12basic_stringIcS2_NS_9allocatorIcEEEEj, symObjAddr: 0x13CA8, symBinAddr: 0xEBCB8, symSize: 0x120 }
  - { offset: 0x5FC715, size: 0x8, addend: 0x0, symName: __ZNSt3__112__hash_tableINS_17__hash_value_typeINS_12basic_stringIcNS_11char_traitsIcEENS_9allocatorIcEEEENS_6vectorIfNS5_IfEEEEEENS_22__unordered_map_hasherIS7_NS_4pairIKS7_SA_EENS_4hashIS7_EENS_8equal_toIS7_EELb1EEENS_21__unordered_map_equalIS7_SF_SJ_SH_Lb1EEENS5_ISF_EEE16__construct_nodeIJRKPKcSA_EEENS_10unique_ptrINS_11__hash_nodeISB_PvEENS_22__hash_node_destructorINS5_ISX_EEEEEEDpOT_, symObjAddr: 0x675C, symBinAddr: 0xEA0D8, symSize: 0x144 }
  - { offset: 0x5FCD24, size: 0x8, addend: 0x0, symName: __ZNSt3__112__hash_tableINS_17__hash_value_typeINS_12basic_stringIcNS_11char_traitsIcEENS_9allocatorIcEEEENS_6vectorIfNS5_IfEEEEEENS_22__unordered_map_hasherIS7_NS_4pairIKS7_SA_EENS_4hashIS7_EENS_8equal_toIS7_EELb1EEENS_21__unordered_map_equalIS7_SF_SJ_SH_Lb1EEENS5_ISF_EEE20__node_insert_uniqueEPNS_11__hash_nodeISB_PvEE, symObjAddr: 0x68A0, symBinAddr: 0xEA21C, symSize: 0x138 }
  - { offset: 0x5FCF7B, size: 0x8, addend: 0x0, symName: __ZNSt3__110unique_ptrINS_11__hash_nodeINS_17__hash_value_typeINS_12basic_stringIcNS_11char_traitsIcEENS_9allocatorIcEEEENS_6vectorIfNS6_IfEEEEEEPvEENS_22__hash_node_destructorINS6_ISE_EEEEED1B9nqe210106Ev, symObjAddr: 0x69D8, symBinAddr: 0xEA354, symSize: 0x60 }
  - { offset: 0x5FDD6A, size: 0x8, addend: 0x0, symName: __ZNSt3__112__hash_tableINS_17__hash_value_typeINS_12basic_stringIcNS_11char_traitsIcEENS_9allocatorIcEEEENS_6vectorIfNS5_IfEEEEEENS_22__unordered_map_hasherIS7_NS_4pairIKS7_SA_EENS_4hashIS7_EENS_8equal_toIS7_EELb1EEENS_21__unordered_map_equalIS7_SF_SJ_SH_Lb1EEENS5_ISF_EEE28__node_insert_unique_prepareB9nqe210106EmRSF_, symObjAddr: 0x6EAC, symBinAddr: 0xEA3B4, symSize: 0x284 }
  - { offset: 0x5FE3EF, size: 0x8, addend: 0x0, symName: __ZNSt3__112__hash_tableINS_17__hash_value_typeINS_12basic_stringIcNS_11char_traitsIcEENS_9allocatorIcEEEENS_6vectorIfNS5_IfEEEEEENS_22__unordered_map_hasherIS7_NS_4pairIKS7_SA_EENS_4hashIS7_EENS_8equal_toIS7_EELb1EEENS_21__unordered_map_equalIS7_SF_SJ_SH_Lb1EEENS5_ISF_EEE11__do_rehashILb1EEEvm, symObjAddr: 0x7130, symBinAddr: 0xEA638, symSize: 0x18C }
  - { offset: 0x613E49, size: 0x8, addend: 0x0, symName: '__ZNSt3__110unique_ptrINS_5tupleIJNS0_INS_15__thread_structENS_14default_deleteIS2_EEEEZL28llama_tensor_dequantize_implP11ggml_tensorRNS_6vectorI7no_initIfENS_9allocatorISA_EEEERNS8_INS_6threadENSB_ISF_EEEEmiE3$_09ggml_typePhPfmEEENS3_ISN_EEED1B9nqe210106Ev', symObjAddr: 0x14178, symBinAddr: 0xEC160, symSize: 0x48 }
  - { offset: 0x6142E2, size: 0x8, addend: 0x0, symName: '__ZZL26llama_tensor_quantize_impl9ggml_typePKfPvxxxS1_RNSt3__16vectorINS3_6threadENS3_9allocatorIS5_EEEEiENK3$_0clEv', symObjAddr: 0x141FC, symBinAddr: 0xEC1A8, symSize: 0x100 }
  - { offset: 0x6158B5, size: 0x8, addend: 0x0, symName: __ZNSt3__16vectorINS_4pairINS_11basic_regexIcNS_12regex_traitsIcEEEE9ggml_typeEENS_9allocatorIS7_EEE24__emplace_back_slow_pathIJS5_RKS6_EEEPS7_DpOT_, symObjAddr: 0x148C8, symBinAddr: 0xEC7B8, symSize: 0x1C8 }
  - { offset: 0x615EBF, size: 0x8, addend: 0x0, symName: __ZNSt3__16vectorINS_4pairINS_11basic_regexIcNS_12regex_traitsIcEEEE9ggml_typeEENS_9allocatorIS7_EEED1B9nqe210106Ev, symObjAddr: 0x14828, symBinAddr: 0xEC718, symSize: 0xA0 }
  - { offset: 0x6162E8, size: 0x8, addend: 0x0, symName: __ZNSt3__16vectorINS_4pairINS_11basic_regexIcNS_12regex_traitsIcEEEE9ggml_typeEENS_9allocatorIS7_EEE26__swap_out_circular_bufferERNS_14__split_bufferIS7_RS9_EE, symObjAddr: 0x14A90, symBinAddr: 0xEC980, symSize: 0x12C }
  - { offset: 0x616778, size: 0x8, addend: 0x0, symName: __ZNSt3__16vectorINS_4pairINS_11basic_regexIcNS_12regex_traitsIcEEEE9ggml_typeEENS_9allocatorIS7_EEE20__throw_length_errorB9nqe210106Ev, symObjAddr: 0x14C54, symBinAddr: 0xECB44, symSize: 0x14 }
  - { offset: 0x616790, size: 0x8, addend: 0x0, symName: __ZL26llama_tensor_get_type_implR19quantize_state_impl9ggml_typePK11ggml_tensor11llama_ftype15tensor_category, symObjAddr: 0x14C68, symBinAddr: 0xECB58, symSize: 0xA74 }
  - { offset: 0x61679B, size: 0x8, addend: 0x0, symName: __ZNSt3__114__split_bufferINS_4pairINS_11basic_regexIcNS_12regex_traitsIcEEEE9ggml_typeEERNS_9allocatorIS7_EEED1Ev, symObjAddr: 0x14BBC, symBinAddr: 0xECAAC, symSize: 0x98 }
  - { offset: 0x616B54, size: 0x8, addend: 0x0, symName: '__ZZL26llama_tensor_get_type_implR19quantize_state_impl9ggml_typePK11ggml_tensor11llama_ftype15tensor_categoryENK3$_1clEiiPKc', symObjAddr: 0x156DC, symBinAddr: 0xED5CC, symSize: 0x164 }
  - { offset: 0x618BE6, size: 0x8, addend: 0x0, symName: __MergedGlobals, symObjAddr: 0x1D420, symBinAddr: 0x31C408, symSize: 0x0 }
  - { offset: 0x618DF5, size: 0x8, addend: 0x0, symName: __ZL22llama_sampler_greedy_i, symObjAddr: 0x1D2E0, symBinAddr: 0x31C2C8, symSize: 0x0 }
  - { offset: 0x618E03, size: 0x8, addend: 0x0, symName: __ZL12get_rng_seedj, symObjAddr: 0xA30, symBinAddr: 0xEE220, symSize: 0x158 }
  - { offset: 0x618E2F, size: 0x8, addend: 0x0, symName: __MergedGlobals.178, symObjAddr: 0x204520, symBinAddr: 0x3AFF18, symSize: 0x0 }
  - { offset: 0x61919E, size: 0x8, addend: 0x0, symName: __MergedGlobals, symObjAddr: 0x1D420, symBinAddr: 0x31C408, symSize: 0x0 }
  - { offset: 0x6191BB, size: 0x8, addend: 0x0, symName: __MergedGlobals, symObjAddr: 0x1D420, symBinAddr: 0x31C408, symSize: 0x0 }
  - { offset: 0x6191D9, size: 0x8, addend: 0x0, symName: __MergedGlobals, symObjAddr: 0x1D420, symBinAddr: 0x31C408, symSize: 0x0 }
  - { offset: 0x6191EA, size: 0x8, addend: 0x0, symName: __ZL43llama_token_data_array_partial_sort_inplaceP22llama_token_data_arrayi, symObjAddr: 0x46EC, symBinAddr: 0xF1E50, symSize: 0x4B8 }
  - { offset: 0x6198CE, size: 0x8, addend: 0x0, symName: __ZL35llama_token_data_array_partial_sortRK22llama_token_data_arrayiRNSt3__16vectorI16llama_token_dataNS2_9allocatorIS4_EEEE, symObjAddr: 0x4BA4, symBinAddr: 0xF2308, symSize: 0x5D8 }
  - { offset: 0x62F5AA, size: 0x8, addend: 0x0, symName: '__ZNSt3__111__introsortINS_17_ClassicAlgPolicyERZL35llama_token_data_array_partial_sortRK22llama_token_data_arrayiRNS_6vectorI16llama_token_dataNS_9allocatorIS6_EEEEE3$_0PS6_Lb0EEEvT1_SE_T0_NS_15iterator_traitsISE_E15difference_typeEb', symObjAddr: 0x5240, symBinAddr: 0xF28F4, symSize: 0xD8C }
  - { offset: 0x6309E3, size: 0x8, addend: 0x0, symName: '__ZNSt3__127__insertion_sort_incompleteB9nqe210106INS_17_ClassicAlgPolicyERZL35llama_token_data_array_partial_sortRK22llama_token_data_arrayiRNS_6vectorI16llama_token_dataNS_9allocatorIS6_EEEEE3$_0PS6_EEbT1_SE_T0_', symObjAddr: 0x620C, symBinAddr: 0xF38C0, symSize: 0x4B0 }
  - { offset: 0x632BF8, size: 0x8, addend: 0x0, symName: '__ZNSt3__111__introsortINS_17_ClassicAlgPolicyERZL27llama_sampler_typical_applyP13llama_samplerP22llama_token_data_arrayE3$_0PmLb0EEEvT1_S9_T0_NS_15iterator_traitsIS9_E15difference_typeEb', symObjAddr: 0x808C, symBinAddr: 0xF5718, symSize: 0xA7C }
  - { offset: 0x634A11, size: 0x8, addend: 0x0, symName: '__ZNSt3__127__insertion_sort_incompleteB9nqe210106INS_17_ClassicAlgPolicyERZL27llama_sampler_typical_applyP13llama_samplerP22llama_token_data_arrayE3$_0PmEEbT1_S9_T0_', symObjAddr: 0x8CA4, symBinAddr: 0xF6330, symSize: 0x330 }
  - { offset: 0x6400DE, size: 0x8, addend: 0x0, symName: __ZNSt3__113regex_replaceB9nqe210106INS_20back_insert_iteratorINS_12basic_stringIcNS_11char_traitsIcEENS_9allocatorIcEEEEEEPKcNS_12regex_traitsIcEEcEET_SD_T0_SE_RKNS_11basic_regexIT2_T1_EEPKSG_NS_15regex_constants15match_flag_typeE, symObjAddr: 0x1406C, symBinAddr: 0xF8B40, symSize: 0x284 }
  - { offset: 0x642B89, size: 0x8, addend: 0x0, symName: '__ZNSt3__119__partial_sort_implB9nqe210106INS_17_ClassicAlgPolicyERZL35llama_token_data_array_partial_sortRK22llama_token_data_arrayiRNS_6vectorI16llama_token_dataNS_9allocatorIS6_EEEEE3$_0PS6_SD_EET1_SE_SE_T2_OT0_', symObjAddr: 0x66BC, symBinAddr: 0xF3D70, symSize: 0x404 }
  - { offset: 0x6432C4, size: 0x8, addend: 0x0, symName: '__ZNSt3__17__sort5B9nqe210106INS_17_ClassicAlgPolicyERZL35llama_token_data_array_partial_sortRK22llama_token_data_arrayiRNS_6vectorI16llama_token_dataNS_9allocatorIS6_EEEEE3$_0PS6_Li0EEEvT1_SE_SE_SE_SE_T0_', symObjAddr: 0x5FCC, symBinAddr: 0xF3680, symSize: 0x240 }
  - { offset: 0x644930, size: 0x8, addend: 0x0, symName: '__ZNSt3__17__sort5B9nqe210106INS_17_ClassicAlgPolicyERZL27llama_sampler_typical_applyP13llama_samplerP22llama_token_data_arrayE3$_0PmLi0EEEvT1_S9_S9_S9_S9_T0_', symObjAddr: 0x8B08, symBinAddr: 0xF6194, symSize: 0x19C }
  - { offset: 0x64499E, size: 0x8, addend: 0x0, symName: '__ZNSt3__17__sort5B9nqe210106INS_17_ClassicAlgPolicyERZL27llama_sampler_typical_applyP13llama_samplerP22llama_token_data_arrayE3$_0PmLi0EEEvT1_S9_S9_S9_S9_T0_', symObjAddr: 0x8B08, symBinAddr: 0xF6194, symSize: 0x19C }
  - { offset: 0x64A24C, size: 0x8, addend: 0x0, symName: __MergedGlobals, symObjAddr: 0x1D420, symBinAddr: 0x31C408, symSize: 0x0 }
  - { offset: 0x64A26A, size: 0x8, addend: 0x0, symName: __MergedGlobals, symObjAddr: 0x1D420, symBinAddr: 0x31C408, symSize: 0x0 }
  - { offset: 0x64A288, size: 0x8, addend: 0x0, symName: __MergedGlobals, symObjAddr: 0x1D420, symBinAddr: 0x31C408, symSize: 0x0 }
  - { offset: 0x64A2A6, size: 0x8, addend: 0x0, symName: __MergedGlobals, symObjAddr: 0x1D420, symBinAddr: 0x31C408, symSize: 0x0 }
  - { offset: 0x64A2C4, size: 0x8, addend: 0x0, symName: __MergedGlobals, symObjAddr: 0x1D420, symBinAddr: 0x31C408, symSize: 0x0 }
